

Microchip MPLAB XC8 Assembler V2.40 build 20220703182018 
                                                                                               Thu Mar 23 22:44:46 2023

Microchip MPLAB XC8 C Compiler v2.40 (Free license) build 20220703182018 Og1 
     1                           	processor	18LF26K40
     2                           	fnconf	rparam,??,?,0
     3                           	pagewidth 120
     4                           	opt	flic
     5                           	psect	smallconst,global,reloc=2,class=SMALLCONST,delta=1,noexec
     6                           	psect	nvCOMRAM,global,class=COMRAM,space=1,delta=1,lowdata,noexec
     7                           	psect	nvBANK0,global,class=BANK0,space=1,delta=1,lowdata,noexec
     8                           	psect	cinit,global,reloc=2,class=CODE,delta=1
     9                           	psect	bssCOMRAM,global,class=COMRAM,space=1,delta=1,lowdata,noexec
    10                           	psect	bssBANK0,global,class=BANK0,space=1,delta=1,lowdata,noexec
    11                           	psect	cstackBANK1,global,class=BANK1,space=1,delta=1,lowdata,noexec
    12                           	psect	cstackBANK0,global,class=BANK0,space=1,delta=1,lowdata,noexec
    13                           	psect	cstackCOMRAM,global,class=COMRAM,space=1,delta=1,lowdata,noexec
    14                           	psect	text0,global,reloc=2,class=CODE,delta=1
    15                           	psect	text1,global,reloc=2,class=CODE,delta=1
    16                           	psect	text2,global,reloc=2,class=CODE,delta=1
    17                           	psect	text3,global,reloc=2,class=CODE,delta=1
    18                           	psect	text4,global,reloc=2,class=CODE,delta=1
    19                           	psect	text5,global,reloc=2,class=CODE,delta=1,group=2
    20                           	psect	text6,global,reloc=2,class=CODE,delta=1,group=2
    21                           	psect	text7,global,reloc=2,class=CODE,delta=1,group=2
    22                           	psect	text8,global,reloc=2,class=CODE,delta=1,group=2
    23                           	psect	text9,global,reloc=2,class=CODE,delta=1
    24                           	psect	text10,global,reloc=2,class=CODE,delta=1
    25                           	psect	text11,global,reloc=2,class=CODE,delta=1
    26                           	psect	text12,global,reloc=2,class=CODE,delta=1
    27                           	psect	text13,global,reloc=2,class=CODE,delta=1
    28                           	psect	text14,global,reloc=2,class=CODE,delta=1
    29                           	psect	text15,global,reloc=2,class=CODE,delta=1
    30                           	psect	text16,global,reloc=2,class=CODE,delta=1,group=3
    31                           	psect	text17,global,reloc=2,class=CODE,delta=1,group=1
    32                           	psect	text18,global,reloc=2,class=CODE,delta=1,group=1
    33                           	psect	text19,global,reloc=2,class=CODE,delta=1,group=1
    34                           	psect	text20,global,reloc=2,class=CODE,delta=1,group=2
    35                           	psect	text21,global,reloc=2,class=CODE,delta=1,group=2
    36                           	psect	text22,global,reloc=2,class=CODE,delta=1,group=1
    37                           	psect	text23,global,reloc=2,class=CODE,delta=1,group=1
    38                           	psect	text24,global,reloc=2,class=CODE,delta=1,group=3
    39                           	psect	text25,global,reloc=2,class=CODE,delta=1,group=3
    40                           	psect	text26,global,reloc=2,class=CODE,delta=1
    41                           	psect	text27,global,reloc=2,class=CODE,delta=1
    42                           	psect	text28,global,reloc=2,class=CODE,delta=1,group=3
    43                           	psect	text29,global,reloc=2,class=CODE,delta=1,group=2
    44                           	psect	text30,global,reloc=2,class=CODE,delta=1,group=2
    45                           	psect	text31,global,reloc=2,class=CODE,delta=1,group=3
    46                           	psect	text32,global,reloc=2,class=CODE,delta=1,group=3
    47                           	psect	text33,global,reloc=2,class=CODE,delta=1,group=3
    48                           	psect	text34,global,reloc=2,class=CODE,delta=1,group=2
    49                           	psect	text35,global,reloc=2,class=CODE,delta=1
    50                           	psect	text36,global,reloc=2,class=CODE,delta=1
    51                           	psect	text37,global,reloc=2,class=CODE,delta=1
    52                           	psect	text38,global,reloc=2,class=CODE,delta=1
    53                           	psect	text39,global,reloc=2,class=CODE,delta=1
    54                           	psect	text40,global,reloc=2,class=CODE,delta=1
    55                           	psect	text41,global,reloc=2,class=CODE,delta=1
    56                           	psect	text42,global,reloc=2,class=CODE,delta=1
    57                           	psect	text43,global,reloc=2,class=CODE,delta=1
    58                           	psect	text44,global,reloc=2,class=CODE,delta=1
    59                           	psect	text45,global,reloc=2,class=CODE,delta=1
    60                           	psect	text46,global,reloc=2,class=CODE,delta=1
    61                           	psect	text47,global,reloc=2,class=CODE,delta=1
    62                           	psect	text48,global,reloc=2,class=CODE,delta=1,inline
    63                           	psect	text49,global,reloc=2,class=CODE,delta=1,inline
    64                           	psect	text50,global,reloc=2,class=CODE,delta=1
    65                           	psect	text51,global,reloc=2,class=CODE,delta=1
    66                           	psect	text52,global,reloc=2,class=CODE,delta=1,inline
    67                           	psect	text53,global,reloc=2,class=CODE,delta=1
    68                           	psect	text54,global,reloc=2,class=CODE,delta=1,inline
    69                           	psect	text55,global,reloc=2,class=CODE,delta=1,inline
    70                           	psect	text56,global,reloc=2,class=CODE,delta=1,inline
    71                           	psect	text57,global,reloc=2,class=CODE,delta=1,group=2
    72                           	psect	text58,global,reloc=2,class=CODE,delta=1
    73                           	psect	text59,global,reloc=2,class=CODE,delta=1
    74                           	psect	text60,global,reloc=2,class=CODE,delta=1
    75                           	psect	text61,global,reloc=2,class=CODE,delta=1
    76                           	psect	text62,global,reloc=2,class=CODE,delta=1
    77                           	psect	text63,global,reloc=2,class=CODE,delta=1
    78                           	psect	text64,global,reloc=2,class=CODE,delta=1
    79                           	psect	text65,global,reloc=2,class=CODE,delta=1
    80                           	psect	text66,global,reloc=2,class=CODE,delta=1
    81                           	psect	text67,global,reloc=2,class=CODE,delta=1
    82                           	psect	text68,global,reloc=2,class=CODE,delta=1
    83                           	psect	text69,global,reloc=2,class=CODE,delta=1
    84                           	psect	text70,global,reloc=2,class=CODE,delta=1
    85                           	psect	text71,global,reloc=2,class=CODE,delta=1
    86                           	psect	intcode,global,reloc=2,class=CODE,delta=1
    87                           	psect	text73,global,reloc=2,class=CODE,delta=1
    88                           	psect	text74,global,reloc=2,class=CODE,delta=1
    89                           	psect	text75,global,reloc=2,class=CODE,delta=1
    90                           	psect	text76,global,reloc=2,class=CODE,delta=1
    91                           	psect	text77,global,reloc=2,class=CODE,delta=1,inline
    92                           	psect	text78,global,reloc=2,class=CODE,delta=1,inline
    93                           	psect	text79,global,reloc=2,class=CODE,delta=1
    94                           	psect	text80,global,reloc=2,class=CODE,delta=1
    95                           	psect	text81,global,reloc=2,class=CODE,delta=1
    96                           	psect	text82,global,reloc=2,class=CODE,delta=1
    97                           	psect	text83,global,reloc=2,class=CODE,delta=1
    98                           	psect	text84,global,reloc=2,class=CODE,delta=1
    99                           	psect	text85,global,reloc=2,class=CODE,delta=1
   100                           	psect	text86,global,reloc=2,class=CODE,delta=1
   101                           	psect	text87,global,reloc=2,class=CODE,delta=1
   102                           	psect	text88,global,reloc=2,class=CODE,delta=1
   103                           	psect	text89,global,reloc=2,class=CODE,delta=1
   104                           	psect	text90,global,reloc=2,class=CODE,delta=1
   105                           	psect	text91,global,reloc=2,class=CODE,delta=1
   106                           	psect	text92,global,reloc=2,class=CODE,delta=1
   107                           	psect	text93,global,reloc=2,class=CODE,delta=1
   108                           	psect	text94,global,reloc=2,class=CODE,delta=1
   109                           	psect	text95,global,reloc=2,class=CODE,delta=1,inline
   110                           	psect	text96,global,reloc=2,class=CODE,delta=1,inline
   111                           	psect	text97,global,reloc=2,class=CODE,delta=1,inline
   112                           	psect	text98,global,reloc=2,class=CODE,delta=1,inline
   113                           	psect	text99,global,reloc=2,class=CODE,delta=1,inline
   114                           	psect	text100,global,reloc=2,class=CODE,delta=1,inline
   115                           	psect	text101,global,reloc=2,class=CODE,delta=1,inline
   116                           	psect	text102,global,reloc=2,class=CODE,delta=1
   117                           	psect	text103,global,reloc=2,class=CODE,delta=1
   118                           	psect	text104,global,reloc=2,class=CODE,delta=1
   119                           	psect	text105,global,reloc=2,class=CODE,delta=1
   120                           	psect	text106,global,reloc=2,class=CODE,delta=1
   121                           	psect	text107,global,reloc=2,class=CODE,delta=1
   122                           	psect	text108,global,reloc=2,class=CODE,delta=1
   123                           	psect	text109,global,reloc=2,class=CODE,delta=1
   124                           	psect	text110,global,reloc=2,class=CODE,delta=1
   125                           	psect	text111,global,reloc=2,class=CODE,delta=1
   126                           	psect	text112,global,reloc=2,class=CODE,delta=1,inline
   127                           	psect	text113,global,reloc=2,class=CODE,delta=1,inline
   128                           	psect	intsave_regs,global,class=BIGRAM,space=1,delta=1,noexec
   129                           	psect	text114,global,reloc=2,class=CODE,delta=1,inline
   130                           	psect	rparam,global,class=COMRAM,space=1,delta=1,noexec
   131                           	psect	temp,global,ovrld,common,class=COMRAM,space=1,delta=1
   132                           	psect	idloc,global,abs,ovrld,class=IDLOC,space=5,delta=1,noexec
   133                           	psect	config,global,abs,ovrld,class=CONFIG,space=4,delta=1,noexec
   134   000000                     
   135                           ; Generated 09/02/2023 GMT
   136                           ; 
   137                           ; Copyright © 2023, Microchip Technology Inc. and its subsidiaries ("Microchip")
   138                           ; All rights reserved.
   139                           ; 
   140                           ; This software is developed by Microchip Technology Inc. and its subsidiaries ("Microch
      +                          ip").
   141                           ; 
   142                           ; Redistribution and use in source and binary forms, with or without modification, are
   143                           ; permitted provided that the following conditions are met:
   144                           ; 
   145                           ;     1. Redistributions of source code must retain the above copyright notice, this lis
      +                          t of
   146                           ;        conditions and the following disclaimer.
   147                           ; 
   148                           ;     2. Redistributions in binary form must reproduce the above copyright notice, this 
      +                          list
   149                           ;        of conditions and the following disclaimer in the documentation and/or other
   150                           ;        materials provided with the distribution. Publication is not required when
   151                           ;        this file is used in an embedded application.
   152                           ; 
   153                           ;     3. Microchip's name may not be used to endorse or promote products derived from th
      +                          is
   154                           ;        software without specific prior written permission.
   155                           ; 
   156                           ; THIS SOFTWARE IS PROVIDED BY MICROCHIP "AS IS" AND ANY EXPRESS OR IMPLIED WARRANTIES,
   157                           ; INCLUDING, BUT NOT LIMITED TO, THE IMPLIED WARRANTIES OF MERCHANTABILITY AND FITNESS F
      +                          OR
   158                           ; PURPOSE ARE DISCLAIMED.  IN NO EVENT SHALL MICROCHIP BE LIABLE FOR ANY DIRECT, INDIREC
      +                          T,
   159                           ; INCIDENTAL, SPECIAL, EXEMPLARY, OR CONSEQUENTIAL DAMAGES (INCLUDING BUT NOT LIMITED TO
   160                           ; PROCUREMENT OF SUBSTITUTE GOODS OR SERVICES; LOSS OF USE, DATA OR PROFITS; OR BUSINESS
   161                           ; INTERRUPTION) HOWSOEVER CAUSED AND ON ANY THEORY OF LIABILITY, WHETHER IN CONTRACT, ST
      +                          RICT
   162                           ; LIABILITY, OR TORT (INCLUDING NEGLIGENCE OR OTHERWISE) ARISING IN ANY WAY OUT OF THE U
      +                          SE OF
   163                           ; THIS SOFTWARE, EVEN IF ADVISED OF THE POSSIBILITY OF SUCH DAMAGE.
   164                           ; 
   165                           ; 
   166                           ; Code-generator required, PIC18LF26K40 Definitions
   167                           ; 
   168                           ; SFR Addresses
   169   000000                     
   170 ;; Function _IOCAF0_DefaultInterruptHandler is unused but had its address taken
   171   000000                     
   172 ;; Function _EUSART1_DefaultFramingErrorHandler is unused but had its address taken
   173   000000                     
   174 ;; Function _EUSART1_DefaultOverrunErrorHandler is unused but had its address taken
   175   000000                     
   176 ;; Function _EUSART1_DefaultErrorHandler is unused but had its address taken
   177   000000                     
   178                           	psect	smallconst
   179   000F00                     __psmallconst:
   180                           	callstack 0
   181   000F00  00                 	db	0
   182   000F01                     _i2c1_fsmStateTable:
   183                           	callstack 0
   184   000F01  CC                 	db	low _I2C1_DO_IDLE
   185   000F02  3A                 	db	high _I2C1_DO_IDLE
   186   000F03  98                 	db	low _I2C1_DO_SEND_ADR_READ
   187   000F04  3A                 	db	high _I2C1_DO_SEND_ADR_READ
   188   000F05  88                 	db	low _I2C1_DO_SEND_ADR_WRITE
   189   000F06  3A                 	db	high _I2C1_DO_SEND_ADR_WRITE
   190   000F07  CE                 	db	low _I2C1_DO_TX
   191   000F08  2B                 	db	high _I2C1_DO_TX
   192   000F09  40                 	db	low _I2C1_DO_RX
   193   000F0A  2D                 	db	high _I2C1_DO_RX
   194   000F0B  C0                 	db	low _I2C1_DO_RCEN
   195   000F0C  3A                 	db	high _I2C1_DO_RCEN
   196   000F0D  9A                 	db	low _I2C1_DO_TX_EMPTY
   197   000F0E  2F                 	db	high _I2C1_DO_TX_EMPTY
   198   000F0F  5E                 	db	low _I2C1_DO_SEND_RESTART_READ
   199   000F10  3B                 	db	high _I2C1_DO_SEND_RESTART_READ
   200   000F11  56                 	db	low _I2C1_DO_SEND_RESTART_WRITE
   201   000F12  3B                 	db	high _I2C1_DO_SEND_RESTART_WRITE
   202   000F13  4E                 	db	low _I2C1_DO_SEND_RESTART
   203   000F14  3B                 	db	high _I2C1_DO_SEND_RESTART
   204   000F15  46                 	db	low _I2C1_DO_SEND_STOP
   205   000F16  3B                 	db	high _I2C1_DO_SEND_STOP
   206   000F17  3E                 	db	low _I2C1_DO_RX_ACK
   207   000F18  3B                 	db	high _I2C1_DO_RX_ACK
   208   000F19  36                 	db	low _I2C1_DO_RX_NACK_STOP
   209   000F1A  3B                 	db	high _I2C1_DO_RX_NACK_STOP
   210   000F1B  2E                 	db	low _I2C1_DO_RX_NACK_RESTART
   211   000F1C  3B                 	db	high _I2C1_DO_RX_NACK_RESTART
   212   000F1D  B4                 	db	low _I2C1_DO_RESET
   213   000F1E  3A                 	db	high _I2C1_DO_RESET
   214   000F1F  A4                 	db	low _I2C1_DO_ADDRESS_NACK
   215   000F20  33                 	db	high _I2C1_DO_ADDRESS_NACK
   216   000F21                     __end_of_i2c1_fsmStateTable:
   217                           	callstack 0
   218   000000                     _T2CON	set	4029
   219   000000                     _TX1REG	set	3994
   220   000000                     _SP1BRGH	set	3996
   221   000000                     _TX1STA	set	3998
   222   000000                     _OSCTUNE	set	3805
   223   000000                     _OSCFRQ	set	3806
   224   000000                     _IOCAPbits	set	3852
   225   000000                     _IOCANbits	set	3851
   226   000F21                     STR_5:
   227   000F21  09                 	db	9
   228   000F22  4D                 	db	77	;'M'
   229   000F23  6F                 	db	111	;'o'
   230   000F24  74                 	db	116	;'t'
   231   000F25  6F                 	db	111	;'o'
   232   000F26  72                 	db	114	;'r'
   233   000F27  20                 	db	32
   234   000F28  31                 	db	49	;'1'
   235   000F29  20                 	db	32
   236   000F2A  46                 	db	70	;'F'
   237   000F2B  61                 	db	97	;'a'
   238   000F2C  75                 	db	117	;'u'
   239   000F2D  6C                 	db	108	;'l'
   240   000F2E  74                 	db	116	;'t'
   241   000F2F  20                 	db	32
   242   000F30  43                 	db	67	;'C'
   243   000F31  6F                 	db	111	;'o'
   244   000F32  64                 	db	100	;'d'
   245   000F33  65                 	db	101	;'e'
   246   000F34  3D                 	db	61	;'='
   247   000F35  25                 	db	37
   248   000F36  75                 	db	117	;'u'
   249   000F37  20                 	db	32
   250   000F38  0A                 	db	10
   251   000F39  0D                 	db	13
   252   000F3A  00                 	db	0
   253   000F3B                     STR_6:
   254   000F3B  09                 	db	9
   255   000F3C  4D                 	db	77	;'M'
   256   000F3D  6F                 	db	111	;'o'
   257   000F3E  74                 	db	116	;'t'
   258   000F3F  6F                 	db	111	;'o'
   259   000F40  72                 	db	114	;'r'
   260   000F41  20                 	db	32
   261   000F42  32                 	db	50	;'2'
   262   000F43  20                 	db	32
   263   000F44  46                 	db	70	;'F'
   264   000F45  61                 	db	97	;'a'
   265   000F46  75                 	db	117	;'u'
   266   000F47  6C                 	db	108	;'l'
   267   000F48  74                 	db	116	;'t'
   268   000F49  20                 	db	32
   269   000F4A  43                 	db	67	;'C'
   270   000F4B  6F                 	db	111	;'o'
   271   000F4C  64                 	db	100	;'d'
   272   000F4D  65                 	db	101	;'e'
   273   000F4E  3D                 	db	61	;'='
   274   000F4F  25                 	db	37
   275   000F50  75                 	db	117	;'u'
   276   000F51  0A                 	db	10
   277   000F52  0D                 	db	13
   278   000F53  00                 	db	0
   279   000F54                     STR_1:
   280   000F54  52                 	db	82	;'R'
   281   000F55  65                 	db	101	;'e'
   282   000F56  61                 	db	97	;'a'
   283   000F57  64                 	db	100	;'d'
   284   000F58  69                 	db	105	;'i'
   285   000F59  6E                 	db	110	;'n'
   286   000F5A  67                 	db	103	;'g'
   287   000F5B  25                 	db	37
   288   000F5C  69                 	db	105	;'i'
   289   000F5D  28                 	db	40
   290   000F5E  74                 	db	116	;'t'
   291   000F5F  3D                 	db	61	;'='
   292   000F60  25                 	db	37
   293   000F61  2E                 	db	46
   294   000F62  36                 	db	54	;'6'
   295   000F63  75                 	db	117	;'u'
   296   000F64  29                 	db	41
   297   000F65  3A                 	db	58	;':'
   298   000F66  20                 	db	32
   299   000F67  0A                 	db	10
   300   000F68  0D                 	db	13
   301   000F69  00                 	db	0
   302   000F6A                     STR_4:
   303   000F6A  09                 	db	9
   304   000F6B  57                 	db	87	;'W'
   305   000F6C  69                 	db	105	;'i'
   306   000F6D  6E                 	db	110	;'n'
   307   000F6E  64                 	db	100	;'d'
   308   000F6F  20                 	db	32
   309   000F70  53                 	db	83	;'S'
   310   000F71  70                 	db	112	;'p'
   311   000F72  65                 	db	101	;'e'
   312   000F73  65                 	db	101	;'e'
   313   000F74  64                 	db	100	;'d'
   314   000F75  3D                 	db	61	;'='
   315   000F76  25                 	db	37
   316   000F77  35                 	db	53	;'5'
   317   000F78  2E                 	db	46
   318   000F79  35                 	db	53	;'5'
   319   000F7A  64                 	db	100	;'d'
   320   000F7B  20                 	db	32
   321   000F7C  0A                 	db	10
   322   000F7D  0D                 	db	13
   323   000F7E  00                 	db	0
   324   000F7F                     STR_2:
   325   000F7F  09                 	db	9
   326   000F80  54                 	db	84	;'T'
   327   000F81  65                 	db	101	;'e'
   328   000F82  6D                 	db	109	;'m'
   329   000F83  70                 	db	112	;'p'
   330   000F84  3D                 	db	61	;'='
   331   000F85  25                 	db	37
   332   000F86  75                 	db	117	;'u'
   333   000F87  43                 	db	67	;'C'
   334   000F88  20                 	db	32
   335   000F89  0A                 	db	10
   336   000F8A  0D                 	db	13
   337   000F8B  00                 	db	0
   338   000F8C                     STR_3:
   339   000F8C  09                 	db	9
   340   000F8D  48                 	db	72	;'H'
   341   000F8E  61                 	db	97	;'a'
   342   000F8F  6C                 	db	108	;'l'
   343   000F90  6C                 	db	108	;'l'
   344   000F91  3D                 	db	61	;'='
   345   000F92  25                 	db	37
   346   000F93  75                 	db	117	;'u'
   347   000F94  20                 	db	32
   348   000F95  0A                 	db	10
   349   000F96  0D                 	db	13
   350   000F97  00                 	db	0
   351   000F98  00                 	db	0	; dummy byte at the end
   352   000000                     
   353                           	psect	nvCOMRAM
   354   000040                     __pnvCOMRAM:
   355                           	callstack 0
   356   000040                     _TMR2_InterruptHandler:
   357                           	callstack 0
   358   000040                     	ds	2
   359   000042                     _EUSART1_FramingErrorHandler:
   360                           	callstack 0
   361   000042                     	ds	2
   362   000044                     _IOCAF0_InterruptHandler:
   363                           	callstack 0
   364   000044                     	ds	2
   365                           
   366                           	psect	nvBANK0
   367   0000F8                     __pnvBANK0:
   368                           	callstack 0
   369   0000F8                     _EUSART1_ErrorHandler:
   370                           	callstack 0
   371   0000F8                     	ds	2
   372   0000FA                     _EUSART1_OverrunErrorHandler:
   373                           	callstack 0
   374   0000FA                     	ds	2
   375   000000                     _ODCONBbits	set	3863
   376   000000                     _LATBbits	set	3972
   377   000000                     _PR2	set	4028
   378   000000                     _TMR2	set	4027
   379   000000                     _T2CONbits	set	4029
   380   000000                     _T2RSTbits	set	4032
   381   000000                     _T2HLTbits	set	4030
   382   000000                     _RC1STAbits	set	3997
   383   000000                     _TX1STAbits	set	3998
   384   000000                     _SSP1STATbits	set	3989
   385   000000                     _SSP1CON2bits	set	3991
   386   000000                     _SSP1CON1bits	set	3990
   387   000000                     _RX1PPS	set	3765
   388   000000                     _SSP1CLKPPS	set	3767
   389   000000                     _IOCAFbits	set	3850
   390   000000                     _INLVLA	set	3853
   391   000000                     _SLRCONA	set	3854
   392   000000                     _ODCONA	set	3855
   393   000000                     _WPUA	set	3856
   394   000000                     _ANSELA	set	3857
   395   000000                     _ANSELB	set	3865
   396   000000                     _ANSELC	set	3873
   397   000000                     _LATA	set	3971
   398   000000                     _TRISA	set	3976
   399   000000                     _LATC	set	3973
   400   000000                     _LATB	set	3972
   401   000000                     _PORTAbits	set	3981
   402   000000                     _SSP1BUF	set	3986
   403   000000                     _SSP1ADD	set	3987
   404   000000                     _SSP1STAT	set	3989
   405   000000                     _TRISC	set	3978
   406   000000                     _TRISB	set	3977
   407   000000                     _INLVLE	set	3882
   408   000000                     _WPUE	set	3885
   409   000000                     _INLVLC	set	3869
   410   000000                     _SLRCONC	set	3870
   411   000000                     _ODCONC	set	3871
   412   000000                     _WPUC	set	3872
   413   000000                     _INLVLB	set	3861
   414   000000                     _SLRCONB	set	3862
   415   000000                     _ODCONB	set	3863
   416   000000                     _WPUB	set	3864
   417   000000                     _PIE3bits	set	3781
   418   000000                     _PIR3bits	set	3789
   419   000000                     _SSP1DATPPS	set	3768
   420   000000                     _RC3PPS	set	3834
   421   000000                     _RC6PPS	set	3837
   422   000000                     _RC4PPS	set	3835
   423   000000                     _RC1REG	set	3993
   424   000000                     _SP1BRGL	set	3995
   425   000000                     _RC1STA	set	3997
   426   000000                     _BAUD1CON	set	3999
   427   000000                     _INTCONbits	set	4082
   428   000000                     _SSP1CON2	set	3991
   429   000000                     _SSP1CON1	set	3990
   430   000000                     _PIR4bits	set	3790
   431   000000                     _OSCCON1	set	3800
   432   000000                     _PIE4bits	set	3782
   433   000000                     _OSCCON3	set	3802
   434   000000                     _OSCEN	set	3804
   435   000000                     _PMD0	set	3809
   436   000000                     _PMD5	set	3814
   437   000000                     _PMD4	set	3813
   438   000000                     _PMD3	set	3812
   439   000000                     _PMD2	set	3811
   440   000000                     _PMD1	set	3810
   441   000000                     _T2TMR	set	4027
   442   000000                     _T2PR	set	4028
   443   000000                     _T2HLT	set	4030
   444   000000                     _T2CLKCON	set	4031
   445   000000                     _T2RST	set	4032
   446                           
   447                           ; #config settings
   448                           
   449                           	psect	cinit
   450   003908                     __pcinit:
   451                           	callstack 0
   452   003908                     start_initialization:
   453                           	callstack 0
   454   003908                     __initialization:
   455                           	callstack 0
   456                           
   457                           ; Clear objects allocated to BANK0 (70 bytes)
   458   003908  EE00  F0B2         	lfsr	0,__pbssBANK0
   459   00390C  0E46               	movlw	70
   460   00390E                     clear_0:
   461   00390E  6AEE               	clrf	postinc0,c
   462   003910  06E8               	decf	wreg,f,c
   463   003912  E1FD               	bnz	clear_0
   464                           
   465                           ; Clear objects allocated to COMRAM (19 bytes)
   466   003914  EE00  F02D         	lfsr	0,__pbssCOMRAM
   467   003918  0E13               	movlw	19
   468   00391A                     clear_1:
   469   00391A  6AEE               	clrf	postinc0,c
   470   00391C  06E8               	decf	wreg,f,c
   471   00391E  E1FD               	bnz	clear_1
   472   003920                     end_of_initialization:
   473                           	callstack 0
   474   003920                     __end_of__initialization:
   475                           	callstack 0
   476   003920  9046               	bcf	int$flags,0,c	;clear compiler interrupt flag (level 1)
   477   003922  9246               	bcf	int$flags,1,c	;clear compiler interrupt flag (level 2)
   478   003924  0100               	movlb	0
   479   003926  EFFD  F00E         	goto	_main	;jump to C main() function
   480                           
   481                           	psect	bssCOMRAM
   482   00002D                     __pbssCOMRAM:
   483                           	callstack 0
   484   00002D                     _hall_time:
   485                           	callstack 0
   486   00002D                     	ds	4
   487   000031                     _hall_pos:
   488                           	callstack 0
   489   000031                     	ds	4
   490   000035                     _width:
   491                           	callstack 0
   492   000035                     	ds	2
   493   000037                     _prec:
   494                           	callstack 0
   495   000037                     	ds	2
   496   000039                     _timer_us:
   497                           	callstack 0
   498   000039                     	ds	2
   499   00003B                     _MSSP1_InterruptHandler:
   500                           	callstack 0
   501   00003B                     	ds	2
   502   00003D                     _flags:
   503                           	callstack 0
   504   00003D                     	ds	1
   505   00003E                     _deployStatus:
   506                           	callstack 0
   507   00003E                     	ds	1
   508   00003F                     _eusart1RxLastError:
   509                           	callstack 0
   510   00003F                     	ds	1
   511                           
   512                           	psect	bssBANK0
   513   0000B2                     __pbssBANK0:
   514                           	callstack 0
   515   0000B2                     _I2C1_Status:
   516                           	callstack 0
   517   0000B2                     	ds	36
   518   0000D6                     _timer_ms:
   519                           	callstack 0
   520   0000D6                     	ds	2
   521   0000D8                     _dbuf:
   522                           	callstack 0
   523   0000D8                     	ds	32
   524                           
   525                           	psect	cstackBANK1
   526   000100                     __pcstackBANK1:
   527                           	callstack 0
   528   000100                     main@hall_raw:
   529                           	callstack 0
   530                           
   531                           ; 2 bytes @ 0x0
   532   000100                     	ds	2
   533   000102                     main@readCount:
   534                           	callstack 0
   535                           
   536                           ; 2 bytes @ 0x2
   537   000102                     	ds	2
   538   000104                     main@temp_data:
   539                           	callstack 0
   540                           
   541                           ; 1 bytes @ 0x4
   542   000104                     	ds	1
   543   000105                     main@motor1_fault:
   544                           	callstack 0
   545                           
   546                           ; 1 bytes @ 0x5
   547   000105                     	ds	1
   548   000106                     main@motor2_fault:
   549                           	callstack 0
   550                           
   551                           ; 1 bytes @ 0x6
   552   000106                     	ds	1
   553   000107                     main@wind_speed:
   554                           	callstack 0
   555                           
   556                           ; 4 bytes @ 0x7
   557   000107                     	ds	4
   558   00010B                     main@threshCount:
   559                           	callstack 0
   560                           
   561                           ; 2 bytes @ 0xB
   562   00010B                     	ds	2
   563                           
   564                           	psect	cstackBANK0
   565   000060                     __pcstackBANK0:
   566                           	callstack 0
   567   000060                     ?_abs:
   568                           	callstack 0
   569   000060                     ___aodiv@counter:
   570                           	callstack 0
   571   000060                     ___flmul@sign:
   572                           	callstack 0
   573   000060                     ___xxtofl@sign:
   574                           	callstack 0
   575   000060                     pad@fp:
   576                           	callstack 0
   577   000060                     abs@a:
   578                           	callstack 0
   579   000060                     ___lodiv@quotient:
   580                           	callstack 0
   581                           
   582                           ; 8 bytes @ 0x0
   583   000060                     	ds	1
   584   000061                     ___aodiv@sign:
   585                           	callstack 0
   586   000061                     ___flmul@aexp:
   587                           	callstack 0
   588   000061                     ___xxtofl@exp:
   589                           	callstack 0
   590                           
   591                           ; 1 bytes @ 0x1
   592   000061                     	ds	1
   593   000062                     ??_abs:
   594   000062                     pad@buf:
   595                           	callstack 0
   596   000062                     ___flmul@grs:
   597                           	callstack 0
   598   000062                     ___xxtofl@arg:
   599                           	callstack 0
   600   000062                     ___aodiv@quotient:
   601                           	callstack 0
   602                           
   603                           ; 8 bytes @ 0x2
   604   000062                     	ds	2
   605   000064                     pad@p:
   606                           	callstack 0
   607                           
   608                           ; 2 bytes @ 0x4
   609   000064                     	ds	2
   610   000066                     ___flmul@bexp:
   611                           	callstack 0
   612   000066                     pad@i:
   613                           	callstack 0
   614                           
   615                           ; 2 bytes @ 0x6
   616   000066                     	ds	1
   617   000067                     ___flmul@prod:
   618                           	callstack 0
   619                           
   620                           ; 4 bytes @ 0x7
   621   000067                     	ds	1
   622   000068                     ___lodiv@counter:
   623                           	callstack 0
   624   000068                     pad@w:
   625                           	callstack 0
   626                           
   627                           ; 2 bytes @ 0x8
   628   000068                     	ds	2
   629   00006A                     dtoa@fp:
   630                           	callstack 0
   631   00006A                     utoa@fp:
   632                           	callstack 0
   633                           
   634                           ; 2 bytes @ 0xA
   635   00006A                     	ds	1
   636   00006B                     ___flmul@temp:
   637                           	callstack 0
   638                           
   639                           ; 2 bytes @ 0xB
   640   00006B                     	ds	1
   641   00006C                     dtoa@d:
   642                           	callstack 0
   643   00006C                     utoa@d:
   644                           	callstack 0
   645                           
   646                           ; 8 bytes @ 0xC
   647   00006C                     	ds	1
   648   00006D                     ?___fldiv:
   649                           	callstack 0
   650   00006D                     ___fldiv@b:
   651                           	callstack 0
   652                           
   653                           ; 4 bytes @ 0xD
   654   00006D                     	ds	4
   655   000071                     ___fldiv@a:
   656                           	callstack 0
   657                           
   658                           ; 4 bytes @ 0x11
   659   000071                     	ds	3
   660   000074                     ??_dtoa:
   661   000074                     ??_utoa:
   662                           
   663                           ; 1 bytes @ 0x14
   664   000074                     	ds	1
   665   000075                     ___fldiv@rem:
   666                           	callstack 0
   667                           
   668                           ; 4 bytes @ 0x15
   669   000075                     	ds	4
   670   000079                     ___fldiv@sign:
   671                           	callstack 0
   672                           
   673                           ; 1 bytes @ 0x19
   674   000079                     	ds	1
   675   00007A                     ___fldiv@new_exp:
   676                           	callstack 0
   677                           
   678                           ; 2 bytes @ 0x1A
   679   00007A                     	ds	2
   680   00007C                     _dtoa$2695:
   681                           	callstack 0
   682   00007C                     utoa@w:
   683                           	callstack 0
   684   00007C                     ___fldiv@grs:
   685                           	callstack 0
   686                           
   687                           ; 4 bytes @ 0x1C
   688   00007C                     	ds	2
   689   00007E                     dtoa@p:
   690                           	callstack 0
   691   00007E                     utoa@p:
   692                           	callstack 0
   693                           
   694                           ; 2 bytes @ 0x1E
   695   00007E                     	ds	2
   696   000080                     ___fldiv@bexp:
   697                           	callstack 0
   698   000080                     dtoa@w:
   699                           	callstack 0
   700   000080                     utoa@n:
   701                           	callstack 0
   702                           
   703                           ; 8 bytes @ 0x20
   704   000080                     	ds	1
   705   000081                     ___fldiv@aexp:
   706                           	callstack 0
   707                           
   708                           ; 1 bytes @ 0x21
   709   000081                     	ds	1
   710   000082                     ?_windSpeedCalc:
   711                           	callstack 0
   712   000082                     dtoa@n:
   713                           	callstack 0
   714                           
   715                           ; 8 bytes @ 0x22
   716   000082                     	ds	4
   717   000086                     windSpeedCalc@dw_dt:
   718                           	callstack 0
   719                           
   720                           ; 4 bytes @ 0x26
   721   000086                     	ds	2
   722   000088                     utoa@i:
   723                           	callstack 0
   724                           
   725                           ; 2 bytes @ 0x28
   726   000088                     	ds	2
   727   00008A                     dtoa@s:
   728                           	callstack 0
   729   00008A                     windSpeedCalc@linearVel:
   730                           	callstack 0
   731                           
   732                           ; 4 bytes @ 0x2A
   733   00008A                     	ds	1
   734   00008B                     dtoa@i:
   735                           	callstack 0
   736                           
   737                           ; 2 bytes @ 0x2B
   738   00008B                     	ds	2
   739   00008D                     vfpfcnvrt@fp:
   740                           	callstack 0
   741                           
   742                           ; 2 bytes @ 0x2D
   743   00008D                     	ds	1
   744   00008E                     _windSpeedCalc$3106:
   745                           	callstack 0
   746                           
   747                           ; 4 bytes @ 0x2E
   748   00008E                     	ds	1
   749   00008F                     vfpfcnvrt@fmt:
   750                           	callstack 0
   751                           
   752                           ; 2 bytes @ 0x2F
   753   00008F                     	ds	2
   754   000091                     vfpfcnvrt@ap:
   755                           	callstack 0
   756                           
   757                           ; 2 bytes @ 0x31
   758   000091                     	ds	1
   759   000092                     _windSpeedCalc$3107:
   760                           	callstack 0
   761                           
   762                           ; 4 bytes @ 0x32
   763   000092                     	ds	1
   764   000093                     ??_vfpfcnvrt:
   765                           
   766                           ; 1 bytes @ 0x33
   767   000093                     	ds	4
   768   000097                     vfpfcnvrt@convarg:
   769                           	callstack 0
   770                           
   771                           ; 8 bytes @ 0x37
   772   000097                     	ds	8
   773   00009F                     vfpfcnvrt@cp:
   774                           	callstack 0
   775                           
   776                           ; 2 bytes @ 0x3F
   777   00009F                     	ds	2
   778   0000A1                     ?_vfprintf:
   779                           	callstack 0
   780   0000A1                     vfprintf@fp:
   781                           	callstack 0
   782                           
   783                           ; 2 bytes @ 0x41
   784   0000A1                     	ds	2
   785   0000A3                     vfprintf@fmt:
   786                           	callstack 0
   787                           
   788                           ; 2 bytes @ 0x43
   789   0000A3                     	ds	2
   790   0000A5                     vfprintf@ap:
   791                           	callstack 0
   792                           
   793                           ; 2 bytes @ 0x45
   794   0000A5                     	ds	2
   795   0000A7                     vfprintf@cfmt:
   796                           	callstack 0
   797                           
   798                           ; 2 bytes @ 0x47
   799   0000A7                     	ds	2
   800   0000A9                     ?_printf:
   801                           	callstack 0
   802   0000A9                     printf@fmt:
   803                           	callstack 0
   804                           
   805                           ; 2 bytes @ 0x49
   806   0000A9                     	ds	6
   807   0000AF                     printf@ap:
   808                           	callstack 0
   809                           
   810                           ; 2 bytes @ 0x4F
   811   0000AF                     	ds	2
   812   0000B1                     ??_main:
   813                           
   814                           ; 1 bytes @ 0x51
   815   0000B1                     	ds	1
   816                           
   817                           	psect	cstackCOMRAM
   818   000001                     __pcstackCOMRAM:
   819                           	callstack 0
   820   000001                     I2C1_MasterSendTxData@data:
   821                           	callstack 0
   822   000001                     i2I2C1_SetBuffer@buffer:
   823                           	callstack 0
   824   000001                     i2I2C1_SetCallback@cb:
   825                           	callstack 0
   826                           
   827                           ; 2 bytes @ 0x0
   828   000001                     	ds	1
   829   000002                     
   830                           ; 1 bytes @ 0x1
   831   000002                     	ds	1
   832   000003                     i2I2C1_SetBuffer@bufferSize:
   833                           	callstack 0
   834   000003                     i2I2C1_SetCallback@ptr:
   835                           	callstack 0
   836                           
   837                           ; 2 bytes @ 0x2
   838   000003                     	ds	2
   839   000005                     i2I2C1_SetCallback@idx:
   840                           	callstack 0
   841                           
   842                           ; 1 bytes @ 0x4
   843   000005                     	ds	1
   844   000006                     i2I2C1_SetDataCompleteCallback@cb:
   845                           	callstack 0
   846                           
   847                           ; 2 bytes @ 0x5
   848   000006                     	ds	2
   849   000008                     i2I2C1_SetDataCompleteCallback@ptr:
   850                           	callstack 0
   851                           
   852                           ; 2 bytes @ 0x7
   853   000008                     	ds	2
   854   00000A                     rd1RegCompleteHandler@ptr:
   855                           	callstack 0
   856   00000A                     rd2RegCompleteHandler@ptr:
   857                           	callstack 0
   858   00000A                     wr1RegCompleteHandler@ptr:
   859                           	callstack 0
   860   00000A                     wr2RegCompleteHandler@ptr:
   861                           	callstack 0
   862   00000A                     rdBlkRegCompleteHandler@ptr:
   863                           	callstack 0
   864   00000A                     I2C1_CallbackReturnReset@funPtr:
   865                           	callstack 0
   866                           
   867                           ; 2 bytes @ 0x9
   868   00000A                     	ds	2
   869   00000C                     ??_I2C1_DO_TX:
   870   00000C                     ??_I2C1_DO_RX:
   871   00000C                     ??_I2C1_DO_TX_EMPTY:
   872   00000C                     ??_I2C1_DO_ADDRESS_NACK:
   873   00000C                     
   874                           ; 1 bytes @ 0xB
   875   00000C                     	ds	2
   876   00000E                     ??_I2C1_MasterFsm:
   877                           
   878                           ; 1 bytes @ 0xD
   879   00000E                     	ds	2
   880   000010                     ??_INTERRUPT_InterruptManager:
   881                           
   882                           ; 1 bytes @ 0xF
   883   000010                     	ds	10
   884   00001A                     ?_isdigit:
   885                           	callstack 0
   886   00001A                     ?_isspace:
   887                           	callstack 0
   888   00001A                     ?___wmul:
   889                           	callstack 0
   890   00001A                     ?___lwdiv:
   891                           	callstack 0
   892   00001A                     ?___flmul:
   893                           	callstack 0
   894   00001A                     ?___aodiv:
   895                           	callstack 0
   896   00001A                     ?___aomod:
   897                           	callstack 0
   898   00001A                     ?___lodiv:
   899                           	callstack 0
   900   00001A                     ?___lomod:
   901                           	callstack 0
   902   00001A                     I2C1_Close@returnValue:
   903                           	callstack 0
   904   00001A                     I2C1_MasterOperation@read:
   905                           	callstack 0
   906   00001A                     _EUSART1_is_tx_ready$1627:
   907                           	callstack 0
   908   00001A                     EUSART1_Write@txData:
   909                           	callstack 0
   910   00001A                     TMR2_Counter8BitGet@readVal:
   911                           	callstack 0
   912   00001A                     IOCAF0_SetInterruptHandler@InterruptHandler:
   913                           	callstack 0
   914   00001A                     I2C1_SetBuffer@buffer:
   915                           	callstack 0
   916   00001A                     I2C1_SetInterruptHandler@InterruptHandler:
   917                           	callstack 0
   918   00001A                     I2C1_SetCallback@cb:
   919                           	callstack 0
   920   00001A                     EUSART1_SetFramingErrorHandler@interruptHandler:
   921                           	callstack 0
   922   00001A                     EUSART1_SetOverrunErrorHandler@interruptHandler:
   923                           	callstack 0
   924   00001A                     EUSART1_SetErrorHandler@interruptHandler:
   925                           	callstack 0
   926   00001A                     TMR2_SetInterruptHandler@InterruptHandler:
   927                           	callstack 0
   928   00001A                     ___wmul@multiplier:
   929                           	callstack 0
   930   00001A                     ___lwdiv@dividend:
   931                           	callstack 0
   932   00001A                     isdigit@c:
   933                           	callstack 0
   934   00001A                     isspace@c:
   935                           	callstack 0
   936   00001A                     ___flge@ff1:
   937                           	callstack 0
   938   00001A                     ___flmul@b:
   939                           	callstack 0
   940   00001A                     ___aodiv@dividend:
   941                           	callstack 0
   942   00001A                     ___aomod@dividend:
   943                           	callstack 0
   944   00001A                     ___lodiv@dividend:
   945                           	callstack 0
   946   00001A                     ___lomod@dividend:
   947                           	callstack 0
   948                           
   949                           ; 8 bytes @ 0x19
   950   00001A                     	ds	1
   951   00001B                     I2C1_MasterOperation@returnValue:
   952                           	callstack 0
   953   00001B                     putch@txData:
   954                           	callstack 0
   955                           
   956                           ; 1 bytes @ 0x1A
   957   00001B                     	ds	1
   958   00001C                     ??_isdigit:
   959   00001C                     ??_isspace:
   960   00001C                     I2C1_Open@address:
   961                           	callstack 0
   962   00001C                     I2C1_SetBuffer@bufferSize:
   963                           	callstack 0
   964   00001C                     I2C1_SetCallback@ptr:
   965                           	callstack 0
   966   00001C                     ___wmul@multiplicand:
   967                           	callstack 0
   968   00001C                     ___lwdiv@divisor:
   969                           	callstack 0
   970   00001C                     fputc@c:
   971                           	callstack 0
   972                           
   973                           ; 2 bytes @ 0x1B
   974   00001C                     	ds	1
   975   00001D                     I2C1_Open@returnValue:
   976                           	callstack 0
   977                           
   978                           ; 1 bytes @ 0x1C
   979   00001D                     	ds	1
   980   00001E                     I2C1_SetCallback@idx:
   981                           	callstack 0
   982   00001E                     ___lwdiv@counter:
   983                           	callstack 0
   984   00001E                     _isspace$2752:
   985                           	callstack 0
   986   00001E                     ___wmul@product:
   987                           	callstack 0
   988   00001E                     fputc@fp:
   989                           	callstack 0
   990   00001E                     ___flge@ff2:
   991                           	callstack 0
   992   00001E                     ___flmul@a:
   993                           	callstack 0
   994                           
   995                           ; 4 bytes @ 0x1D
   996   00001E                     	ds	1
   997   00001F                     I2C1_SetDataCompleteCallback@cb:
   998                           	callstack 0
   999   00001F                     I2C1_SetAddressNackCallback@cb:
  1000                           	callstack 0
  1001   00001F                     ___lwdiv@quotient:
  1002                           	callstack 0
  1003                           
  1004                           ; 2 bytes @ 0x1E
  1005   00001F                     	ds	1
  1006   000020                     ??_fputc:
  1007   000020                     ?_atoi:
  1008                           	callstack 0
  1009   000020                     atoi@s:
  1010                           	callstack 0
  1011                           
  1012                           ; 2 bytes @ 0x1F
  1013   000020                     	ds	1
  1014   000021                     ?___xxtofl:
  1015                           	callstack 0
  1016   000021                     I2C1_SetDataCompleteCallback@ptr:
  1017                           	callstack 0
  1018   000021                     I2C1_SetAddressNackCallback@ptr:
  1019                           	callstack 0
  1020   000021                     ___xxtofl@val:
  1021                           	callstack 0
  1022                           
  1023                           ; 4 bytes @ 0x20
  1024   000021                     	ds	1
  1025   000022                     ??___flmul:
  1026   000022                     ??_atoi:
  1027   000022                     ??___flge:
  1028   000022                     ___aodiv@divisor:
  1029                           	callstack 0
  1030   000022                     ___aomod@divisor:
  1031                           	callstack 0
  1032   000022                     ___lodiv@divisor:
  1033                           	callstack 0
  1034   000022                     ___lomod@divisor:
  1035                           	callstack 0
  1036                           
  1037                           ; 8 bytes @ 0x21
  1038   000022                     	ds	1
  1039   000023                     I2C1_Read1ByteRegister@reg:
  1040                           	callstack 0
  1041   000023                     I2C1_Write1ByteRegister@reg:
  1042                           	callstack 0
  1043                           
  1044                           ; 1 bytes @ 0x22
  1045   000023                     	ds	1
  1046   000024                     I2C1_Read1ByteRegister@address:
  1047                           	callstack 0
  1048   000024                     I2C1_Write1ByteRegister@data:
  1049                           	callstack 0
  1050                           
  1051                           ; 1 bytes @ 0x23
  1052   000024                     	ds	1
  1053   000025                     ??___xxtofl:
  1054   000025                     I2C1_Read1ByteRegister@returnValue:
  1055                           	callstack 0
  1056   000025                     I2C1_Write1ByteRegister@address:
  1057                           	callstack 0
  1058   000025                     atoi@neg:
  1059                           	callstack 0
  1060   000025                     fputs@s:
  1061                           	callstack 0
  1062                           
  1063                           ; 2 bytes @ 0x24
  1064   000025                     	ds	1
  1065   000026                     ??___fldiv:
  1066   000026                     ?_hallRead:
  1067                           	callstack 0
  1068   000026                     motorController@speed:
  1069                           	callstack 0
  1070   000026                     motorFaultRead@motor_num:
  1071                           	callstack 0
  1072                           
  1073                           ; 2 bytes @ 0x25
  1074   000026                     	ds	1
  1075   000027                     motorController@dir:
  1076                           	callstack 0
  1077   000027                     atoi@n:
  1078                           	callstack 0
  1079   000027                     fputs@fp:
  1080                           	callstack 0
  1081                           
  1082                           ; 2 bytes @ 0x26
  1083   000027                     	ds	1
  1084   000028                     ??_hallRead:
  1085   000028                     ??_motorFaultRead:
  1086   000028                     motorController@address:
  1087                           	callstack 0
  1088                           
  1089                           ; 1 bytes @ 0x27
  1090   000028                     	ds	1
  1091   000029                     motorController@data:
  1092                           	callstack 0
  1093   000029                     fputs@c:
  1094                           	callstack 0
  1095                           
  1096                           ; 1 bytes @ 0x28
  1097   000029                     	ds	1
  1098   00002A                     ??_motorDeploy:
  1099   00002A                     ??_motorStow:
  1100   00002A                     ___aomod@counter:
  1101                           	callstack 0
  1102   00002A                     ___lomod@counter:
  1103                           	callstack 0
  1104   00002A                     fputs@i:
  1105                           	callstack 0
  1106                           
  1107                           ; 2 bytes @ 0x29
  1108   00002A                     	ds	1
  1109   00002B                     ___aomod@sign:
  1110                           	callstack 0
  1111                           
  1112                           ; 1 bytes @ 0x2A
  1113   00002B                     	ds	1
  1114   00002C                     ??_hallRecord:
  1115   00002C                     ??_pad:
  1116                           
  1117                           ; 1 bytes @ 0x2B
  1118   00002C                     	ds	1
  1119   00002D                     
  1120                           ; 1 bytes @ 0x2C
  1121 ;;
  1122 ;;Main: autosize = 0, tempsize = 1, incstack = 0, save=0
  1123 ;;
  1124 ;; *************** function _main *****************
  1125 ;; Defined at:
  1126 ;;		line 58 in file "main.c"
  1127 ;; Parameters:    Size  Location     Type
  1128 ;;		None
  1129 ;; Auto vars:     Size  Location     Type
  1130 ;;  wind_speed      4    7[BANK1 ] PTR unsigned char 
  1131 ;;  threshCount     2   11[BANK1 ] int 
  1132 ;;  readCount       2    2[BANK1 ] int 
  1133 ;;  hall_raw        2    0[BANK1 ] unsigned short 
  1134 ;;  motor2_fault    1    6[BANK1 ] unsigned char 
  1135 ;;  motor1_fault    1    5[BANK1 ] unsigned char 
  1136 ;;  temp_data       1    4[BANK1 ] unsigned char 
  1137 ;; Return value:  Size  Location     Type
  1138 ;;                  1    wreg      void 
  1139 ;; Registers used:
  1140 ;;		wreg, fsr1l, fsr1h, fsr2l, fsr2h, status,2, status,0, tblptrl, tblptrh, tblptru, prodl, prodh, cstack
  1141 ;; Tracked objects:
  1142 ;;		On entry : 0/0
  1143 ;;		On exit  : 0/0
  1144 ;;		Unchanged: 0/0
  1145 ;; Data sizes:     COMRAM   BANK0   BANK1   BANK2   BANK3   BANK4   BANK5   BANK6   BANK7   BANK8   BANK9  BANK10  BANK1
      +1  BANK12  BANK13  BANK14
  1146 ;;      Params:         0       0       0       0       0       0       0       0       0       0       0       0       
      +0       0       0       0
  1147 ;;      Locals:         0       0      13       0       0       0       0       0       0       0       0       0       
      +0       0       0       0
  1148 ;;      Temps:          0       1       0       0       0       0       0       0       0       0       0       0       
      +0       0       0       0
  1149 ;;      Totals:         0       1      13       0       0       0       0       0       0       0       0       0       
      +0       0       0       0
  1150 ;;Total ram usage:       14 bytes
  1151 ;; Hardware stack levels required when called: 16
  1152 ;; This function calls:
  1153 ;;		_EUSART1_is_tx_ready
  1154 ;;		_IOCAF0_SetInterruptHandler
  1155 ;;		_SYSTEM_Initialize
  1156 ;;		_TMR2_SetInterruptHandler
  1157 ;;		___flge
  1158 ;;		_hallRead
  1159 ;;		_motorFaultRead
  1160 ;;		_motorTrigger
  1161 ;;		_printf
  1162 ;;		_system_init
  1163 ;;		_tempRead
  1164 ;;		_windSpeedCalc
  1165 ;; This function is called by:
  1166 ;;		Startup code after reset
  1167 ;; This function uses a non-reentrant model
  1168 ;;
  1169                           
  1170                           	psect	text0
  1171   001DFA                     __ptext0:
  1172                           	callstack 0
  1173   001DFA                     _main:
  1174                           	callstack 15
  1175   001DFA                     
  1176                           ;main.c: 61:     SYSTEM_Initialize();
  1177   001DFA  ECB5  F01C         	call	_SYSTEM_Initialize	;wreg free
  1178   001DFE                     
  1179                           ;main.c: 62:     system_init();
  1180   001DFE  EC3B  F01D         	call	_system_init	;wreg free
  1181   001E02                     
  1182                           ;main.c: 64:     (INTCONbits.GIE = 1);
  1183   001E02  8EF2               	bsf	242,7,c	;volatile
  1184   001E04                     
  1185                           ;main.c: 65:     (INTCONbits.PEIE = 1);
  1186   001E04  8CF2               	bsf	242,6,c	;volatile
  1187   001E06                     
  1188                           ;main.c: 67:     TMR2_SetInterruptHandler(timer_callback);
  1189   001E06  0E6C               	movlw	low _timer_callback
  1190   001E08  6E1A               	movwf	TMR2_SetInterruptHandler@InterruptHandler^0,c
  1191   001E0A  0E36               	movlw	high _timer_callback
  1192   001E0C  6E1B               	movwf	(TMR2_SetInterruptHandler@InterruptHandler+1)^0,c
  1193   001E0E  EC76  F01D         	call	_TMR2_SetInterruptHandler	;wreg free
  1194   001E12                     
  1195                           ;main.c: 68:     IOCAF0_SetInterruptHandler(motorTrigger);
  1196   001E12  0E9A               	movlw	low _motorTrigger
  1197   001E14  6E1A               	movwf	IOCAF0_SetInterruptHandler@InterruptHandler^0,c
  1198   001E16  0E38               	movlw	high _motorTrigger
  1199   001E18  6E1B               	movwf	(IOCAF0_SetInterruptHandler@InterruptHandler+1)^0,c
  1200   001E1A  EC7B  F01D         	call	_IOCAF0_SetInterruptHandler	;wreg free
  1201   001E1E                     
  1202                           ;main.c: 70:     uint8_t temp_data;;main.c: 71:     uint16_t hall_raw;;main.c: 72:     d
      +                          ouble wind_speed;;main.c: 73:     int readCount = 0;
  1203   001E1E  0E00               	movlw	0
  1204   001E20  0101               	movlb	1	; () banked
  1205   001E22  6F03               	movwf	(main@readCount+1)& (0+255),b
  1206   001E24  0E00               	movlw	0
  1207   001E26  6F02               	movwf	main@readCount& (0+255),b
  1208   001E28                     
  1209                           ; BSR set to: 1
  1210                           ;main.c: 75:     int threshCount = 0;
  1211   001E28  0E00               	movlw	0
  1212   001E2A  6F0C               	movwf	(main@threshCount+1)& (0+255),b
  1213   001E2C  0E00               	movlw	0
  1214   001E2E  6F0B               	movwf	main@threshCount& (0+255),b
  1215   001E30                     l6806:
  1216                           
  1217                           ;main.c: 83:         temp_data = tempRead();
  1218   001E30  EC54  F01D         	call	_tempRead	;wreg free
  1219   001E34  0101               	movlb	1	; () banked
  1220   001E36  6F04               	movwf	main@temp_data& (0+255),b
  1221   001E38                     
  1222                           ; BSR set to: 1
  1223                           ;main.c: 84:         hall_raw = hallRead();
  1224   001E38  ECFC  F01B         	call	_hallRead	;wreg free
  1225   001E3C  C026  F100         	movff	?_hallRead,main@hall_raw
  1226   001E40  C027  F101         	movff	?_hallRead+1,main@hall_raw+1
  1227   001E44                     
  1228                           ;main.c: 85:         wind_speed = windSpeedCalc();
  1229   001E44  ECF9  F013         	call	_windSpeedCalc	;wreg free
  1230   001E48  C082  F107         	movff	?_windSpeedCalc,main@wind_speed
  1231   001E4C  C083  F108         	movff	?_windSpeedCalc+1,main@wind_speed+1
  1232   001E50  C084  F109         	movff	?_windSpeedCalc+2,main@wind_speed+2
  1233   001E54  C085  F10A         	movff	?_windSpeedCalc+3,main@wind_speed+3
  1234   001E58                     
  1235                           ;main.c: 87:         if (PORTAbits.RA1==0)
  1236   001E58  B28D               	btfsc	141,1,c	;volatile
  1237   001E5A  EF31  F00F         	goto	u5641
  1238   001E5E  EF33  F00F         	goto	u5640
  1239   001E62                     u5641:
  1240   001E62  EF3B  F00F         	goto	l6816
  1241   001E66                     u5640:
  1242   001E66                     
  1243                           ;main.c: 88:             motor1_fault = motorFaultRead(1);
  1244   001E66  0E00               	movlw	0
  1245   001E68  6E27               	movwf	(motorFaultRead@motor_num+1)^0,c
  1246   001E6A  0E01               	movlw	1
  1247   001E6C  6E26               	movwf	motorFaultRead@motor_num^0,c
  1248   001E6E  EC2F  F01A         	call	_motorFaultRead	;wreg free
  1249   001E72  0101               	movlb	1	; () banked
  1250   001E74  6F05               	movwf	main@motor1_fault& (0+255),b
  1251   001E76                     l6816:
  1252                           
  1253                           ;main.c: 89:         if (PORTAbits.RA2==0)
  1254   001E76  B48D               	btfsc	141,2,c	;volatile
  1255   001E78  EF40  F00F         	goto	u5651
  1256   001E7C  EF42  F00F         	goto	u5650
  1257   001E80                     u5651:
  1258   001E80  EF4A  F00F         	goto	l6820
  1259   001E84                     u5650:
  1260   001E84                     
  1261                           ;main.c: 90:             motor2_fault = motorFaultRead(2);
  1262   001E84  0E00               	movlw	0
  1263   001E86  6E27               	movwf	(motorFaultRead@motor_num+1)^0,c
  1264   001E88  0E02               	movlw	2
  1265   001E8A  6E26               	movwf	motorFaultRead@motor_num^0,c
  1266   001E8C  EC2F  F01A         	call	_motorFaultRead	;wreg free
  1267   001E90  0101               	movlb	1	; () banked
  1268   001E92  6F06               	movwf	main@motor2_fault& (0+255),b
  1269   001E94                     l6820:
  1270                           
  1271                           ;main.c: 92:         if(wind_speed>10 && threshCount<5)
  1272   001E94  0E00               	movlw	0
  1273   001E96  6E1A               	movwf	___flge@ff1^0,c
  1274   001E98  0E00               	movlw	0
  1275   001E9A  6E1B               	movwf	(___flge@ff1+1)^0,c
  1276   001E9C  0E20               	movlw	32
  1277   001E9E  6E1C               	movwf	(___flge@ff1+2)^0,c
  1278   001EA0  0E41               	movlw	65
  1279   001EA2  6E1D               	movwf	(___flge@ff1+3)^0,c
  1280   001EA4  C107  F01E         	movff	main@wind_speed,___flge@ff2
  1281   001EA8  C108  F01F         	movff	main@wind_speed+1,___flge@ff2+1
  1282   001EAC  C109  F020         	movff	main@wind_speed+2,___flge@ff2+2
  1283   001EB0  C10A  F021         	movff	main@wind_speed+3,___flge@ff2+3
  1284   001EB4  EC84  F014         	call	___flge	;wreg free
  1285   001EB8  B0D8               	btfsc	status,0,c
  1286   001EBA  EF61  F00F         	goto	u5661
  1287   001EBE  EF63  F00F         	goto	u5660
  1288   001EC2                     u5661:
  1289   001EC2  EF76  F00F         	goto	l6826
  1290   001EC6                     u5660:
  1291   001EC6  0101               	movlb	1	; () banked
  1292   001EC8  BF0C               	btfsc	(main@threshCount+1)& (0+255),7,b
  1293   001ECA  EF72  F00F         	goto	u5670
  1294   001ECE  510C               	movf	(main@threshCount+1)& (0+255),w,b
  1295   001ED0  E107               	bnz	u5671
  1296   001ED2  0E05               	movlw	5
  1297   001ED4  5D0B               	subwf	main@threshCount& (0+255),w,b
  1298   001ED6  B0D8               	btfsc	status,0,c
  1299   001ED8  EF70  F00F         	goto	u5671
  1300   001EDC  EF72  F00F         	goto	u5670
  1301   001EE0                     u5671:
  1302   001EE0  EF76  F00F         	goto	l6826
  1303   001EE4                     u5670:
  1304   001EE4                     
  1305                           ; BSR set to: 1
  1306                           ;main.c: 93:             threshCount++;
  1307   001EE4  4B0B               	infsnz	main@threshCount& (0+255),f,b
  1308   001EE6  2B0C               	incf	(main@threshCount+1)& (0+255),f,b
  1309   001EE8  EFA5  F00F         	goto	l6836
  1310   001EEC                     l6826:
  1311   001EEC  0E00               	movlw	0
  1312   001EEE  6E1A               	movwf	___flge@ff1^0,c
  1313   001EF0  0E00               	movlw	0
  1314   001EF2  6E1B               	movwf	(___flge@ff1+1)^0,c
  1315   001EF4  0E20               	movlw	32
  1316   001EF6  6E1C               	movwf	(___flge@ff1+2)^0,c
  1317   001EF8  0E41               	movlw	65
  1318   001EFA  6E1D               	movwf	(___flge@ff1+3)^0,c
  1319   001EFC  C107  F01E         	movff	main@wind_speed,___flge@ff2
  1320   001F00  C108  F01F         	movff	main@wind_speed+1,___flge@ff2+1
  1321   001F04  C109  F020         	movff	main@wind_speed+2,___flge@ff2+2
  1322   001F08  C10A  F021         	movff	main@wind_speed+3,___flge@ff2+3
  1323   001F0C  EC84  F014         	call	___flge	;wreg free
  1324   001F10  B0D8               	btfsc	status,0,c
  1325   001F12  EF8D  F00F         	goto	u5681
  1326   001F16  EF8F  F00F         	goto	u5680
  1327   001F1A                     u5681:
  1328   001F1A  EFA0  F00F         	goto	l6832
  1329   001F1E                     u5680:
  1330   001F1E  0101               	movlb	1	; () banked
  1331   001F20  BF0C               	btfsc	(main@threshCount+1)& (0+255),7,b
  1332   001F22  EF9C  F00F         	goto	u5691
  1333   001F26  510C               	movf	(main@threshCount+1)& (0+255),w,b
  1334   001F28  E109               	bnz	u5690
  1335   001F2A  0E05               	movlw	5
  1336   001F2C  5D0B               	subwf	main@threshCount& (0+255),w,b
  1337   001F2E  A0D8               	btfss	status,0,c
  1338   001F30  EF9C  F00F         	goto	u5691
  1339   001F34  EF9E  F00F         	goto	u5690
  1340   001F38                     u5691:
  1341   001F38  EFA0  F00F         	goto	l6832
  1342   001F3C                     u5690:
  1343   001F3C                     
  1344                           ; BSR set to: 1
  1345                           ;main.c: 95:             motorTrigger();
  1346   001F3C  EC4D  F01C         	call	_motorTrigger	;wreg free
  1347   001F40                     l6832:
  1348                           
  1349                           ;main.c: 96:             threshCount = 0;
  1350   001F40  0E00               	movlw	0
  1351   001F42  0101               	movlb	1	; () banked
  1352   001F44  6F0C               	movwf	(main@threshCount+1)& (0+255),b
  1353   001F46  0E00               	movlw	0
  1354   001F48  6F0B               	movwf	main@threshCount& (0+255),b
  1355   001F4A                     l6836:
  1356                           
  1357                           ; BSR set to: 1
  1358                           ;main.c: 102:         if(EUSART1_is_tx_ready()){
  1359   001F4A  EC11  F01C         	call	_EUSART1_is_tx_ready	;wreg free
  1360   001F4E  0900               	iorlw	0
  1361   001F50  B4D8               	btfsc	status,2,c
  1362   001F52  EFAD  F00F         	goto	u5701
  1363   001F56  EFAF  F00F         	goto	u5700
  1364   001F5A                     u5701:
  1365   001F5A  EF18  F00F         	goto	l6806
  1366   001F5E                     u5700:
  1367   001F5E                     
  1368                           ;main.c: 103:             printf("Reading%i(t=%.6u): \n\r", ++readCount, timer_ms);
  1369   001F5E  0E54               	movlw	low STR_1
  1370   001F60  0100               	movlb	0	; () banked
  1371   001F62  6FA9               	movwf	printf@fmt& (0+255),b
  1372   001F64  0E0F               	movlw	high STR_1
  1373   001F66  6FAA               	movwf	(printf@fmt+1)& (0+255),b
  1374   001F68  0101               	movlb	1	; () banked
  1375   001F6A  4B02               	infsnz	main@readCount& (0+255),f,b
  1376   001F6C  2B03               	incf	(main@readCount+1)& (0+255),f,b
  1377   001F6E  C102  F0AB         	movff	main@readCount,?_printf+2
  1378   001F72  C103  F0AC         	movff	main@readCount+1,?_printf+3
  1379   001F76  C0D6  F0AD         	movff	_timer_ms,?_printf+4
  1380   001F7A  C0D7  F0AE         	movff	_timer_ms+1,?_printf+5
  1381   001F7E  EC26  F01C         	call	_printf	;wreg free
  1382                           
  1383                           ;main.c: 104:                     printf("\tTemp=%uC \n\r", temp_data);
  1384   001F82  0E7F               	movlw	low STR_2
  1385   001F84  0100               	movlb	0	; () banked
  1386   001F86  6FA9               	movwf	printf@fmt& (0+255),b
  1387   001F88  0E0F               	movlw	high STR_2
  1388   001F8A  6FAA               	movwf	(printf@fmt+1)& (0+255),b
  1389   001F8C  C104  F0AB         	movff	main@temp_data,?_printf+2
  1390   001F90  6BAC               	clrf	(?_printf+3)& (0+255),b
  1391   001F92  EC26  F01C         	call	_printf	;wreg free
  1392                           
  1393                           ;main.c: 105:                     printf("\tHall=%u \n\r", hall_raw);
  1394   001F96  0E8C               	movlw	low STR_3
  1395   001F98  0100               	movlb	0	; () banked
  1396   001F9A  6FA9               	movwf	printf@fmt& (0+255),b
  1397   001F9C  0E0F               	movlw	high STR_3
  1398   001F9E  6FAA               	movwf	(printf@fmt+1)& (0+255),b
  1399   001FA0  C100  F0AB         	movff	main@hall_raw,?_printf+2
  1400   001FA4  C101  F0AC         	movff	main@hall_raw+1,?_printf+3
  1401   001FA8  EC26  F01C         	call	_printf	;wreg free
  1402                           
  1403                           ;main.c: 106:                     printf("\tWind Speed=%5.5d \n\r", wind_speed);
  1404   001FAC  0E6A               	movlw	low STR_4
  1405   001FAE  0100               	movlb	0	; () banked
  1406   001FB0  6FA9               	movwf	printf@fmt& (0+255),b
  1407   001FB2  0E0F               	movlw	high STR_4
  1408   001FB4  6FAA               	movwf	(printf@fmt+1)& (0+255),b
  1409   001FB6  C107  F0AB         	movff	main@wind_speed,?_printf+2
  1410   001FBA  C108  F0AC         	movff	main@wind_speed+1,?_printf+3
  1411   001FBE  C109  F0AD         	movff	main@wind_speed+2,?_printf+4
  1412   001FC2  C10A  F0AE         	movff	main@wind_speed+3,?_printf+5
  1413   001FC6  EC26  F01C         	call	_printf	;wreg free
  1414                           
  1415                           ;main.c: 107:                     printf("\tMotor 1 Fault Code=%u \n\r", motor1_fault);
  1416   001FCA  0E21               	movlw	low STR_5
  1417   001FCC  0100               	movlb	0	; () banked
  1418   001FCE  6FA9               	movwf	printf@fmt& (0+255),b
  1419   001FD0  0E0F               	movlw	high STR_5
  1420   001FD2  6FAA               	movwf	(printf@fmt+1)& (0+255),b
  1421   001FD4  C105  F0AB         	movff	main@motor1_fault,?_printf+2
  1422   001FD8  6BAC               	clrf	(?_printf+3)& (0+255),b
  1423   001FDA  EC26  F01C         	call	_printf	;wreg free
  1424                           
  1425                           ;main.c: 108:                     printf("\tMotor 2 Fault Code=%u\n\r", motor2_fault);
  1426   001FDE  0E3B               	movlw	low STR_6
  1427   001FE0  0100               	movlb	0	; () banked
  1428   001FE2  6FA9               	movwf	printf@fmt& (0+255),b
  1429   001FE4  0E0F               	movlw	high STR_6
  1430   001FE6  6FAA               	movwf	(printf@fmt+1)& (0+255),b
  1431   001FE8  C106  F0AB         	movff	main@motor2_fault,?_printf+2
  1432   001FEC  6BAC               	clrf	(?_printf+3)& (0+255),b
  1433   001FEE  EC26  F01C         	call	_printf	;wreg free
  1434   001FF2  BA84               	btfsc	132,5,c	;volatile
  1435   001FF4  EFFE  F00F         	goto	u5711
  1436   001FF8  EF01  F010         	goto	u5710
  1437   001FFC                     u5711:
  1438   001FFC  0E01               	movlw	1
  1439   001FFE  EF02  F010         	goto	u5716
  1440   002002                     u5710:
  1441   002002  0E00               	movlw	0
  1442   002004                     u5716:
  1443   002004  0AFF               	xorlw	255
  1444   002006  0100               	movlb	0	; () banked
  1445   002008  6FB1               	movwf	??_main& (0+255),b
  1446   00200A  3BB1               	swapf	??_main& (0+255),f,b
  1447   00200C  47B1               	rlncf	??_main& (0+255),f,b
  1448   00200E  5084               	movf	132,w,c	;volatile
  1449   002010  19B1               	xorwf	??_main& (0+255),w,b
  1450   002012  0BDF               	andlw	-33
  1451   002014  19B1               	xorwf	??_main& (0+255),w,b
  1452   002016  6E84               	movwf	132,c	;volatile
  1453   002018                     
  1454                           ; BSR set to: 0
  1455                           ;main.c: 110:             _delay((unsigned long)((10)*(16000000/4000.0)));
  1456   002018  0E34               	movlw	52
  1457   00201A  0100               	movlb	0	; () banked
  1458   00201C  6FB1               	movwf	??_main& (0+255),b
  1459   00201E  0EF1               	movlw	241
  1460   002020                     u5727:
  1461   002020  2EE8               	decfsz	wreg,f,c
  1462   002022  D7FE               	bra	u5727
  1463   002024  2FB1               	decfsz	??_main& (0+255),f,b
  1464   002026  D7FC               	bra	u5727
  1465   002028  D000               	nop2	
  1466   00202A  EF18  F00F         	goto	l6806
  1467   00202E  EF75  F000         	goto	start
  1468   002032                     __end_of_main:
  1469                           	callstack 0
  1470                           
  1471 ;; *************** function _windSpeedCalc *****************
  1472 ;; Defined at:
  1473 ;;		line 20 in file "hall_effect.c"
  1474 ;; Parameters:    Size  Location     Type
  1475 ;;		None
  1476 ;; Auto vars:     Size  Location     Type
  1477 ;;  linearVel       4   42[BANK0 ] void 
  1478 ;;  dw_dt           4   38[BANK0 ] void 
  1479 ;; Return value:  Size  Location     Type
  1480 ;;                  4   34[BANK0 ] void 
  1481 ;; Registers used:
  1482 ;;		wreg, fsr2l, fsr2h, status,2, status,0, prodl, prodh, cstack
  1483 ;; Tracked objects:
  1484 ;;		On entry : 0/0
  1485 ;;		On exit  : 0/0
  1486 ;;		Unchanged: 0/0
  1487 ;; Data sizes:     COMRAM   BANK0   BANK1   BANK2   BANK3   BANK4   BANK5   BANK6   BANK7   BANK8   BANK9  BANK10  BANK1
      +1  BANK12  BANK13  BANK14
  1488 ;;      Params:         0       4       0       0       0       0       0       0       0       0       0       0       
      +0       0       0       0
  1489 ;;      Locals:         0      16       0       0       0       0       0       0       0       0       0       0       
      +0       0       0       0
  1490 ;;      Temps:          0       0       0       0       0       0       0       0       0       0       0       0       
      +0       0       0       0
  1491 ;;      Totals:         0      20       0       0       0       0       0       0       0       0       0       0       
      +0       0       0       0
  1492 ;;Total ram usage:       20 bytes
  1493 ;; Hardware stack levels used: 1
  1494 ;; Hardware stack levels required when called: 13
  1495 ;; This function calls:
  1496 ;;		___fldiv
  1497 ;;		___flmul
  1498 ;;		___lwdiv
  1499 ;;		___xxtofl
  1500 ;;		_hallRecord
  1501 ;; This function is called by:
  1502 ;;		_main
  1503 ;; This function uses a non-reentrant model
  1504 ;;
  1505                           
  1506                           	psect	text1
  1507   0027F2                     __ptext1:
  1508                           	callstack 0
  1509   0027F2                     _windSpeedCalc:
  1510                           	callstack 17
  1511   0027F2                     
  1512                           ;hall_effect.c: 21:    hallRecord();
  1513   0027F2  ECE7  F01B         	call	_hallRecord	;wreg free
  1514   0027F6                     
  1515                           ;hall_effect.c: 22:    double dw_dt = (hall_pos[1] - hall_pos[0]) / (hall_time[1] - hall
      +                          _time[0]);
  1516   0027F6  502D               	movf	_hall_time^0,w,c
  1517   0027F8  5C2F               	subwf	(_hall_time+2)^0,w,c
  1518   0027FA  6E1C               	movwf	___lwdiv@divisor^0,c
  1519   0027FC  502E               	movf	(_hall_time+1)^0,w,c
  1520   0027FE  5830               	subwfb	(_hall_time+3)^0,w,c
  1521   002800  6E1D               	movwf	(___lwdiv@divisor+1)^0,c
  1522   002802  5031               	movf	_hall_pos^0,w,c
  1523   002804  5C33               	subwf	(_hall_pos+2)^0,w,c
  1524   002806  6E1A               	movwf	___lwdiv@dividend^0,c
  1525   002808  5032               	movf	(_hall_pos+1)^0,w,c
  1526   00280A  5834               	subwfb	(_hall_pos+3)^0,w,c
  1527   00280C  6E1B               	movwf	(___lwdiv@dividend+1)^0,c
  1528   00280E  EC85  F018         	call	___lwdiv	;wreg free
  1529   002812  C01A  F021         	movff	?___lwdiv,___xxtofl@val
  1530   002816  C01B  F022         	movff	?___lwdiv+1,___xxtofl@val+1
  1531   00281A  6A23               	clrf	(___xxtofl@val+2)^0,c
  1532   00281C  6A24               	clrf	(___xxtofl@val+3)^0,c
  1533   00281E  0E00               	movlw	0
  1534   002820  ECFC  F010         	call	___xxtofl
  1535   002824  C021  F086         	movff	?___xxtofl,windSpeedCalc@dw_dt
  1536   002828  C022  F087         	movff	?___xxtofl+1,windSpeedCalc@dw_dt+1
  1537   00282C  C023  F088         	movff	?___xxtofl+2,windSpeedCalc@dw_dt+2
  1538   002830  C024  F089         	movff	?___xxtofl+3,windSpeedCalc@dw_dt+3
  1539   002834                     
  1540                           ;hall_effect.c: 23:    double linearVel = (dw_dt * 2.0 * 3.14159265358979323846 * 0.015)
      +                           / 4096 ;
  1541   002834  0E00               	movlw	0
  1542   002836  6E1E               	movwf	___flmul@a^0,c
  1543   002838  0E00               	movlw	0
  1544   00283A  6E1F               	movwf	(___flmul@a+1)^0,c
  1545   00283C  0E00               	movlw	0
  1546   00283E  6E20               	movwf	(___flmul@a+2)^0,c
  1547   002840  0E40               	movlw	64
  1548   002842  6E21               	movwf	(___flmul@a+3)^0,c
  1549   002844  C086  F01A         	movff	windSpeedCalc@dw_dt,___flmul@b
  1550   002848  C087  F01B         	movff	windSpeedCalc@dw_dt+1,___flmul@b+1
  1551   00284C  C088  F01C         	movff	windSpeedCalc@dw_dt+2,___flmul@b+2
  1552   002850  C089  F01D         	movff	windSpeedCalc@dw_dt+3,___flmul@b+3
  1553   002854  ECCD  F007         	call	___flmul	;wreg free
  1554   002858  C01A  F08E         	movff	?___flmul,_windSpeedCalc$3106
  1555   00285C  C01B  F08F         	movff	?___flmul+1,_windSpeedCalc$3106+1
  1556   002860  C01C  F090         	movff	?___flmul+2,_windSpeedCalc$3106+2
  1557   002864  C01D  F091         	movff	?___flmul+3,_windSpeedCalc$3106+3
  1558   002868                     
  1559                           ;hall_effect.c: 23:    double linearVel = (dw_dt * 2.0 * 3.14159265358979323846 * 0.015)
      +                           / 4096 ;
  1560   002868  0EDB               	movlw	219
  1561   00286A  6E1E               	movwf	___flmul@a^0,c
  1562   00286C  0E0F               	movlw	15
  1563   00286E  6E1F               	movwf	(___flmul@a+1)^0,c
  1564   002870  0E49               	movlw	73
  1565   002872  6E20               	movwf	(___flmul@a+2)^0,c
  1566   002874  0E40               	movlw	64
  1567   002876  6E21               	movwf	(___flmul@a+3)^0,c
  1568   002878  C08E  F01A         	movff	_windSpeedCalc$3106,___flmul@b
  1569   00287C  C08F  F01B         	movff	_windSpeedCalc$3106+1,___flmul@b+1
  1570   002880  C090  F01C         	movff	_windSpeedCalc$3106+2,___flmul@b+2
  1571   002884  C091  F01D         	movff	_windSpeedCalc$3106+3,___flmul@b+3
  1572   002888  ECCD  F007         	call	___flmul	;wreg free
  1573   00288C  C01A  F092         	movff	?___flmul,_windSpeedCalc$3107
  1574   002890  C01B  F093         	movff	?___flmul+1,_windSpeedCalc$3107+1
  1575   002894  C01C  F094         	movff	?___flmul+2,_windSpeedCalc$3107+2
  1576   002898  C01D  F095         	movff	?___flmul+3,_windSpeedCalc$3107+3
  1577   00289C                     
  1578                           ;hall_effect.c: 23:    double linearVel = (dw_dt * 2.0 * 3.14159265358979323846 * 0.015)
      +                           / 4096 ;
  1579   00289C  0E8F               	movlw	143
  1580   00289E  6E1E               	movwf	___flmul@a^0,c
  1581   0028A0  0EC2               	movlw	194
  1582   0028A2  6E1F               	movwf	(___flmul@a+1)^0,c
  1583   0028A4  0E75               	movlw	117
  1584   0028A6  6E20               	movwf	(___flmul@a+2)^0,c
  1585   0028A8  0E3C               	movlw	60
  1586   0028AA  6E21               	movwf	(___flmul@a+3)^0,c
  1587   0028AC  C092  F01A         	movff	_windSpeedCalc$3107,___flmul@b
  1588   0028B0  C093  F01B         	movff	_windSpeedCalc$3107+1,___flmul@b+1
  1589   0028B4  C094  F01C         	movff	_windSpeedCalc$3107+2,___flmul@b+2
  1590   0028B8  C095  F01D         	movff	_windSpeedCalc$3107+3,___flmul@b+3
  1591   0028BC  ECCD  F007         	call	___flmul	;wreg free
  1592   0028C0  C01A  F06D         	movff	?___flmul,___fldiv@b
  1593   0028C4  C01B  F06E         	movff	?___flmul+1,___fldiv@b+1
  1594   0028C8  C01C  F06F         	movff	?___flmul+2,___fldiv@b+2
  1595   0028CC  C01D  F070         	movff	?___flmul+3,___fldiv@b+3
  1596   0028D0  0E00               	movlw	0
  1597   0028D2  0100               	movlb	0	; () banked
  1598   0028D4  6F71               	movwf	___fldiv@a& (0+255),b
  1599   0028D6  0E00               	movlw	0
  1600   0028D8  6F72               	movwf	(___fldiv@a+1)& (0+255),b
  1601   0028DA  0E80               	movlw	128
  1602   0028DC  6F73               	movwf	(___fldiv@a+2)& (0+255),b
  1603   0028DE  0E45               	movlw	69
  1604   0028E0  6F74               	movwf	(___fldiv@a+3)& (0+255),b
  1605   0028E2  ECEF  F00B         	call	___fldiv	;wreg free
  1606   0028E6  C06D  F08A         	movff	?___fldiv,windSpeedCalc@linearVel
  1607   0028EA  C06E  F08B         	movff	?___fldiv+1,windSpeedCalc@linearVel+1
  1608   0028EE  C06F  F08C         	movff	?___fldiv+2,windSpeedCalc@linearVel+2
  1609   0028F2  C070  F08D         	movff	?___fldiv+3,windSpeedCalc@linearVel+3
  1610   0028F6                     
  1611                           ;hall_effect.c: 24:    return linearVel;
  1612   0028F6  C08A  F082         	movff	windSpeedCalc@linearVel,?_windSpeedCalc
  1613   0028FA  C08B  F083         	movff	windSpeedCalc@linearVel+1,?_windSpeedCalc+1
  1614   0028FE  C08C  F084         	movff	windSpeedCalc@linearVel+2,?_windSpeedCalc+2
  1615   002902  C08D  F085         	movff	windSpeedCalc@linearVel+3,?_windSpeedCalc+3
  1616   002906  0012               	return		;funcret
  1617   002908                     __end_of_windSpeedCalc:
  1618                           	callstack 0
  1619                           
  1620 ;; *************** function _hallRecord *****************
  1621 ;; Defined at:
  1622 ;;		line 12 in file "hall_effect.c"
  1623 ;; Parameters:    Size  Location     Type
  1624 ;;		None
  1625 ;; Auto vars:     Size  Location     Type
  1626 ;;		None
  1627 ;; Return value:  Size  Location     Type
  1628 ;;                  1    wreg      void 
  1629 ;; Registers used:
  1630 ;;		wreg, fsr2l, fsr2h, status,2, status,0, prodl, prodh, cstack
  1631 ;; Tracked objects:
  1632 ;;		On entry : 0/0
  1633 ;;		On exit  : 0/0
  1634 ;;		Unchanged: 0/0
  1635 ;; Data sizes:     COMRAM   BANK0   BANK1   BANK2   BANK3   BANK4   BANK5   BANK6   BANK7   BANK8   BANK9  BANK10  BANK1
      +1  BANK12  BANK13  BANK14
  1636 ;;      Params:         0       0       0       0       0       0       0       0       0       0       0       0       
      +0       0       0       0
  1637 ;;      Locals:         0       0       0       0       0       0       0       0       0       0       0       0       
      +0       0       0       0
  1638 ;;      Temps:          1       0       0       0       0       0       0       0       0       0       0       0       
      +0       0       0       0
  1639 ;;      Totals:         1       0       0       0       0       0       0       0       0       0       0       0       
      +0       0       0       0
  1640 ;;Total ram usage:        1 bytes
  1641 ;; Hardware stack levels used: 1
  1642 ;; Hardware stack levels required when called: 12
  1643 ;; This function calls:
  1644 ;;		_TMR2_ReadTimer
  1645 ;;		_hallRead
  1646 ;; This function is called by:
  1647 ;;		_windSpeedCalc
  1648 ;; This function uses a non-reentrant model
  1649 ;;
  1650                           
  1651                           	psect	text2
  1652   0037CE                     __ptext2:
  1653                           	callstack 0
  1654   0037CE                     _hallRecord:
  1655                           	callstack 17
  1656   0037CE                     
  1657                           ;hall_effect.c: 13:     hall_pos[0] = hall_pos[1];
  1658   0037CE  C033  F031         	movff	_hall_pos+2,_hall_pos
  1659   0037D2  C034  F032         	movff	_hall_pos+3,_hall_pos+1
  1660                           
  1661                           ;hall_effect.c: 14:     hall_time[0] = hall_time[1];
  1662   0037D6  C02F  F02D         	movff	_hall_time+2,_hall_time
  1663   0037DA  C030  F02E         	movff	_hall_time+3,_hall_time+1
  1664   0037DE                     
  1665                           ;hall_effect.c: 16:     hall_pos[1] = hallRead();
  1666   0037DE  ECFC  F01B         	call	_hallRead	;wreg free
  1667   0037E2  C026  F033         	movff	?_hallRead,_hall_pos+2
  1668   0037E6  C027  F034         	movff	?_hallRead+1,_hall_pos+3
  1669   0037EA                     
  1670                           ;hall_effect.c: 17:     hall_time[1] = TMR2_ReadTimer();
  1671   0037EA  ECB7  F01D         	call	_TMR2_ReadTimer	;wreg free
  1672   0037EE  6E2C               	movwf	??_hallRecord^0,c
  1673   0037F0  502C               	movf	??_hallRecord^0,w,c
  1674   0037F2  6E2F               	movwf	(_hall_time+2)^0,c
  1675   0037F4  6A30               	clrf	(_hall_time+3)^0,c
  1676   0037F6  0012               	return		;funcret
  1677   0037F8                     __end_of_hallRecord:
  1678                           	callstack 0
  1679                           
  1680 ;; *************** function _TMR2_ReadTimer *****************
  1681 ;; Defined at:
  1682 ;;		line 139 in file "mcc_generated_files/tmr2.c"
  1683 ;; Parameters:    Size  Location     Type
  1684 ;;		None
  1685 ;; Auto vars:     Size  Location     Type
  1686 ;;		None
  1687 ;; Return value:  Size  Location     Type
  1688 ;;                  1    wreg      unsigned char 
  1689 ;; Registers used:
  1690 ;;		wreg, status,2, cstack
  1691 ;; Tracked objects:
  1692 ;;		On entry : 0/0
  1693 ;;		On exit  : 0/0
  1694 ;;		Unchanged: 0/0
  1695 ;; Data sizes:     COMRAM   BANK0   BANK1   BANK2   BANK3   BANK4   BANK5   BANK6   BANK7   BANK8   BANK9  BANK10  BANK1
      +1  BANK12  BANK13  BANK14
  1696 ;;      Params:         0       0       0       0       0       0       0       0       0       0       0       0       
      +0       0       0       0
  1697 ;;      Locals:         0       0       0       0       0       0       0       0       0       0       0       0       
      +0       0       0       0
  1698 ;;      Temps:          0       0       0       0       0       0       0       0       0       0       0       0       
      +0       0       0       0
  1699 ;;      Totals:         0       0       0       0       0       0       0       0       0       0       0       0       
      +0       0       0       0
  1700 ;;Total ram usage:        0 bytes
  1701 ;; Hardware stack levels used: 1
  1702 ;; Hardware stack levels required when called: 8
  1703 ;; This function calls:
  1704 ;;		_TMR2_Counter8BitGet
  1705 ;; This function is called by:
  1706 ;;		_hallRecord
  1707 ;; This function uses a non-reentrant model
  1708 ;;
  1709                           
  1710                           	psect	text3
  1711   003B6E                     __ptext3:
  1712                           	callstack 0
  1713   003B6E                     _TMR2_ReadTimer:
  1714                           	callstack 20
  1715   003B6E                     
  1716                           ;mcc_generated_files/tmr2.c: 141:     return TMR2_Counter8BitGet();
  1717   003B6E  EC8F  F01D         	call	_TMR2_Counter8BitGet	;wreg free
  1718   003B72  0012               	return		;funcret
  1719   003B74                     __end_of_TMR2_ReadTimer:
  1720                           	callstack 0
  1721                           
  1722 ;; *************** function _TMR2_Counter8BitGet *****************
  1723 ;; Defined at:
  1724 ;;		line 130 in file "mcc_generated_files/tmr2.c"
  1725 ;; Parameters:    Size  Location     Type
  1726 ;;		None
  1727 ;; Auto vars:     Size  Location     Type
  1728 ;;  readVal         1   25[COMRAM] unsigned char 
  1729 ;; Return value:  Size  Location     Type
  1730 ;;                  1    wreg      unsigned char 
  1731 ;; Registers used:
  1732 ;;		wreg, status,2
  1733 ;; Tracked objects:
  1734 ;;		On entry : 0/0
  1735 ;;		On exit  : 0/0
  1736 ;;		Unchanged: 0/0
  1737 ;; Data sizes:     COMRAM   BANK0   BANK1   BANK2   BANK3   BANK4   BANK5   BANK6   BANK7   BANK8   BANK9  BANK10  BANK1
      +1  BANK12  BANK13  BANK14
  1738 ;;      Params:         0       0       0       0       0       0       0       0       0       0       0       0       
      +0       0       0       0
  1739 ;;      Locals:         1       0       0       0       0       0       0       0       0       0       0       0       
      +0       0       0       0
  1740 ;;      Temps:          0       0       0       0       0       0       0       0       0       0       0       0       
      +0       0       0       0
  1741 ;;      Totals:         1       0       0       0       0       0       0       0       0       0       0       0       
      +0       0       0       0
  1742 ;;Total ram usage:        1 bytes
  1743 ;; Hardware stack levels used: 1
  1744 ;; Hardware stack levels required when called: 7
  1745 ;; This function calls:
  1746 ;;		Nothing
  1747 ;; This function is called by:
  1748 ;;		_TMR2_ReadTimer
  1749 ;; This function uses a non-reentrant model
  1750 ;;
  1751                           
  1752                           	psect	text4
  1753   003B1E                     __ptext4:
  1754                           	callstack 0
  1755   003B1E                     _TMR2_Counter8BitGet:
  1756                           	callstack 20
  1757   003B1E                     
  1758                           ;mcc_generated_files/tmr2.c: 132:     uint8_t readVal;;mcc_generated_files/tmr2.c: 134: 
      +                              readVal = TMR2;
  1759   003B1E  CFBB F01A          	movff	4027,TMR2_Counter8BitGet@readVal	;volatile
  1760   003B22                     
  1761                           ;mcc_generated_files/tmr2.c: 136:     return readVal;
  1762   003B22  501A               	movf	TMR2_Counter8BitGet@readVal^0,w,c
  1763   003B24  0012               	return		;funcret
  1764   003B26                     __end_of_TMR2_Counter8BitGet:
  1765                           	callstack 0
  1766                           
  1767 ;; *************** function ___xxtofl *****************
  1768 ;; Defined at:
  1769 ;;		line 10 in file "C:\Program Files\Microchip\xc8\v2.40\pic\sources\c99\common\xxtofl.c"
  1770 ;; Parameters:    Size  Location     Type
  1771 ;;  sign            1    wreg     unsigned char 
  1772 ;;  val             4   32[COMRAM] long 
  1773 ;; Auto vars:     Size  Location     Type
  1774 ;;  sign            1    0[BANK0 ] unsigned char 
  1775 ;;  arg             4    2[BANK0 ] unsigned long 
  1776 ;;  exp             1    1[BANK0 ] unsigned char 
  1777 ;; Return value:  Size  Location     Type
  1778 ;;                  4   32[COMRAM] unsigned char 
  1779 ;; Registers used:
  1780 ;;		wreg, status,2, status,0
  1781 ;; Tracked objects:
  1782 ;;		On entry : 0/0
  1783 ;;		On exit  : 0/0
  1784 ;;		Unchanged: 0/0
  1785 ;; Data sizes:     COMRAM   BANK0   BANK1   BANK2   BANK3   BANK4   BANK5   BANK6   BANK7   BANK8   BANK9  BANK10  BANK1
      +1  BANK12  BANK13  BANK14
  1786 ;;      Params:         4       0       0       0       0       0       0       0       0       0       0       0       
      +0       0       0       0
  1787 ;;      Locals:         0       6       0       0       0       0       0       0       0       0       0       0       
      +0       0       0       0
  1788 ;;      Temps:          4       0       0       0       0       0       0       0       0       0       0       0       
      +0       0       0       0
  1789 ;;      Totals:         8       6       0       0       0       0       0       0       0       0       0       0       
      +0       0       0       0
  1790 ;;Total ram usage:       14 bytes
  1791 ;; Hardware stack levels used: 1
  1792 ;; Hardware stack levels required when called: 7
  1793 ;; This function calls:
  1794 ;;		Nothing
  1795 ;; This function is called by:
  1796 ;;		_windSpeedCalc
  1797 ;;		_t_update
  1798 ;; This function uses a non-reentrant model
  1799 ;;
  1800                           
  1801                           	psect	text5
  1802   0021F8                     __ptext5:
  1803                           	callstack 0
  1804   0021F8                     ___xxtofl:
  1805                           	callstack 22
  1806                           
  1807                           ;incstack = 0
  1808                           ;___xxtofl@sign stored from wreg
  1809   0021F8  0100               	movlb	0	; () banked
  1810   0021FA  6F60               	movwf	___xxtofl@sign& (0+255),b
  1811   0021FC  0100               	movlb	0	; () banked
  1812   0021FE  5160               	movf	___xxtofl@sign& (0+255),w,b
  1813   002200  B4D8               	btfsc	status,2,c
  1814   002202  EF05  F011         	goto	u5321
  1815   002206  EF07  F011         	goto	u5320
  1816   00220A                     u5321:
  1817   00220A  EF29  F011         	goto	l1583
  1818   00220E                     u5320:
  1819   00220E                     
  1820                           ; BSR set to: 0
  1821   00220E  BE24               	btfsc	(___xxtofl@val+3)^0,7,c
  1822   002210  EF0E  F011         	goto	u5330
  1823   002214  EF0C  F011         	goto	u5331
  1824   002218                     u5331:
  1825   002218  EF29  F011         	goto	l1583
  1826   00221C                     u5330:
  1827   00221C                     
  1828                           ; BSR set to: 0
  1829   00221C  C021  F025         	movff	___xxtofl@val,??___xxtofl
  1830   002220  C022  F026         	movff	___xxtofl@val+1,??___xxtofl+1
  1831   002224  C023  F027         	movff	___xxtofl@val+2,??___xxtofl+2
  1832   002228  C024  F028         	movff	___xxtofl@val+3,??___xxtofl+3
  1833   00222C  1E25               	comf	??___xxtofl^0,f,c
  1834   00222E  1E26               	comf	(??___xxtofl+1)^0,f,c
  1835   002230  1E27               	comf	(??___xxtofl+2)^0,f,c
  1836   002232  1E28               	comf	(??___xxtofl+3)^0,f,c
  1837   002234  2A25               	incf	??___xxtofl^0,f,c
  1838   002236  0E00               	movlw	0
  1839   002238  2226               	addwfc	(??___xxtofl+1)^0,f,c
  1840   00223A  2227               	addwfc	(??___xxtofl+2)^0,f,c
  1841   00223C  2228               	addwfc	(??___xxtofl+3)^0,f,c
  1842   00223E  C025  F062         	movff	??___xxtofl,___xxtofl@arg
  1843   002242  C026  F063         	movff	??___xxtofl+1,___xxtofl@arg+1
  1844   002246  C027  F064         	movff	??___xxtofl+2,___xxtofl@arg+2
  1845   00224A  C028  F065         	movff	??___xxtofl+3,___xxtofl@arg+3
  1846   00224E  EF31  F011         	goto	l6536
  1847   002252                     l1583:
  1848                           
  1849                           ; BSR set to: 0
  1850   002252  C021  F062         	movff	___xxtofl@val,___xxtofl@arg
  1851   002256  C022  F063         	movff	___xxtofl@val+1,___xxtofl@arg+1
  1852   00225A  C023  F064         	movff	___xxtofl@val+2,___xxtofl@arg+2
  1853   00225E  C024  F065         	movff	___xxtofl@val+3,___xxtofl@arg+3
  1854   002262                     l6536:
  1855                           
  1856                           ; BSR set to: 0
  1857   002262  5021               	movf	___xxtofl@val^0,w,c
  1858   002264  1022               	iorwf	(___xxtofl@val+1)^0,w,c
  1859   002266  1023               	iorwf	(___xxtofl@val+2)^0,w,c
  1860   002268  1024               	iorwf	(___xxtofl@val+3)^0,w,c
  1861   00226A  A4D8               	btfss	status,2,c
  1862   00226C  EF3A  F011         	goto	u5341
  1863   002270  EF3C  F011         	goto	u5340
  1864   002274                     u5341:
  1865   002274  EF46  F011         	goto	l6542
  1866   002278                     u5340:
  1867   002278                     
  1868                           ; BSR set to: 0
  1869   002278  0E00               	movlw	0
  1870   00227A  6E21               	movwf	?___xxtofl^0,c
  1871   00227C  0E00               	movlw	0
  1872   00227E  6E22               	movwf	(?___xxtofl+1)^0,c
  1873   002280  0E00               	movlw	0
  1874   002282  6E23               	movwf	(?___xxtofl+2)^0,c
  1875   002284  0E00               	movlw	0
  1876   002286  6E24               	movwf	(?___xxtofl+3)^0,c
  1877   002288  EFD7  F011         	goto	l1586
  1878   00228C                     l6542:
  1879                           
  1880                           ; BSR set to: 0
  1881   00228C  0E96               	movlw	150
  1882   00228E  6F61               	movwf	___xxtofl@exp& (0+255),b
  1883   002290  EF50  F011         	goto	l6546
  1884   002294                     l6544:
  1885                           
  1886                           ; BSR set to: 0
  1887   002294  2B61               	incf	___xxtofl@exp& (0+255),f,b
  1888   002296  90D8               	bcf	status,0,c
  1889   002298  3365               	rrcf	(___xxtofl@arg+3)& (0+255),f,b
  1890   00229A  3364               	rrcf	(___xxtofl@arg+2)& (0+255),f,b
  1891   00229C  3363               	rrcf	(___xxtofl@arg+1)& (0+255),f,b
  1892   00229E  3362               	rrcf	___xxtofl@arg& (0+255),f,b
  1893   0022A0                     l6546:
  1894                           
  1895                           ; BSR set to: 0
  1896   0022A0  0E00               	movlw	0
  1897   0022A2  1562               	andwf	___xxtofl@arg& (0+255),w,b
  1898   0022A4  6E25               	movwf	??___xxtofl^0,c
  1899   0022A6  0E00               	movlw	0
  1900   0022A8  1563               	andwf	(___xxtofl@arg+1)& (0+255),w,b
  1901   0022AA  6E26               	movwf	(??___xxtofl+1)^0,c
  1902   0022AC  0E00               	movlw	0
  1903   0022AE  1564               	andwf	(___xxtofl@arg+2)& (0+255),w,b
  1904   0022B0  6E27               	movwf	(??___xxtofl+2)^0,c
  1905   0022B2  0EFE               	movlw	254
  1906   0022B4  1565               	andwf	(___xxtofl@arg+3)& (0+255),w,b
  1907   0022B6  6E28               	movwf	(??___xxtofl+3)^0,c
  1908   0022B8  5025               	movf	??___xxtofl^0,w,c
  1909   0022BA  1026               	iorwf	(??___xxtofl+1)^0,w,c
  1910   0022BC  1027               	iorwf	(??___xxtofl+2)^0,w,c
  1911   0022BE  1028               	iorwf	(??___xxtofl+3)^0,w,c
  1912   0022C0  A4D8               	btfss	status,2,c
  1913   0022C2  EF65  F011         	goto	u5351
  1914   0022C6  EF67  F011         	goto	u5350
  1915   0022CA                     u5351:
  1916   0022CA  EF4A  F011         	goto	l6544
  1917   0022CE                     u5350:
  1918   0022CE  EF75  F011         	goto	l1590
  1919   0022D2                     l6548:
  1920                           
  1921                           ; BSR set to: 0
  1922   0022D2  2B61               	incf	___xxtofl@exp& (0+255),f,b
  1923   0022D4                     
  1924                           ; BSR set to: 0
  1925   0022D4  0E01               	movlw	1
  1926   0022D6  2762               	addwf	___xxtofl@arg& (0+255),f,b
  1927   0022D8  0E00               	movlw	0
  1928   0022DA  2363               	addwfc	(___xxtofl@arg+1)& (0+255),f,b
  1929   0022DC  2364               	addwfc	(___xxtofl@arg+2)& (0+255),f,b
  1930   0022DE  2365               	addwfc	(___xxtofl@arg+3)& (0+255),f,b
  1931   0022E0                     
  1932                           ; BSR set to: 0
  1933   0022E0  90D8               	bcf	status,0,c
  1934   0022E2  3365               	rrcf	(___xxtofl@arg+3)& (0+255),f,b
  1935   0022E4  3364               	rrcf	(___xxtofl@arg+2)& (0+255),f,b
  1936   0022E6  3363               	rrcf	(___xxtofl@arg+1)& (0+255),f,b
  1937   0022E8  3362               	rrcf	___xxtofl@arg& (0+255),f,b
  1938   0022EA                     l1590:
  1939                           
  1940                           ; BSR set to: 0
  1941   0022EA  0E00               	movlw	0
  1942   0022EC  1562               	andwf	___xxtofl@arg& (0+255),w,b
  1943   0022EE  6E25               	movwf	??___xxtofl^0,c
  1944   0022F0  0E00               	movlw	0
  1945   0022F2  1563               	andwf	(___xxtofl@arg+1)& (0+255),w,b
  1946   0022F4  6E26               	movwf	(??___xxtofl+1)^0,c
  1947   0022F6  0E00               	movlw	0
  1948   0022F8  1564               	andwf	(___xxtofl@arg+2)& (0+255),w,b
  1949   0022FA  6E27               	movwf	(??___xxtofl+2)^0,c
  1950   0022FC  0EFF               	movlw	255
  1951   0022FE  1565               	andwf	(___xxtofl@arg+3)& (0+255),w,b
  1952   002300  6E28               	movwf	(??___xxtofl+3)^0,c
  1953   002302  5025               	movf	??___xxtofl^0,w,c
  1954   002304  1026               	iorwf	(??___xxtofl+1)^0,w,c
  1955   002306  1027               	iorwf	(??___xxtofl+2)^0,w,c
  1956   002308  1028               	iorwf	(??___xxtofl+3)^0,w,c
  1957   00230A  A4D8               	btfss	status,2,c
  1958   00230C  EF8A  F011         	goto	u5361
  1959   002310  EF8C  F011         	goto	u5360
  1960   002314                     u5361:
  1961   002314  EF69  F011         	goto	l6548
  1962   002318                     u5360:
  1963   002318  EF94  F011         	goto	l6556
  1964   00231C                     l6554:
  1965                           
  1966                           ; BSR set to: 0
  1967   00231C  0761               	decf	___xxtofl@exp& (0+255),f,b
  1968   00231E  90D8               	bcf	status,0,c
  1969   002320  3762               	rlcf	___xxtofl@arg& (0+255),f,b
  1970   002322  3763               	rlcf	(___xxtofl@arg+1)& (0+255),f,b
  1971   002324  3764               	rlcf	(___xxtofl@arg+2)& (0+255),f,b
  1972   002326  3765               	rlcf	(___xxtofl@arg+3)& (0+255),f,b
  1973   002328                     l6556:
  1974                           
  1975                           ; BSR set to: 0
  1976   002328  BF64               	btfsc	(___xxtofl@arg+2)& (0+255),7,b
  1977   00232A  EF99  F011         	goto	u5371
  1978   00232E  EF9B  F011         	goto	u5370
  1979   002332                     u5371:
  1980   002332  EFA3  F011         	goto	l1597
  1981   002336                     u5370:
  1982   002336                     
  1983                           ; BSR set to: 0
  1984   002336  0E02               	movlw	2
  1985   002338  6161               	cpfslt	___xxtofl@exp& (0+255),b
  1986   00233A  EFA1  F011         	goto	u5381
  1987   00233E  EFA3  F011         	goto	u5380
  1988   002342                     u5381:
  1989   002342  EF8E  F011         	goto	l6554
  1990   002346                     u5380:
  1991   002346                     l1597:
  1992                           
  1993                           ; BSR set to: 0
  1994   002346  B161               	btfsc	___xxtofl@exp& (0+255),0,b
  1995   002348  EFA8  F011         	goto	u5391
  1996   00234C  EFAA  F011         	goto	u5390
  1997   002350                     u5391:
  1998   002350  EFAB  F011         	goto	l6562
  1999   002354                     u5390:
  2000   002354                     
  2001                           ; BSR set to: 0
  2002   002354  9F64               	bcf	(___xxtofl@arg+2)& (0+255),7,b
  2003   002356                     l6562:
  2004                           
  2005                           ; BSR set to: 0
  2006   002356  90D8               	bcf	status,0,c
  2007   002358  3361               	rrcf	___xxtofl@exp& (0+255),f,b
  2008   00235A                     
  2009                           ; BSR set to: 0
  2010   00235A  C061  F025         	movff	___xxtofl@exp,??___xxtofl
  2011   00235E  6A26               	clrf	(??___xxtofl+1)^0,c
  2012   002360  6A27               	clrf	(??___xxtofl+2)^0,c
  2013   002362  6A28               	clrf	(??___xxtofl+3)^0,c
  2014   002364  C025  F028         	movff	??___xxtofl,??___xxtofl+3
  2015   002368  6A27               	clrf	(??___xxtofl+2)^0,c
  2016   00236A  6A26               	clrf	(??___xxtofl+1)^0,c
  2017   00236C  6A25               	clrf	??___xxtofl^0,c
  2018   00236E  5025               	movf	??___xxtofl^0,w,c
  2019   002370  1362               	iorwf	___xxtofl@arg& (0+255),f,b
  2020   002372  5026               	movf	(??___xxtofl+1)^0,w,c
  2021   002374  1363               	iorwf	(___xxtofl@arg+1)& (0+255),f,b
  2022   002376  5027               	movf	(??___xxtofl+2)^0,w,c
  2023   002378  1364               	iorwf	(___xxtofl@arg+2)& (0+255),f,b
  2024   00237A  5028               	movf	(??___xxtofl+3)^0,w,c
  2025   00237C  1365               	iorwf	(___xxtofl@arg+3)& (0+255),f,b
  2026   00237E                     
  2027                           ; BSR set to: 0
  2028   00237E  5160               	movf	___xxtofl@sign& (0+255),w,b
  2029   002380  B4D8               	btfsc	status,2,c
  2030   002382  EFC5  F011         	goto	u5401
  2031   002386  EFC7  F011         	goto	u5400
  2032   00238A                     u5401:
  2033   00238A  EFCF  F011         	goto	l6572
  2034   00238E                     u5400:
  2035   00238E                     
  2036                           ; BSR set to: 0
  2037   00238E  BE24               	btfsc	(___xxtofl@val+3)^0,7,c
  2038   002390  EFCE  F011         	goto	u5410
  2039   002394  EFCC  F011         	goto	u5411
  2040   002398                     u5411:
  2041   002398  EFCF  F011         	goto	l6572
  2042   00239C                     u5410:
  2043   00239C                     
  2044                           ; BSR set to: 0
  2045   00239C  8F65               	bsf	(___xxtofl@arg+3)& (0+255),7,b
  2046   00239E                     l6572:
  2047                           
  2048                           ; BSR set to: 0
  2049   00239E  C062  F021         	movff	___xxtofl@arg,?___xxtofl
  2050   0023A2  C063  F022         	movff	___xxtofl@arg+1,?___xxtofl+1
  2051   0023A6  C064  F023         	movff	___xxtofl@arg+2,?___xxtofl+2
  2052   0023AA  C065  F024         	movff	___xxtofl@arg+3,?___xxtofl+3
  2053   0023AE                     l1586:
  2054                           
  2055                           ; BSR set to: 0
  2056   0023AE  0012               	return		;funcret
  2057   0023B0                     __end_of___xxtofl:
  2058                           	callstack 0
  2059                           
  2060 ;; *************** function ___lwdiv *****************
  2061 ;; Defined at:
  2062 ;;		line 7 in file "C:\Program Files\Microchip\xc8\v2.40\pic\sources\c99\common\lwdiv.c"
  2063 ;; Parameters:    Size  Location     Type
  2064 ;;  dividend        2   25[COMRAM] unsigned int 
  2065 ;;  divisor         2   27[COMRAM] unsigned int 
  2066 ;; Auto vars:     Size  Location     Type
  2067 ;;  quotient        2   30[COMRAM] unsigned int 
  2068 ;;  counter         1   29[COMRAM] unsigned char 
  2069 ;; Return value:  Size  Location     Type
  2070 ;;                  2   25[COMRAM] unsigned int 
  2071 ;; Registers used:
  2072 ;;		wreg, status,2, status,0
  2073 ;; Tracked objects:
  2074 ;;		On entry : 0/0
  2075 ;;		On exit  : 0/0
  2076 ;;		Unchanged: 0/0
  2077 ;; Data sizes:     COMRAM   BANK0   BANK1   BANK2   BANK3   BANK4   BANK5   BANK6   BANK7   BANK8   BANK9  BANK10  BANK1
      +1  BANK12  BANK13  BANK14
  2078 ;;      Params:         4       0       0       0       0       0       0       0       0       0       0       0       
      +0       0       0       0
  2079 ;;      Locals:         3       0       0       0       0       0       0       0       0       0       0       0       
      +0       0       0       0
  2080 ;;      Temps:          0       0       0       0       0       0       0       0       0       0       0       0       
      +0       0       0       0
  2081 ;;      Totals:         7       0       0       0       0       0       0       0       0       0       0       0       
      +0       0       0       0
  2082 ;;Total ram usage:        7 bytes
  2083 ;; Hardware stack levels used: 1
  2084 ;; Hardware stack levels required when called: 7
  2085 ;; This function calls:
  2086 ;;		Nothing
  2087 ;; This function is called by:
  2088 ;;		_windSpeedCalc
  2089 ;; This function uses a non-reentrant model
  2090 ;;
  2091                           
  2092                           	psect	text6
  2093   00310A                     __ptext6:
  2094                           	callstack 0
  2095   00310A                     ___lwdiv:
  2096                           	callstack 22
  2097   00310A  0E00               	movlw	0
  2098   00310C  6E20               	movwf	(___lwdiv@quotient+1)^0,c
  2099   00310E  0E00               	movlw	0
  2100   003110  6E1F               	movwf	___lwdiv@quotient^0,c
  2101   003112  501C               	movf	___lwdiv@divisor^0,w,c
  2102   003114  101D               	iorwf	(___lwdiv@divisor+1)^0,w,c
  2103   003116  B4D8               	btfsc	status,2,c
  2104   003118  EF90  F018         	goto	u5291
  2105   00311C  EF92  F018         	goto	u5290
  2106   003120                     u5291:
  2107   003120  EFBA  F018         	goto	l1419
  2108   003124                     u5290:
  2109   003124  0E01               	movlw	1
  2110   003126  6E1E               	movwf	___lwdiv@counter^0,c
  2111   003128  EF9A  F018         	goto	l6516
  2112   00312C                     l6514:
  2113   00312C  90D8               	bcf	status,0,c
  2114   00312E  361C               	rlcf	___lwdiv@divisor^0,f,c
  2115   003130  361D               	rlcf	(___lwdiv@divisor+1)^0,f,c
  2116   003132  2A1E               	incf	___lwdiv@counter^0,f,c
  2117   003134                     l6516:
  2118   003134  AE1D               	btfss	(___lwdiv@divisor+1)^0,7,c
  2119   003136  EF9F  F018         	goto	u5301
  2120   00313A  EFA1  F018         	goto	u5300
  2121   00313E                     u5301:
  2122   00313E  EF96  F018         	goto	l6514
  2123   003142                     u5300:
  2124   003142                     l6518:
  2125   003142  90D8               	bcf	status,0,c
  2126   003144  361F               	rlcf	___lwdiv@quotient^0,f,c
  2127   003146  3620               	rlcf	(___lwdiv@quotient+1)^0,f,c
  2128   003148  501C               	movf	___lwdiv@divisor^0,w,c
  2129   00314A  5C1A               	subwf	___lwdiv@dividend^0,w,c
  2130   00314C  501D               	movf	(___lwdiv@divisor+1)^0,w,c
  2131   00314E  581B               	subwfb	(___lwdiv@dividend+1)^0,w,c
  2132   003150  A0D8               	btfss	status,0,c
  2133   003152  EFAD  F018         	goto	u5311
  2134   003156  EFAF  F018         	goto	u5310
  2135   00315A                     u5311:
  2136   00315A  EFB4  F018         	goto	l6526
  2137   00315E                     u5310:
  2138   00315E  501C               	movf	___lwdiv@divisor^0,w,c
  2139   003160  5E1A               	subwf	___lwdiv@dividend^0,f,c
  2140   003162  501D               	movf	(___lwdiv@divisor+1)^0,w,c
  2141   003164  5A1B               	subwfb	(___lwdiv@dividend+1)^0,f,c
  2142   003166  801F               	bsf	___lwdiv@quotient^0,0,c
  2143   003168                     l6526:
  2144   003168  90D8               	bcf	status,0,c
  2145   00316A  321D               	rrcf	(___lwdiv@divisor+1)^0,f,c
  2146   00316C  321C               	rrcf	___lwdiv@divisor^0,f,c
  2147   00316E  2E1E               	decfsz	___lwdiv@counter^0,f,c
  2148   003170  EFA1  F018         	goto	l6518
  2149   003174                     l1419:
  2150   003174  C01F  F01A         	movff	___lwdiv@quotient,?___lwdiv
  2151   003178  C020  F01B         	movff	___lwdiv@quotient+1,?___lwdiv+1
  2152   00317C  0012               	return		;funcret
  2153   00317E                     __end_of___lwdiv:
  2154                           	callstack 0
  2155                           
  2156 ;; *************** function ___flmul *****************
  2157 ;; Defined at:
  2158 ;;		line 8 in file "C:\Program Files\Microchip\xc8\v2.40\pic\sources\c99\common\sprcmul.c"
  2159 ;; Parameters:    Size  Location     Type
  2160 ;;  b               4   25[COMRAM] unsigned int 
  2161 ;;  a               4   29[COMRAM] unsigned int 
  2162 ;; Auto vars:     Size  Location     Type
  2163 ;;  prod            4    7[BANK0 ] struct .
  2164 ;;  grs             4    2[BANK0 ] unsigned long 
  2165 ;;  temp            2   11[BANK0 ] struct .
  2166 ;;  bexp            1    6[BANK0 ] unsigned char 
  2167 ;;  aexp            1    1[BANK0 ] unsigned char 
  2168 ;;  sign            1    0[BANK0 ] unsigned char 
  2169 ;; Return value:  Size  Location     Type
  2170 ;;                  4   25[COMRAM] unsigned char 
  2171 ;; Registers used:
  2172 ;;		wreg, status,2, status,0, prodl, prodh
  2173 ;; Tracked objects:
  2174 ;;		On entry : 0/0
  2175 ;;		On exit  : 0/0
  2176 ;;		Unchanged: 0/0
  2177 ;; Data sizes:     COMRAM   BANK0   BANK1   BANK2   BANK3   BANK4   BANK5   BANK6   BANK7   BANK8   BANK9  BANK10  BANK1
      +1  BANK12  BANK13  BANK14
  2178 ;;      Params:         8       0       0       0       0       0       0       0       0       0       0       0       
      +0       0       0       0
  2179 ;;      Locals:         0      13       0       0       0       0       0       0       0       0       0       0       
      +0       0       0       0
  2180 ;;      Temps:          4       0       0       0       0       0       0       0       0       0       0       0       
      +0       0       0       0
  2181 ;;      Totals:        12      13       0       0       0       0       0       0       0       0       0       0       
      +0       0       0       0
  2182 ;;Total ram usage:       25 bytes
  2183 ;; Hardware stack levels used: 1
  2184 ;; Hardware stack levels required when called: 7
  2185 ;; This function calls:
  2186 ;;		Nothing
  2187 ;; This function is called by:
  2188 ;;		_windSpeedCalc
  2189 ;; This function uses a non-reentrant model
  2190 ;;
  2191                           
  2192                           	psect	text7
  2193   000F9A                     __ptext7:
  2194                           	callstack 0
  2195   000F9A                     ___flmul:
  2196                           	callstack 22
  2197   000F9A  501D               	movf	(___flmul@b+3)^0,w,c
  2198   000F9C  0B80               	andlw	128
  2199   000F9E  0100               	movlb	0	; () banked
  2200   000FA0  6F60               	movwf	___flmul@sign& (0+255),b
  2201   000FA2  501D               	movf	(___flmul@b+3)^0,w,c
  2202   000FA4  241D               	addwf	(___flmul@b+3)^0,w,c
  2203   000FA6  6F66               	movwf	___flmul@bexp& (0+255),b
  2204   000FA8                     
  2205                           ; BSR set to: 0
  2206   000FA8  AE1C               	btfss	(___flmul@b+2)^0,7,c
  2207   000FAA  EFD9  F007         	goto	u5101
  2208   000FAE  EFDB  F007         	goto	u5100
  2209   000FB2                     u5101:
  2210   000FB2  EFDC  F007         	goto	l6384
  2211   000FB6                     u5100:
  2212   000FB6                     
  2213                           ; BSR set to: 0
  2214   000FB6  8166               	bsf	___flmul@bexp& (0+255),0,b
  2215   000FB8                     l6384:
  2216                           
  2217                           ; BSR set to: 0
  2218   000FB8  5166               	movf	___flmul@bexp& (0+255),w,b
  2219   000FBA  B4D8               	btfsc	status,2,c
  2220   000FBC  EFE2  F007         	goto	u5111
  2221   000FC0  EFE4  F007         	goto	u5110
  2222   000FC4                     u5111:
  2223   000FC4  EFF7  F007         	goto	l6392
  2224   000FC8                     u5110:
  2225   000FC8                     
  2226                           ; BSR set to: 0
  2227   000FC8  2966               	incf	___flmul@bexp& (0+255),w,b
  2228   000FCA  A4D8               	btfss	status,2,c
  2229   000FCC  EFEA  F007         	goto	u5121
  2230   000FD0  EFEC  F007         	goto	u5120
  2231   000FD4                     u5121:
  2232   000FD4  EFF4  F007         	goto	l6390
  2233   000FD8                     u5120:
  2234   000FD8                     
  2235                           ; BSR set to: 0
  2236   000FD8  0E00               	movlw	0
  2237   000FDA  6E1A               	movwf	___flmul@b^0,c
  2238   000FDC  0E00               	movlw	0
  2239   000FDE  6E1B               	movwf	(___flmul@b+1)^0,c
  2240   000FE0  0E00               	movlw	0
  2241   000FE2  6E1C               	movwf	(___flmul@b+2)^0,c
  2242   000FE4  0E00               	movlw	0
  2243   000FE6  6E1D               	movwf	(___flmul@b+3)^0,c
  2244   000FE8                     l6390:
  2245                           
  2246                           ; BSR set to: 0
  2247   000FE8  8E1C               	bsf	(___flmul@b+2)^0,7,c
  2248   000FEA  EFFF  F007         	goto	l6394
  2249   000FEE                     l6392:
  2250                           
  2251                           ; BSR set to: 0
  2252   000FEE  0E00               	movlw	0
  2253   000FF0  6E1A               	movwf	___flmul@b^0,c
  2254   000FF2  0E00               	movlw	0
  2255   000FF4  6E1B               	movwf	(___flmul@b+1)^0,c
  2256   000FF6  0E00               	movlw	0
  2257   000FF8  6E1C               	movwf	(___flmul@b+2)^0,c
  2258   000FFA  0E00               	movlw	0
  2259   000FFC  6E1D               	movwf	(___flmul@b+3)^0,c
  2260   000FFE                     l6394:
  2261                           
  2262                           ; BSR set to: 0
  2263   000FFE  5021               	movf	(___flmul@a+3)^0,w,c
  2264   001000  0B80               	andlw	128
  2265   001002  1B60               	xorwf	___flmul@sign& (0+255),f,b
  2266   001004                     
  2267                           ; BSR set to: 0
  2268   001004  5021               	movf	(___flmul@a+3)^0,w,c
  2269   001006  2421               	addwf	(___flmul@a+3)^0,w,c
  2270   001008  6F61               	movwf	___flmul@aexp& (0+255),b
  2271   00100A                     
  2272                           ; BSR set to: 0
  2273   00100A  AE20               	btfss	(___flmul@a+2)^0,7,c
  2274   00100C  EF0A  F008         	goto	u5131
  2275   001010  EF0C  F008         	goto	u5130
  2276   001014                     u5131:
  2277   001014  EF0D  F008         	goto	l6402
  2278   001018                     u5130:
  2279   001018                     
  2280                           ; BSR set to: 0
  2281   001018  8161               	bsf	___flmul@aexp& (0+255),0,b
  2282   00101A                     l6402:
  2283                           
  2284                           ; BSR set to: 0
  2285   00101A  5161               	movf	___flmul@aexp& (0+255),w,b
  2286   00101C  B4D8               	btfsc	status,2,c
  2287   00101E  EF13  F008         	goto	u5141
  2288   001022  EF15  F008         	goto	u5140
  2289   001026                     u5141:
  2290   001026  EF28  F008         	goto	l6410
  2291   00102A                     u5140:
  2292   00102A                     
  2293                           ; BSR set to: 0
  2294   00102A  2961               	incf	___flmul@aexp& (0+255),w,b
  2295   00102C  A4D8               	btfss	status,2,c
  2296   00102E  EF1B  F008         	goto	u5151
  2297   001032  EF1D  F008         	goto	u5150
  2298   001036                     u5151:
  2299   001036  EF25  F008         	goto	l6408
  2300   00103A                     u5150:
  2301   00103A                     
  2302                           ; BSR set to: 0
  2303   00103A  0E00               	movlw	0
  2304   00103C  6E1E               	movwf	___flmul@a^0,c
  2305   00103E  0E00               	movlw	0
  2306   001040  6E1F               	movwf	(___flmul@a+1)^0,c
  2307   001042  0E00               	movlw	0
  2308   001044  6E20               	movwf	(___flmul@a+2)^0,c
  2309   001046  0E00               	movlw	0
  2310   001048  6E21               	movwf	(___flmul@a+3)^0,c
  2311   00104A                     l6408:
  2312                           
  2313                           ; BSR set to: 0
  2314   00104A  8E20               	bsf	(___flmul@a+2)^0,7,c
  2315   00104C  EF30  F008         	goto	l1542
  2316   001050                     l6410:
  2317                           
  2318                           ; BSR set to: 0
  2319   001050  0E00               	movlw	0
  2320   001052  6E1E               	movwf	___flmul@a^0,c
  2321   001054  0E00               	movlw	0
  2322   001056  6E1F               	movwf	(___flmul@a+1)^0,c
  2323   001058  0E00               	movlw	0
  2324   00105A  6E20               	movwf	(___flmul@a+2)^0,c
  2325   00105C  0E00               	movlw	0
  2326   00105E  6E21               	movwf	(___flmul@a+3)^0,c
  2327   001060                     l1542:
  2328                           
  2329                           ; BSR set to: 0
  2330   001060  5161               	movf	___flmul@aexp& (0+255),w,b
  2331   001062  B4D8               	btfsc	status,2,c
  2332   001064  EF36  F008         	goto	u5161
  2333   001068  EF38  F008         	goto	u5160
  2334   00106C                     u5161:
  2335   00106C  EF40  F008         	goto	l6414
  2336   001070                     u5160:
  2337   001070                     
  2338                           ; BSR set to: 0
  2339   001070  5166               	movf	___flmul@bexp& (0+255),w,b
  2340   001072  A4D8               	btfss	status,2,c
  2341   001074  EF3E  F008         	goto	u5171
  2342   001078  EF40  F008         	goto	u5170
  2343   00107C                     u5171:
  2344   00107C  EF4A  F008         	goto	l6418
  2345   001080                     u5170:
  2346   001080                     l6414:
  2347                           
  2348                           ; BSR set to: 0
  2349   001080  0E00               	movlw	0
  2350   001082  6E1A               	movwf	?___flmul^0,c
  2351   001084  0E00               	movlw	0
  2352   001086  6E1B               	movwf	(?___flmul+1)^0,c
  2353   001088  0E00               	movlw	0
  2354   00108A  6E1C               	movwf	(?___flmul+2)^0,c
  2355   00108C  0E00               	movlw	0
  2356   00108E  6E1D               	movwf	(?___flmul+3)^0,c
  2357   001090  EFE2  F009         	goto	l1546
  2358   001094                     l6418:
  2359                           
  2360                           ; BSR set to: 0
  2361   001094  5020               	movf	(___flmul@a+2)^0,w,c
  2362   001096  021A               	mulwf	___flmul@b^0,c
  2363   001098  CFF3 F06B          	movff	prodl,___flmul@temp
  2364   00109C  CFF4 F06C          	movff	prodh,___flmul@temp+1
  2365   0010A0                     
  2366                           ; BSR set to: 0
  2367   0010A0  516B               	movf	___flmul@temp& (0+255),w,b
  2368   0010A2  6F62               	movwf	___flmul@grs& (0+255),b
  2369   0010A4  6B63               	clrf	(___flmul@grs+1)& (0+255),b
  2370   0010A6  6B64               	clrf	(___flmul@grs+2)& (0+255),b
  2371   0010A8  6B65               	clrf	(___flmul@grs+3)& (0+255),b
  2372   0010AA                     
  2373                           ; BSR set to: 0
  2374   0010AA  516C               	movf	(___flmul@temp+1)& (0+255),w,b
  2375   0010AC  6F67               	movwf	___flmul@prod& (0+255),b
  2376   0010AE  6B68               	clrf	(___flmul@prod+1)& (0+255),b
  2377   0010B0  6B69               	clrf	(___flmul@prod+2)& (0+255),b
  2378   0010B2  6B6A               	clrf	(___flmul@prod+3)& (0+255),b
  2379   0010B4  501F               	movf	(___flmul@a+1)^0,w,c
  2380   0010B6  021B               	mulwf	(___flmul@b+1)^0,c
  2381   0010B8  CFF3 F06B          	movff	prodl,___flmul@temp
  2382   0010BC  CFF4 F06C          	movff	prodh,___flmul@temp+1
  2383   0010C0                     
  2384                           ; BSR set to: 0
  2385   0010C0  516B               	movf	___flmul@temp& (0+255),w,b
  2386   0010C2  2762               	addwf	___flmul@grs& (0+255),f,b
  2387   0010C4  0E00               	movlw	0
  2388   0010C6  2363               	addwfc	(___flmul@grs+1)& (0+255),f,b
  2389   0010C8  2364               	addwfc	(___flmul@grs+2)& (0+255),f,b
  2390   0010CA  2365               	addwfc	(___flmul@grs+3)& (0+255),f,b
  2391   0010CC                     
  2392                           ; BSR set to: 0
  2393   0010CC  516C               	movf	(___flmul@temp+1)& (0+255),w,b
  2394   0010CE  2767               	addwf	___flmul@prod& (0+255),f,b
  2395   0010D0  0E00               	movlw	0
  2396   0010D2  2368               	addwfc	(___flmul@prod+1)& (0+255),f,b
  2397   0010D4  2369               	addwfc	(___flmul@prod+2)& (0+255),f,b
  2398   0010D6  236A               	addwfc	(___flmul@prod+3)& (0+255),f,b
  2399   0010D8  501E               	movf	___flmul@a^0,w,c
  2400   0010DA  021C               	mulwf	(___flmul@b+2)^0,c
  2401   0010DC  CFF3 F06B          	movff	prodl,___flmul@temp
  2402   0010E0  CFF4 F06C          	movff	prodh,___flmul@temp+1
  2403   0010E4                     
  2404                           ; BSR set to: 0
  2405   0010E4  516B               	movf	___flmul@temp& (0+255),w,b
  2406   0010E6  2762               	addwf	___flmul@grs& (0+255),f,b
  2407   0010E8  0E00               	movlw	0
  2408   0010EA  2363               	addwfc	(___flmul@grs+1)& (0+255),f,b
  2409   0010EC  2364               	addwfc	(___flmul@grs+2)& (0+255),f,b
  2410   0010EE  2365               	addwfc	(___flmul@grs+3)& (0+255),f,b
  2411   0010F0                     
  2412                           ; BSR set to: 0
  2413   0010F0  516C               	movf	(___flmul@temp+1)& (0+255),w,b
  2414   0010F2  2767               	addwf	___flmul@prod& (0+255),f,b
  2415   0010F4  0E00               	movlw	0
  2416   0010F6  2368               	addwfc	(___flmul@prod+1)& (0+255),f,b
  2417   0010F8  2369               	addwfc	(___flmul@prod+2)& (0+255),f,b
  2418   0010FA  236A               	addwfc	(___flmul@prod+3)& (0+255),f,b
  2419   0010FC                     
  2420                           ; BSR set to: 0
  2421   0010FC  C064  F065         	movff	___flmul@grs+2,___flmul@grs+3
  2422   001100  C063  F064         	movff	___flmul@grs+1,___flmul@grs+2
  2423   001104  C062  F063         	movff	___flmul@grs,___flmul@grs+1
  2424   001108  6B62               	clrf	___flmul@grs& (0+255),b
  2425   00110A                     
  2426                           ; BSR set to: 0
  2427   00110A  501E               	movf	___flmul@a^0,w,c
  2428   00110C  021B               	mulwf	(___flmul@b+1)^0,c
  2429   00110E  CFF3 F06B          	movff	prodl,___flmul@temp
  2430   001112  CFF4 F06C          	movff	prodh,___flmul@temp+1
  2431   001116                     
  2432                           ; BSR set to: 0
  2433   001116  516B               	movf	___flmul@temp& (0+255),w,b
  2434   001118  2762               	addwf	___flmul@grs& (0+255),f,b
  2435   00111A  516C               	movf	(___flmul@temp+1)& (0+255),w,b
  2436   00111C  2363               	addwfc	(___flmul@grs+1)& (0+255),f,b
  2437   00111E  0E00               	movlw	0
  2438   001120  2364               	addwfc	(___flmul@grs+2)& (0+255),f,b
  2439   001122  0E00               	movlw	0
  2440   001124  2365               	addwfc	(___flmul@grs+3)& (0+255),f,b
  2441   001126                     
  2442                           ; BSR set to: 0
  2443   001126  501F               	movf	(___flmul@a+1)^0,w,c
  2444   001128  021A               	mulwf	___flmul@b^0,c
  2445   00112A  CFF3 F06B          	movff	prodl,___flmul@temp
  2446   00112E  CFF4 F06C          	movff	prodh,___flmul@temp+1
  2447   001132                     
  2448                           ; BSR set to: 0
  2449   001132  516B               	movf	___flmul@temp& (0+255),w,b
  2450   001134  2762               	addwf	___flmul@grs& (0+255),f,b
  2451   001136  516C               	movf	(___flmul@temp+1)& (0+255),w,b
  2452   001138  2363               	addwfc	(___flmul@grs+1)& (0+255),f,b
  2453   00113A  0E00               	movlw	0
  2454   00113C  2364               	addwfc	(___flmul@grs+2)& (0+255),f,b
  2455   00113E  0E00               	movlw	0
  2456   001140  2365               	addwfc	(___flmul@grs+3)& (0+255),f,b
  2457   001142                     
  2458                           ; BSR set to: 0
  2459   001142  C064  F065         	movff	___flmul@grs+2,___flmul@grs+3
  2460   001146  C063  F064         	movff	___flmul@grs+1,___flmul@grs+2
  2461   00114A  C062  F063         	movff	___flmul@grs,___flmul@grs+1
  2462   00114E  6B62               	clrf	___flmul@grs& (0+255),b
  2463   001150  501E               	movf	___flmul@a^0,w,c
  2464   001152  021A               	mulwf	___flmul@b^0,c
  2465   001154  CFF3 F06B          	movff	prodl,___flmul@temp
  2466   001158  CFF4 F06C          	movff	prodh,___flmul@temp+1
  2467   00115C                     
  2468                           ; BSR set to: 0
  2469   00115C  516B               	movf	___flmul@temp& (0+255),w,b
  2470   00115E  2762               	addwf	___flmul@grs& (0+255),f,b
  2471   001160  516C               	movf	(___flmul@temp+1)& (0+255),w,b
  2472   001162  2363               	addwfc	(___flmul@grs+1)& (0+255),f,b
  2473   001164  0E00               	movlw	0
  2474   001166  2364               	addwfc	(___flmul@grs+2)& (0+255),f,b
  2475   001168  0E00               	movlw	0
  2476   00116A  2365               	addwfc	(___flmul@grs+3)& (0+255),f,b
  2477   00116C                     
  2478                           ; BSR set to: 0
  2479   00116C  5020               	movf	(___flmul@a+2)^0,w,c
  2480   00116E  021B               	mulwf	(___flmul@b+1)^0,c
  2481   001170  CFF3 F06B          	movff	prodl,___flmul@temp
  2482   001174  CFF4 F06C          	movff	prodh,___flmul@temp+1
  2483   001178  516B               	movf	___flmul@temp& (0+255),w,b
  2484   00117A  2767               	addwf	___flmul@prod& (0+255),f,b
  2485   00117C  516C               	movf	(___flmul@temp+1)& (0+255),w,b
  2486   00117E  2368               	addwfc	(___flmul@prod+1)& (0+255),f,b
  2487   001180  0E00               	movlw	0
  2488   001182  2369               	addwfc	(___flmul@prod+2)& (0+255),f,b
  2489   001184  0E00               	movlw	0
  2490   001186  236A               	addwfc	(___flmul@prod+3)& (0+255),f,b
  2491   001188                     
  2492                           ; BSR set to: 0
  2493   001188  501F               	movf	(___flmul@a+1)^0,w,c
  2494   00118A  021C               	mulwf	(___flmul@b+2)^0,c
  2495   00118C  CFF3 F06B          	movff	prodl,___flmul@temp
  2496   001190  CFF4 F06C          	movff	prodh,___flmul@temp+1
  2497   001194                     
  2498                           ; BSR set to: 0
  2499   001194  516B               	movf	___flmul@temp& (0+255),w,b
  2500   001196  2767               	addwf	___flmul@prod& (0+255),f,b
  2501   001198  516C               	movf	(___flmul@temp+1)& (0+255),w,b
  2502   00119A  2368               	addwfc	(___flmul@prod+1)& (0+255),f,b
  2503   00119C  0E00               	movlw	0
  2504   00119E  2369               	addwfc	(___flmul@prod+2)& (0+255),f,b
  2505   0011A0  0E00               	movlw	0
  2506   0011A2  236A               	addwfc	(___flmul@prod+3)& (0+255),f,b
  2507   0011A4  5020               	movf	(___flmul@a+2)^0,w,c
  2508   0011A6  021C               	mulwf	(___flmul@b+2)^0,c
  2509   0011A8  CFF3 F06B          	movff	prodl,___flmul@temp
  2510   0011AC  CFF4 F06C          	movff	prodh,___flmul@temp+1
  2511   0011B0                     
  2512                           ; BSR set to: 0
  2513   0011B0  516B               	movf	___flmul@temp& (0+255),w,b
  2514   0011B2  6E22               	movwf	??___flmul^0,c
  2515   0011B4  516C               	movf	(___flmul@temp+1)& (0+255),w,b
  2516   0011B6  6E23               	movwf	(??___flmul+1)^0,c
  2517   0011B8  6A24               	clrf	(??___flmul+2)^0,c
  2518   0011BA  6A25               	clrf	(??___flmul+3)^0,c
  2519   0011BC  C024  F025         	movff	??___flmul+2,??___flmul+3
  2520   0011C0  C023  F024         	movff	??___flmul+1,??___flmul+2
  2521   0011C4  C022  F023         	movff	??___flmul,??___flmul+1
  2522   0011C8  6A22               	clrf	??___flmul^0,c
  2523   0011CA  5022               	movf	??___flmul^0,w,c
  2524   0011CC  2767               	addwf	___flmul@prod& (0+255),f,b
  2525   0011CE  5023               	movf	(??___flmul+1)^0,w,c
  2526   0011D0  2368               	addwfc	(___flmul@prod+1)& (0+255),f,b
  2527   0011D2  5024               	movf	(??___flmul+2)^0,w,c
  2528   0011D4  2369               	addwfc	(___flmul@prod+2)& (0+255),f,b
  2529   0011D6  5025               	movf	(??___flmul+3)^0,w,c
  2530   0011D8  236A               	addwfc	(___flmul@prod+3)& (0+255),f,b
  2531   0011DA                     
  2532                           ; BSR set to: 0
  2533   0011DA  C062  F022         	movff	___flmul@grs,??___flmul
  2534   0011DE  C063  F023         	movff	___flmul@grs+1,??___flmul+1
  2535   0011E2  C064  F024         	movff	___flmul@grs+2,??___flmul+2
  2536   0011E6  C065  F025         	movff	___flmul@grs+3,??___flmul+3
  2537   0011EA  0E19               	movlw	25
  2538   0011EC  EFFD  F008         	goto	u5180
  2539   0011F0                     u5185:
  2540   0011F0  90D8               	bcf	status,0,c
  2541   0011F2  3225               	rrcf	(??___flmul+3)^0,f,c
  2542   0011F4  3224               	rrcf	(??___flmul+2)^0,f,c
  2543   0011F6  3223               	rrcf	(??___flmul+1)^0,f,c
  2544   0011F8  3222               	rrcf	??___flmul^0,f,c
  2545   0011FA                     u5180:
  2546   0011FA  2EE8               	decfsz	wreg,f,c
  2547   0011FC  EFF8  F008         	goto	u5185
  2548   001200  5022               	movf	??___flmul^0,w,c
  2549   001202  2767               	addwf	___flmul@prod& (0+255),f,b
  2550   001204  5023               	movf	(??___flmul+1)^0,w,c
  2551   001206  2368               	addwfc	(___flmul@prod+1)& (0+255),f,b
  2552   001208  5024               	movf	(??___flmul+2)^0,w,c
  2553   00120A  2369               	addwfc	(___flmul@prod+2)& (0+255),f,b
  2554   00120C  5025               	movf	(??___flmul+3)^0,w,c
  2555   00120E  236A               	addwfc	(___flmul@prod+3)& (0+255),f,b
  2556   001210                     
  2557                           ; BSR set to: 0
  2558   001210  C064  F065         	movff	___flmul@grs+2,___flmul@grs+3
  2559   001214  C063  F064         	movff	___flmul@grs+1,___flmul@grs+2
  2560   001218  C062  F063         	movff	___flmul@grs,___flmul@grs+1
  2561   00121C  6B62               	clrf	___flmul@grs& (0+255),b
  2562   00121E                     
  2563                           ; BSR set to: 0
  2564   00121E  5161               	movf	___flmul@aexp& (0+255),w,b
  2565   001220  C066  F022         	movff	___flmul@bexp,??___flmul
  2566   001224  6A23               	clrf	(??___flmul+1)^0,c
  2567   001226  2622               	addwf	??___flmul^0,f,c
  2568   001228  0E00               	movlw	0
  2569   00122A  2223               	addwfc	(??___flmul+1)^0,f,c
  2570   00122C  0E82               	movlw	130
  2571   00122E  2422               	addwf	??___flmul^0,w,c
  2572   001230  6F6B               	movwf	___flmul@temp& (0+255),b
  2573   001232  0EFF               	movlw	255
  2574   001234  2023               	addwfc	(??___flmul+1)^0,w,c
  2575   001236  6F6C               	movwf	(___flmul@temp+1)& (0+255),b
  2576   001238  EF33  F009         	goto	l6466
  2577   00123C                     l6460:
  2578                           
  2579                           ; BSR set to: 0
  2580   00123C  90D8               	bcf	status,0,c
  2581   00123E  3767               	rlcf	___flmul@prod& (0+255),f,b
  2582   001240  3768               	rlcf	(___flmul@prod+1)& (0+255),f,b
  2583   001242  3769               	rlcf	(___flmul@prod+2)& (0+255),f,b
  2584   001244  376A               	rlcf	(___flmul@prod+3)& (0+255),f,b
  2585   001246                     
  2586                           ; BSR set to: 0
  2587   001246  AF65               	btfss	(___flmul@grs+3)& (0+255),7,b
  2588   001248  EF28  F009         	goto	u5191
  2589   00124C  EF2A  F009         	goto	u5190
  2590   001250                     u5191:
  2591   001250  EF2B  F009         	goto	l1549
  2592   001254                     u5190:
  2593   001254                     
  2594                           ; BSR set to: 0
  2595   001254  8167               	bsf	___flmul@prod& (0+255),0,b
  2596   001256                     l1549:
  2597                           
  2598                           ; BSR set to: 0
  2599   001256  90D8               	bcf	status,0,c
  2600   001258  3762               	rlcf	___flmul@grs& (0+255),f,b
  2601   00125A  3763               	rlcf	(___flmul@grs+1)& (0+255),f,b
  2602   00125C  3764               	rlcf	(___flmul@grs+2)& (0+255),f,b
  2603   00125E  3765               	rlcf	(___flmul@grs+3)& (0+255),f,b
  2604   001260  076B               	decf	___flmul@temp& (0+255),f,b
  2605   001262  A0D8               	btfss	status,0,c
  2606   001264  076C               	decf	(___flmul@temp+1)& (0+255),f,b
  2607   001266                     l6466:
  2608                           
  2609                           ; BSR set to: 0
  2610   001266  AF69               	btfss	(___flmul@prod+2)& (0+255),7,b
  2611   001268  EF38  F009         	goto	u5201
  2612   00126C  EF3A  F009         	goto	u5200
  2613   001270                     u5201:
  2614   001270  EF1E  F009         	goto	l6460
  2615   001274                     u5200:
  2616   001274                     
  2617                           ; BSR set to: 0
  2618   001274  0E00               	movlw	0
  2619   001276  6F61               	movwf	___flmul@aexp& (0+255),b
  2620   001278                     
  2621                           ; BSR set to: 0
  2622   001278  AF65               	btfss	(___flmul@grs+3)& (0+255),7,b
  2623   00127A  EF41  F009         	goto	u5211
  2624   00127E  EF43  F009         	goto	u5210
  2625   001282                     u5211:
  2626   001282  EF67  F009         	goto	l1551
  2627   001286                     u5210:
  2628   001286                     
  2629                           ; BSR set to: 0
  2630   001286  0EFF               	movlw	255
  2631   001288  1562               	andwf	___flmul@grs& (0+255),w,b
  2632   00128A  6E22               	movwf	??___flmul^0,c
  2633   00128C  0EFF               	movlw	255
  2634   00128E  1563               	andwf	(___flmul@grs+1)& (0+255),w,b
  2635   001290  6E23               	movwf	(??___flmul+1)^0,c
  2636   001292  0EFF               	movlw	255
  2637   001294  1564               	andwf	(___flmul@grs+2)& (0+255),w,b
  2638   001296  6E24               	movwf	(??___flmul+2)^0,c
  2639   001298  0E7F               	movlw	127
  2640   00129A  1565               	andwf	(___flmul@grs+3)& (0+255),w,b
  2641   00129C  6E25               	movwf	(??___flmul+3)^0,c
  2642   00129E  5022               	movf	??___flmul^0,w,c
  2643   0012A0  1023               	iorwf	(??___flmul+1)^0,w,c
  2644   0012A2  1024               	iorwf	(??___flmul+2)^0,w,c
  2645   0012A4  1025               	iorwf	(??___flmul+3)^0,w,c
  2646   0012A6  B4D8               	btfsc	status,2,c
  2647   0012A8  EF58  F009         	goto	u5221
  2648   0012AC  EF5A  F009         	goto	u5220
  2649   0012B0                     u5221:
  2650   0012B0  EF5E  F009         	goto	l1552
  2651   0012B4                     u5220:
  2652   0012B4                     l6474:
  2653                           
  2654                           ; BSR set to: 0
  2655   0012B4  0E01               	movlw	1
  2656   0012B6  6F61               	movwf	___flmul@aexp& (0+255),b
  2657   0012B8  EF67  F009         	goto	l1551
  2658   0012BC                     l1552:
  2659                           
  2660                           ; BSR set to: 0
  2661   0012BC  A167               	btfss	___flmul@prod& (0+255),0,b
  2662   0012BE  EF63  F009         	goto	u5231
  2663   0012C2  EF65  F009         	goto	u5230
  2664   0012C6                     u5231:
  2665   0012C6  EF67  F009         	goto	l1551
  2666   0012CA                     u5230:
  2667   0012CA  EF5A  F009         	goto	l6474
  2668   0012CE                     l1551:
  2669                           
  2670                           ; BSR set to: 0
  2671   0012CE  5161               	movf	___flmul@aexp& (0+255),w,b
  2672   0012D0  B4D8               	btfsc	status,2,c
  2673   0012D2  EF6D  F009         	goto	u5241
  2674   0012D6  EF6F  F009         	goto	u5240
  2675   0012DA                     u5241:
  2676   0012DA  EF93  F009         	goto	l6486
  2677   0012DE                     u5240:
  2678   0012DE                     
  2679                           ; BSR set to: 0
  2680   0012DE  0E01               	movlw	1
  2681   0012E0  2767               	addwf	___flmul@prod& (0+255),f,b
  2682   0012E2  0E00               	movlw	0
  2683   0012E4  2368               	addwfc	(___flmul@prod+1)& (0+255),f,b
  2684   0012E6  2369               	addwfc	(___flmul@prod+2)& (0+255),f,b
  2685   0012E8  236A               	addwfc	(___flmul@prod+3)& (0+255),f,b
  2686   0012EA                     
  2687                           ; BSR set to: 0
  2688   0012EA  A16A               	btfss	(___flmul@prod+3)& (0+255),0,b
  2689   0012EC  EF7A  F009         	goto	u5251
  2690   0012F0  EF7C  F009         	goto	u5250
  2691   0012F4                     u5251:
  2692   0012F4  EF93  F009         	goto	l6486
  2693   0012F8                     u5250:
  2694   0012F8                     
  2695                           ; BSR set to: 0
  2696   0012F8  C067  F022         	movff	___flmul@prod,??___flmul
  2697   0012FC  C068  F023         	movff	___flmul@prod+1,??___flmul+1
  2698   001300  C069  F024         	movff	___flmul@prod+2,??___flmul+2
  2699   001304  C06A  F025         	movff	___flmul@prod+3,??___flmul+3
  2700   001308  3425               	rlcf	(??___flmul+3)^0,w,c
  2701   00130A  3225               	rrcf	(??___flmul+3)^0,f,c
  2702   00130C  3224               	rrcf	(??___flmul+2)^0,f,c
  2703   00130E  3223               	rrcf	(??___flmul+1)^0,f,c
  2704   001310  3222               	rrcf	??___flmul^0,f,c
  2705   001312  C022  F067         	movff	??___flmul,___flmul@prod
  2706   001316  C023  F068         	movff	??___flmul+1,___flmul@prod+1
  2707   00131A  C024  F069         	movff	??___flmul+2,___flmul@prod+2
  2708   00131E  C025  F06A         	movff	??___flmul+3,___flmul@prod+3
  2709   001322                     
  2710                           ; BSR set to: 0
  2711   001322  4B6B               	infsnz	___flmul@temp& (0+255),f,b
  2712   001324  2B6C               	incf	(___flmul@temp+1)& (0+255),f,b
  2713   001326                     l6486:
  2714                           
  2715                           ; BSR set to: 0
  2716   001326  BF6C               	btfsc	(___flmul@temp+1)& (0+255),7,b
  2717   001328  EF9E  F009         	goto	u5261
  2718   00132C  516C               	movf	(___flmul@temp+1)& (0+255),w,b
  2719   00132E  E108               	bnz	u5260
  2720   001330  296B               	incf	___flmul@temp& (0+255),w,b
  2721   001332  A0D8               	btfss	status,0,c
  2722   001334  EF9E  F009         	goto	u5261
  2723   001338  EFA0  F009         	goto	u5260
  2724   00133C                     u5261:
  2725   00133C  EFAA  F009         	goto	l6490
  2726   001340                     u5260:
  2727   001340                     
  2728                           ; BSR set to: 0
  2729   001340  0E00               	movlw	0
  2730   001342  6F67               	movwf	___flmul@prod& (0+255),b
  2731   001344  0E00               	movlw	0
  2732   001346  6F68               	movwf	(___flmul@prod+1)& (0+255),b
  2733   001348  0E80               	movlw	128
  2734   00134A  6F69               	movwf	(___flmul@prod+2)& (0+255),b
  2735   00134C  0E7F               	movlw	127
  2736   00134E  6F6A               	movwf	(___flmul@prod+3)& (0+255),b
  2737   001350  EFD8  F009         	goto	l6502
  2738   001354                     l6490:
  2739                           
  2740                           ; BSR set to: 0
  2741   001354  BF6C               	btfsc	(___flmul@temp+1)& (0+255),7,b
  2742   001356  EFB7  F009         	goto	u5270
  2743   00135A  516C               	movf	(___flmul@temp+1)& (0+255),w,b
  2744   00135C  E106               	bnz	u5271
  2745   00135E  056B               	decf	___flmul@temp& (0+255),w,b
  2746   001360  B0D8               	btfsc	status,0,c
  2747   001362  EFB5  F009         	goto	u5271
  2748   001366  EFB7  F009         	goto	u5270
  2749   00136A                     u5271:
  2750   00136A  EFC3  F009         	goto	l1559
  2751   00136E                     u5270:
  2752   00136E                     
  2753                           ; BSR set to: 0
  2754   00136E  0E00               	movlw	0
  2755   001370  6F67               	movwf	___flmul@prod& (0+255),b
  2756   001372  0E00               	movlw	0
  2757   001374  6F68               	movwf	(___flmul@prod+1)& (0+255),b
  2758   001376  0E00               	movlw	0
  2759   001378  6F69               	movwf	(___flmul@prod+2)& (0+255),b
  2760   00137A  0E00               	movlw	0
  2761   00137C  6F6A               	movwf	(___flmul@prod+3)& (0+255),b
  2762   00137E  0E00               	movlw	0
  2763   001380  6F60               	movwf	___flmul@sign& (0+255),b
  2764   001382  EFD8  F009         	goto	l6502
  2765   001386                     l1559:
  2766                           
  2767                           ; BSR set to: 0
  2768   001386  C06B  F066         	movff	___flmul@temp,___flmul@bexp
  2769   00138A                     
  2770                           ; BSR set to: 0
  2771   00138A  0EFF               	movlw	255
  2772   00138C  1767               	andwf	___flmul@prod& (0+255),f,b
  2773   00138E  0EFF               	movlw	255
  2774   001390  1768               	andwf	(___flmul@prod+1)& (0+255),f,b
  2775   001392  0E7F               	movlw	127
  2776   001394  1769               	andwf	(___flmul@prod+2)& (0+255),f,b
  2777   001396  0E00               	movlw	0
  2778   001398  176A               	andwf	(___flmul@prod+3)& (0+255),f,b
  2779   00139A                     
  2780                           ; BSR set to: 0
  2781   00139A  A166               	btfss	___flmul@bexp& (0+255),0,b
  2782   00139C  EFD2  F009         	goto	u5281
  2783   0013A0  EFD4  F009         	goto	u5280
  2784   0013A4                     u5281:
  2785   0013A4  EFD5  F009         	goto	l6500
  2786   0013A8                     u5280:
  2787   0013A8                     
  2788                           ; BSR set to: 0
  2789   0013A8  8F69               	bsf	(___flmul@prod+2)& (0+255),7,b
  2790   0013AA                     l6500:
  2791                           
  2792                           ; BSR set to: 0
  2793   0013AA  90D8               	bcf	status,0,c
  2794   0013AC  3166               	rrcf	___flmul@bexp& (0+255),w,b
  2795   0013AE  6F6A               	movwf	(___flmul@prod+3)& (0+255),b
  2796   0013B0                     l6502:
  2797                           
  2798                           ; BSR set to: 0
  2799   0013B0  5160               	movf	___flmul@sign& (0+255),w,b
  2800   0013B2  136A               	iorwf	(___flmul@prod+3)& (0+255),f,b
  2801   0013B4                     
  2802                           ; BSR set to: 0
  2803   0013B4  C067  F01A         	movff	___flmul@prod,?___flmul
  2804   0013B8  C068  F01B         	movff	___flmul@prod+1,?___flmul+1
  2805   0013BC  C069  F01C         	movff	___flmul@prod+2,?___flmul+2
  2806   0013C0  C06A  F01D         	movff	___flmul@prod+3,?___flmul+3
  2807   0013C4                     l1546:
  2808                           
  2809                           ; BSR set to: 0
  2810   0013C4  0012               	return		;funcret
  2811   0013C6                     __end_of___flmul:
  2812                           	callstack 0
  2813                           
  2814 ;; *************** function ___fldiv *****************
  2815 ;; Defined at:
  2816 ;;		line 11 in file "C:\Program Files\Microchip\xc8\v2.40\pic\sources\c99\common\sprcdiv.c"
  2817 ;; Parameters:    Size  Location     Type
  2818 ;;  b               4   13[BANK0 ] unsigned char 
  2819 ;;  a               4   17[BANK0 ] unsigned char 
  2820 ;; Auto vars:     Size  Location     Type
  2821 ;;  grs             4   28[BANK0 ] unsigned long 
  2822 ;;  rem             4   21[BANK0 ] unsigned long 
  2823 ;;  new_exp         2   26[BANK0 ] short 
  2824 ;;  aexp            1   33[BANK0 ] unsigned char 
  2825 ;;  bexp            1   32[BANK0 ] unsigned char 
  2826 ;;  sign            1   25[BANK0 ] unsigned char 
  2827 ;; Return value:  Size  Location     Type
  2828 ;;                  4   13[BANK0 ] unsigned char 
  2829 ;; Registers used:
  2830 ;;		wreg, status,2, status,0
  2831 ;; Tracked objects:
  2832 ;;		On entry : 0/0
  2833 ;;		On exit  : 0/0
  2834 ;;		Unchanged: 0/0
  2835 ;; Data sizes:     COMRAM   BANK0   BANK1   BANK2   BANK3   BANK4   BANK5   BANK6   BANK7   BANK8   BANK9  BANK10  BANK1
      +1  BANK12  BANK13  BANK14
  2836 ;;      Params:         0       8       0       0       0       0       0       0       0       0       0       0       
      +0       0       0       0
  2837 ;;      Locals:         0      13       0       0       0       0       0       0       0       0       0       0       
      +0       0       0       0
  2838 ;;      Temps:          4       0       0       0       0       0       0       0       0       0       0       0       
      +0       0       0       0
  2839 ;;      Totals:         4      21       0       0       0       0       0       0       0       0       0       0       
      +0       0       0       0
  2840 ;;Total ram usage:       25 bytes
  2841 ;; Hardware stack levels used: 1
  2842 ;; Hardware stack levels required when called: 7
  2843 ;; This function calls:
  2844 ;;		Nothing
  2845 ;; This function is called by:
  2846 ;;		_windSpeedCalc
  2847 ;;		_t_update
  2848 ;; This function uses a non-reentrant model
  2849 ;;
  2850                           
  2851                           	psect	text8
  2852   0017DE                     __ptext8:
  2853                           	callstack 0
  2854   0017DE                     ___fldiv:
  2855                           	callstack 22
  2856   0017DE  0100               	movlb	0	; () banked
  2857   0017E0  5170               	movf	(___fldiv@b+3)& (0+255),w,b
  2858   0017E2  0B80               	andlw	128
  2859   0017E4  6F79               	movwf	___fldiv@sign& (0+255),b
  2860   0017E6  5170               	movf	(___fldiv@b+3)& (0+255),w,b
  2861   0017E8  2570               	addwf	(___fldiv@b+3)& (0+255),w,b
  2862   0017EA  6F80               	movwf	___fldiv@bexp& (0+255),b
  2863   0017EC                     
  2864                           ; BSR set to: 0
  2865   0017EC  AF6F               	btfss	(___fldiv@b+2)& (0+255),7,b
  2866   0017EE  EFFB  F00B         	goto	u4871
  2867   0017F2  EFFD  F00B         	goto	u4870
  2868   0017F6                     u4871:
  2869   0017F6  EFFE  F00B         	goto	l6246
  2870   0017FA                     u4870:
  2871   0017FA                     
  2872                           ; BSR set to: 0
  2873   0017FA  8180               	bsf	___fldiv@bexp& (0+255),0,b
  2874   0017FC                     l6246:
  2875                           
  2876                           ; BSR set to: 0
  2877   0017FC  5180               	movf	___fldiv@bexp& (0+255),w,b
  2878   0017FE  B4D8               	btfsc	status,2,c
  2879   001800  EF04  F00C         	goto	u4881
  2880   001804  EF06  F00C         	goto	u4880
  2881   001808                     u4881:
  2882   001808  EF1B  F00C         	goto	l6256
  2883   00180C                     u4880:
  2884   00180C                     
  2885                           ; BSR set to: 0
  2886   00180C  2980               	incf	___fldiv@bexp& (0+255),w,b
  2887   00180E  A4D8               	btfss	status,2,c
  2888   001810  EF0C  F00C         	goto	u4891
  2889   001814  EF0E  F00C         	goto	u4890
  2890   001818                     u4891:
  2891   001818  EF16  F00C         	goto	l6252
  2892   00181C                     u4890:
  2893   00181C                     
  2894                           ; BSR set to: 0
  2895   00181C  0E00               	movlw	0
  2896   00181E  6F6D               	movwf	___fldiv@b& (0+255),b
  2897   001820  0E00               	movlw	0
  2898   001822  6F6E               	movwf	(___fldiv@b+1)& (0+255),b
  2899   001824  0E00               	movlw	0
  2900   001826  6F6F               	movwf	(___fldiv@b+2)& (0+255),b
  2901   001828  0E00               	movlw	0
  2902   00182A  6F70               	movwf	(___fldiv@b+3)& (0+255),b
  2903   00182C                     l6252:
  2904                           
  2905                           ; BSR set to: 0
  2906   00182C  8F6F               	bsf	(___fldiv@b+2)& (0+255),7,b
  2907   00182E                     
  2908                           ; BSR set to: 0
  2909   00182E  0E00               	movlw	0
  2910   001830  6F70               	movwf	(___fldiv@b+3)& (0+255),b
  2911   001832  EF23  F00C         	goto	l6258
  2912   001836                     l6256:
  2913                           
  2914                           ; BSR set to: 0
  2915   001836  0E00               	movlw	0
  2916   001838  6F6D               	movwf	___fldiv@b& (0+255),b
  2917   00183A  0E00               	movlw	0
  2918   00183C  6F6E               	movwf	(___fldiv@b+1)& (0+255),b
  2919   00183E  0E00               	movlw	0
  2920   001840  6F6F               	movwf	(___fldiv@b+2)& (0+255),b
  2921   001842  0E00               	movlw	0
  2922   001844  6F70               	movwf	(___fldiv@b+3)& (0+255),b
  2923   001846                     l6258:
  2924                           
  2925                           ; BSR set to: 0
  2926   001846  5174               	movf	(___fldiv@a+3)& (0+255),w,b
  2927   001848  0B80               	andlw	128
  2928   00184A  1B79               	xorwf	___fldiv@sign& (0+255),f,b
  2929   00184C                     
  2930                           ; BSR set to: 0
  2931   00184C  5174               	movf	(___fldiv@a+3)& (0+255),w,b
  2932   00184E  2574               	addwf	(___fldiv@a+3)& (0+255),w,b
  2933   001850  6F81               	movwf	___fldiv@aexp& (0+255),b
  2934   001852                     
  2935                           ; BSR set to: 0
  2936   001852  AF73               	btfss	(___fldiv@a+2)& (0+255),7,b
  2937   001854  EF2E  F00C         	goto	u4901
  2938   001858  EF30  F00C         	goto	u4900
  2939   00185C                     u4901:
  2940   00185C  EF31  F00C         	goto	l6266
  2941   001860                     u4900:
  2942   001860                     
  2943                           ; BSR set to: 0
  2944   001860  8181               	bsf	___fldiv@aexp& (0+255),0,b
  2945   001862                     l6266:
  2946                           
  2947                           ; BSR set to: 0
  2948   001862  5181               	movf	___fldiv@aexp& (0+255),w,b
  2949   001864  B4D8               	btfsc	status,2,c
  2950   001866  EF37  F00C         	goto	u4911
  2951   00186A  EF39  F00C         	goto	u4910
  2952   00186E                     u4911:
  2953   00186E  EF4E  F00C         	goto	l6276
  2954   001872                     u4910:
  2955   001872                     
  2956                           ; BSR set to: 0
  2957   001872  2981               	incf	___fldiv@aexp& (0+255),w,b
  2958   001874  A4D8               	btfss	status,2,c
  2959   001876  EF3F  F00C         	goto	u4921
  2960   00187A  EF41  F00C         	goto	u4920
  2961   00187E                     u4921:
  2962   00187E  EF49  F00C         	goto	l6272
  2963   001882                     u4920:
  2964   001882                     
  2965                           ; BSR set to: 0
  2966   001882  0E00               	movlw	0
  2967   001884  6F71               	movwf	___fldiv@a& (0+255),b
  2968   001886  0E00               	movlw	0
  2969   001888  6F72               	movwf	(___fldiv@a+1)& (0+255),b
  2970   00188A  0E00               	movlw	0
  2971   00188C  6F73               	movwf	(___fldiv@a+2)& (0+255),b
  2972   00188E  0E00               	movlw	0
  2973   001890  6F74               	movwf	(___fldiv@a+3)& (0+255),b
  2974   001892                     l6272:
  2975                           
  2976                           ; BSR set to: 0
  2977   001892  8F73               	bsf	(___fldiv@a+2)& (0+255),7,b
  2978   001894                     
  2979                           ; BSR set to: 0
  2980   001894  0E00               	movlw	0
  2981   001896  6F74               	movwf	(___fldiv@a+3)& (0+255),b
  2982   001898  EF56  F00C         	goto	l6278
  2983   00189C                     l6276:
  2984                           
  2985                           ; BSR set to: 0
  2986   00189C  0E00               	movlw	0
  2987   00189E  6F71               	movwf	___fldiv@a& (0+255),b
  2988   0018A0  0E00               	movlw	0
  2989   0018A2  6F72               	movwf	(___fldiv@a+1)& (0+255),b
  2990   0018A4  0E00               	movlw	0
  2991   0018A6  6F73               	movwf	(___fldiv@a+2)& (0+255),b
  2992   0018A8  0E00               	movlw	0
  2993   0018AA  6F74               	movwf	(___fldiv@a+3)& (0+255),b
  2994   0018AC                     l6278:
  2995                           
  2996                           ; BSR set to: 0
  2997   0018AC  5171               	movf	___fldiv@a& (0+255),w,b
  2998   0018AE  1172               	iorwf	(___fldiv@a+1)& (0+255),w,b
  2999   0018B0  1173               	iorwf	(___fldiv@a+2)& (0+255),w,b
  3000   0018B2  1174               	iorwf	(___fldiv@a+3)& (0+255),w,b
  3001   0018B4  A4D8               	btfss	status,2,c
  3002   0018B6  EF5F  F00C         	goto	u4931
  3003   0018BA  EF61  F00C         	goto	u4930
  3004   0018BE                     u4931:
  3005   0018BE  EF79  F00C         	goto	l6290
  3006   0018C2                     u4930:
  3007   0018C2                     
  3008                           ; BSR set to: 0
  3009   0018C2  0E00               	movlw	0
  3010   0018C4  6F6D               	movwf	___fldiv@b& (0+255),b
  3011   0018C6  0E00               	movlw	0
  3012   0018C8  6F6E               	movwf	(___fldiv@b+1)& (0+255),b
  3013   0018CA  0E00               	movlw	0
  3014   0018CC  6F6F               	movwf	(___fldiv@b+2)& (0+255),b
  3015   0018CE  0E00               	movlw	0
  3016   0018D0  6F70               	movwf	(___fldiv@b+3)& (0+255),b
  3017   0018D2                     
  3018                           ; BSR set to: 0
  3019   0018D2  0E80               	movlw	128
  3020   0018D4  136F               	iorwf	(___fldiv@b+2)& (0+255),f,b
  3021   0018D6  0E7F               	movlw	127
  3022   0018D8  1370               	iorwf	(___fldiv@b+3)& (0+255),f,b
  3023   0018DA                     l6284:
  3024                           
  3025                           ; BSR set to: 0
  3026   0018DA  5179               	movf	___fldiv@sign& (0+255),w,b
  3027   0018DC  1370               	iorwf	(___fldiv@b+3)& (0+255),f,b
  3028   0018DE                     
  3029                           ; BSR set to: 0
  3030   0018DE  C06D  F06D         	movff	___fldiv@b,?___fldiv
  3031   0018E2  C06E  F06E         	movff	___fldiv@b+1,?___fldiv+1
  3032   0018E6  C06F  F06F         	movff	___fldiv@b+2,?___fldiv+2
  3033   0018EA  C070  F070         	movff	___fldiv@b+3,?___fldiv+3
  3034   0018EE  EFBC  F00D         	goto	l1510
  3035   0018F2                     l6290:
  3036                           
  3037                           ; BSR set to: 0
  3038   0018F2  5180               	movf	___fldiv@bexp& (0+255),w,b
  3039   0018F4  A4D8               	btfss	status,2,c
  3040   0018F6  EF7F  F00C         	goto	u4941
  3041   0018FA  EF81  F00C         	goto	u4940
  3042   0018FE                     u4941:
  3043   0018FE  EF8B  F00C         	goto	l6298
  3044   001902                     u4940:
  3045   001902                     
  3046                           ; BSR set to: 0
  3047   001902  0E00               	movlw	0
  3048   001904  6F6D               	movwf	?___fldiv& (0+255),b
  3049   001906  0E00               	movlw	0
  3050   001908  6F6E               	movwf	(?___fldiv+1)& (0+255),b
  3051   00190A  0E00               	movlw	0
  3052   00190C  6F6F               	movwf	(?___fldiv+2)& (0+255),b
  3053   00190E  0E00               	movlw	0
  3054   001910  6F70               	movwf	(?___fldiv+3)& (0+255),b
  3055   001912  EFBC  F00D         	goto	l1510
  3056   001916                     l6298:
  3057                           
  3058                           ; BSR set to: 0
  3059   001916  5181               	movf	___fldiv@aexp& (0+255),w,b
  3060   001918  C080  F026         	movff	___fldiv@bexp,??___fldiv
  3061   00191C  6A27               	clrf	(??___fldiv+1)^0,c
  3062   00191E  5E26               	subwf	??___fldiv^0,f,c
  3063   001920  0E00               	movlw	0
  3064   001922  5A27               	subwfb	(??___fldiv+1)^0,f,c
  3065   001924  0E7F               	movlw	127
  3066   001926  2426               	addwf	??___fldiv^0,w,c
  3067   001928  6F7A               	movwf	___fldiv@new_exp& (0+255),b
  3068   00192A  0E00               	movlw	0
  3069   00192C  2027               	addwfc	(??___fldiv+1)^0,w,c
  3070   00192E  6F7B               	movwf	(___fldiv@new_exp+1)& (0+255),b
  3071   001930                     
  3072                           ; BSR set to: 0
  3073   001930  C06D  F075         	movff	___fldiv@b,___fldiv@rem
  3074   001934  C06E  F076         	movff	___fldiv@b+1,___fldiv@rem+1
  3075   001938  C06F  F077         	movff	___fldiv@b+2,___fldiv@rem+2
  3076   00193C  C070  F078         	movff	___fldiv@b+3,___fldiv@rem+3
  3077   001940                     
  3078                           ; BSR set to: 0
  3079   001940  0E00               	movlw	0
  3080   001942  6F6D               	movwf	___fldiv@b& (0+255),b
  3081   001944  0E00               	movlw	0
  3082   001946  6F6E               	movwf	(___fldiv@b+1)& (0+255),b
  3083   001948  0E00               	movlw	0
  3084   00194A  6F6F               	movwf	(___fldiv@b+2)& (0+255),b
  3085   00194C  0E00               	movlw	0
  3086   00194E  6F70               	movwf	(___fldiv@b+3)& (0+255),b
  3087   001950                     
  3088                           ; BSR set to: 0
  3089   001950  0E00               	movlw	0
  3090   001952  6F7C               	movwf	___fldiv@grs& (0+255),b
  3091   001954  0E00               	movlw	0
  3092   001956  6F7D               	movwf	(___fldiv@grs+1)& (0+255),b
  3093   001958  0E00               	movlw	0
  3094   00195A  6F7E               	movwf	(___fldiv@grs+2)& (0+255),b
  3095   00195C  0E00               	movlw	0
  3096   00195E  6F7F               	movwf	(___fldiv@grs+3)& (0+255),b
  3097   001960                     
  3098                           ; BSR set to: 0
  3099   001960  0E00               	movlw	0
  3100   001962  6F81               	movwf	___fldiv@aexp& (0+255),b
  3101   001964  EFEC  F00C         	goto	l1512
  3102   001968                     l6308:
  3103                           
  3104                           ; BSR set to: 0
  3105   001968  5181               	movf	___fldiv@aexp& (0+255),w,b
  3106   00196A  B4D8               	btfsc	status,2,c
  3107   00196C  EFBA  F00C         	goto	u4951
  3108   001970  EFBC  F00C         	goto	u4950
  3109   001974                     u4951:
  3110   001974  EFD3  F00C         	goto	l6316
  3111   001978                     u4950:
  3112   001978                     
  3113                           ; BSR set to: 0
  3114   001978  90D8               	bcf	status,0,c
  3115   00197A  3775               	rlcf	___fldiv@rem& (0+255),f,b
  3116   00197C  3776               	rlcf	(___fldiv@rem+1)& (0+255),f,b
  3117   00197E  3777               	rlcf	(___fldiv@rem+2)& (0+255),f,b
  3118   001980  3778               	rlcf	(___fldiv@rem+3)& (0+255),f,b
  3119   001982  90D8               	bcf	status,0,c
  3120   001984  376D               	rlcf	___fldiv@b& (0+255),f,b
  3121   001986  376E               	rlcf	(___fldiv@b+1)& (0+255),f,b
  3122   001988  376F               	rlcf	(___fldiv@b+2)& (0+255),f,b
  3123   00198A  3770               	rlcf	(___fldiv@b+3)& (0+255),f,b
  3124   00198C                     
  3125                           ; BSR set to: 0
  3126   00198C  AF7F               	btfss	(___fldiv@grs+3)& (0+255),7,b
  3127   00198E  EFCB  F00C         	goto	u4961
  3128   001992  EFCD  F00C         	goto	u4960
  3129   001996                     u4961:
  3130   001996  EFCE  F00C         	goto	l1515
  3131   00199A                     u4960:
  3132   00199A                     
  3133                           ; BSR set to: 0
  3134   00199A  816D               	bsf	___fldiv@b& (0+255),0,b
  3135   00199C                     l1515:
  3136                           
  3137                           ; BSR set to: 0
  3138   00199C  90D8               	bcf	status,0,c
  3139   00199E  377C               	rlcf	___fldiv@grs& (0+255),f,b
  3140   0019A0  377D               	rlcf	(___fldiv@grs+1)& (0+255),f,b
  3141   0019A2  377E               	rlcf	(___fldiv@grs+2)& (0+255),f,b
  3142   0019A4  377F               	rlcf	(___fldiv@grs+3)& (0+255),f,b
  3143   0019A6                     l6316:
  3144                           
  3145                           ; BSR set to: 0
  3146   0019A6  5171               	movf	___fldiv@a& (0+255),w,b
  3147   0019A8  5D75               	subwf	___fldiv@rem& (0+255),w,b
  3148   0019AA  5172               	movf	(___fldiv@a+1)& (0+255),w,b
  3149   0019AC  5976               	subwfb	(___fldiv@rem+1)& (0+255),w,b
  3150   0019AE  5173               	movf	(___fldiv@a+2)& (0+255),w,b
  3151   0019B0  5977               	subwfb	(___fldiv@rem+2)& (0+255),w,b
  3152   0019B2  5174               	movf	(___fldiv@a+3)& (0+255),w,b
  3153   0019B4  5978               	subwfb	(___fldiv@rem+3)& (0+255),w,b
  3154   0019B6  A0D8               	btfss	status,0,c
  3155   0019B8  EFE0  F00C         	goto	u4971
  3156   0019BC  EFE2  F00C         	goto	u4970
  3157   0019C0                     u4971:
  3158   0019C0  EFEB  F00C         	goto	l6322
  3159   0019C4                     u4970:
  3160   0019C4                     
  3161                           ; BSR set to: 0
  3162   0019C4  8D7F               	bsf	(___fldiv@grs+3)& (0+255),6,b
  3163   0019C6                     
  3164                           ; BSR set to: 0
  3165   0019C6  5171               	movf	___fldiv@a& (0+255),w,b
  3166   0019C8  5F75               	subwf	___fldiv@rem& (0+255),f,b
  3167   0019CA  5172               	movf	(___fldiv@a+1)& (0+255),w,b
  3168   0019CC  5B76               	subwfb	(___fldiv@rem+1)& (0+255),f,b
  3169   0019CE  5173               	movf	(___fldiv@a+2)& (0+255),w,b
  3170   0019D0  5B77               	subwfb	(___fldiv@rem+2)& (0+255),f,b
  3171   0019D2  5174               	movf	(___fldiv@a+3)& (0+255),w,b
  3172   0019D4  5B78               	subwfb	(___fldiv@rem+3)& (0+255),f,b
  3173   0019D6                     l6322:
  3174                           
  3175                           ; BSR set to: 0
  3176   0019D6  2B81               	incf	___fldiv@aexp& (0+255),f,b
  3177   0019D8                     l1512:
  3178                           
  3179                           ; BSR set to: 0
  3180   0019D8  0E19               	movlw	25
  3181   0019DA  6581               	cpfsgt	___fldiv@aexp& (0+255),b
  3182   0019DC  EFF2  F00C         	goto	u4981
  3183   0019E0  EFF4  F00C         	goto	u4980
  3184   0019E4                     u4981:
  3185   0019E4  EFB4  F00C         	goto	l6308
  3186   0019E8                     u4980:
  3187   0019E8                     
  3188                           ; BSR set to: 0
  3189   0019E8  5175               	movf	___fldiv@rem& (0+255),w,b
  3190   0019EA  1176               	iorwf	(___fldiv@rem+1)& (0+255),w,b
  3191   0019EC  1177               	iorwf	(___fldiv@rem+2)& (0+255),w,b
  3192   0019EE  1178               	iorwf	(___fldiv@rem+3)& (0+255),w,b
  3193   0019F0  B4D8               	btfsc	status,2,c
  3194   0019F2  EFFD  F00C         	goto	u4991
  3195   0019F6  EFFF  F00C         	goto	u4990
  3196   0019FA                     u4991:
  3197   0019FA  EF17  F00D         	goto	l6334
  3198   0019FE                     u4990:
  3199   0019FE                     
  3200                           ; BSR set to: 0
  3201   0019FE  817C               	bsf	___fldiv@grs& (0+255),0,b
  3202   001A00  EF17  F00D         	goto	l6334
  3203   001A04                     l6328:
  3204                           
  3205                           ; BSR set to: 0
  3206   001A04  90D8               	bcf	status,0,c
  3207   001A06  376D               	rlcf	___fldiv@b& (0+255),f,b
  3208   001A08  376E               	rlcf	(___fldiv@b+1)& (0+255),f,b
  3209   001A0A  376F               	rlcf	(___fldiv@b+2)& (0+255),f,b
  3210   001A0C  3770               	rlcf	(___fldiv@b+3)& (0+255),f,b
  3211   001A0E                     
  3212                           ; BSR set to: 0
  3213   001A0E  AF7F               	btfss	(___fldiv@grs+3)& (0+255),7,b
  3214   001A10  EF0C  F00D         	goto	u5001
  3215   001A14  EF0E  F00D         	goto	u5000
  3216   001A18                     u5001:
  3217   001A18  EF0F  F00D         	goto	l1521
  3218   001A1C                     u5000:
  3219   001A1C                     
  3220                           ; BSR set to: 0
  3221   001A1C  816D               	bsf	___fldiv@b& (0+255),0,b
  3222   001A1E                     l1521:
  3223                           
  3224                           ; BSR set to: 0
  3225   001A1E  90D8               	bcf	status,0,c
  3226   001A20  377C               	rlcf	___fldiv@grs& (0+255),f,b
  3227   001A22  377D               	rlcf	(___fldiv@grs+1)& (0+255),f,b
  3228   001A24  377E               	rlcf	(___fldiv@grs+2)& (0+255),f,b
  3229   001A26  377F               	rlcf	(___fldiv@grs+3)& (0+255),f,b
  3230   001A28  077A               	decf	___fldiv@new_exp& (0+255),f,b
  3231   001A2A  A0D8               	btfss	status,0,c
  3232   001A2C  077B               	decf	(___fldiv@new_exp+1)& (0+255),f,b
  3233   001A2E                     l6334:
  3234                           
  3235                           ; BSR set to: 0
  3236   001A2E  AF6F               	btfss	(___fldiv@b+2)& (0+255),7,b
  3237   001A30  EF1C  F00D         	goto	u5011
  3238   001A34  EF1E  F00D         	goto	u5010
  3239   001A38                     u5011:
  3240   001A38  EF02  F00D         	goto	l6328
  3241   001A3C                     u5010:
  3242   001A3C                     
  3243                           ; BSR set to: 0
  3244   001A3C  0E00               	movlw	0
  3245   001A3E  6F81               	movwf	___fldiv@aexp& (0+255),b
  3246   001A40                     
  3247                           ; BSR set to: 0
  3248   001A40  AF7F               	btfss	(___fldiv@grs+3)& (0+255),7,b
  3249   001A42  EF25  F00D         	goto	u5021
  3250   001A46  EF27  F00D         	goto	u5020
  3251   001A4A                     u5021:
  3252   001A4A  EF4B  F00D         	goto	l1523
  3253   001A4E                     u5020:
  3254   001A4E                     
  3255                           ; BSR set to: 0
  3256   001A4E  0EFF               	movlw	255
  3257   001A50  157C               	andwf	___fldiv@grs& (0+255),w,b
  3258   001A52  6E26               	movwf	??___fldiv^0,c
  3259   001A54  0EFF               	movlw	255
  3260   001A56  157D               	andwf	(___fldiv@grs+1)& (0+255),w,b
  3261   001A58  6E27               	movwf	(??___fldiv+1)^0,c
  3262   001A5A  0EFF               	movlw	255
  3263   001A5C  157E               	andwf	(___fldiv@grs+2)& (0+255),w,b
  3264   001A5E  6E28               	movwf	(??___fldiv+2)^0,c
  3265   001A60  0E7F               	movlw	127
  3266   001A62  157F               	andwf	(___fldiv@grs+3)& (0+255),w,b
  3267   001A64  6E29               	movwf	(??___fldiv+3)^0,c
  3268   001A66  5026               	movf	??___fldiv^0,w,c
  3269   001A68  1027               	iorwf	(??___fldiv+1)^0,w,c
  3270   001A6A  1028               	iorwf	(??___fldiv+2)^0,w,c
  3271   001A6C  1029               	iorwf	(??___fldiv+3)^0,w,c
  3272   001A6E  B4D8               	btfsc	status,2,c
  3273   001A70  EF3C  F00D         	goto	u5031
  3274   001A74  EF3E  F00D         	goto	u5030
  3275   001A78                     u5031:
  3276   001A78  EF42  F00D         	goto	l1524
  3277   001A7C                     u5030:
  3278   001A7C                     l6342:
  3279                           
  3280                           ; BSR set to: 0
  3281   001A7C  0E01               	movlw	1
  3282   001A7E  6F81               	movwf	___fldiv@aexp& (0+255),b
  3283   001A80  EF4B  F00D         	goto	l1523
  3284   001A84                     l1524:
  3285                           
  3286                           ; BSR set to: 0
  3287   001A84  A16D               	btfss	___fldiv@b& (0+255),0,b
  3288   001A86  EF47  F00D         	goto	u5041
  3289   001A8A  EF49  F00D         	goto	u5040
  3290   001A8E                     u5041:
  3291   001A8E  EF4B  F00D         	goto	l1523
  3292   001A92                     u5040:
  3293   001A92  EF3E  F00D         	goto	l6342
  3294   001A96                     l1523:
  3295                           
  3296                           ; BSR set to: 0
  3297   001A96  5181               	movf	___fldiv@aexp& (0+255),w,b
  3298   001A98  B4D8               	btfsc	status,2,c
  3299   001A9A  EF51  F00D         	goto	u5051
  3300   001A9E  EF53  F00D         	goto	u5050
  3301   001AA2                     u5051:
  3302   001AA2  EF77  F00D         	goto	l6354
  3303   001AA6                     u5050:
  3304   001AA6                     
  3305                           ; BSR set to: 0
  3306   001AA6  0E01               	movlw	1
  3307   001AA8  276D               	addwf	___fldiv@b& (0+255),f,b
  3308   001AAA  0E00               	movlw	0
  3309   001AAC  236E               	addwfc	(___fldiv@b+1)& (0+255),f,b
  3310   001AAE  236F               	addwfc	(___fldiv@b+2)& (0+255),f,b
  3311   001AB0  2370               	addwfc	(___fldiv@b+3)& (0+255),f,b
  3312   001AB2                     
  3313                           ; BSR set to: 0
  3314   001AB2  A170               	btfss	(___fldiv@b+3)& (0+255),0,b
  3315   001AB4  EF5E  F00D         	goto	u5061
  3316   001AB8  EF60  F00D         	goto	u5060
  3317   001ABC                     u5061:
  3318   001ABC  EF77  F00D         	goto	l6354
  3319   001AC0                     u5060:
  3320   001AC0                     
  3321                           ; BSR set to: 0
  3322   001AC0  C06D  F026         	movff	___fldiv@b,??___fldiv
  3323   001AC4  C06E  F027         	movff	___fldiv@b+1,??___fldiv+1
  3324   001AC8  C06F  F028         	movff	___fldiv@b+2,??___fldiv+2
  3325   001ACC  C070  F029         	movff	___fldiv@b+3,??___fldiv+3
  3326   001AD0  3429               	rlcf	(??___fldiv+3)^0,w,c
  3327   001AD2  3229               	rrcf	(??___fldiv+3)^0,f,c
  3328   001AD4  3228               	rrcf	(??___fldiv+2)^0,f,c
  3329   001AD6  3227               	rrcf	(??___fldiv+1)^0,f,c
  3330   001AD8  3226               	rrcf	??___fldiv^0,f,c
  3331   001ADA  C026  F06D         	movff	??___fldiv,___fldiv@b
  3332   001ADE  C027  F06E         	movff	??___fldiv+1,___fldiv@b+1
  3333   001AE2  C028  F06F         	movff	??___fldiv+2,___fldiv@b+2
  3334   001AE6  C029  F070         	movff	??___fldiv+3,___fldiv@b+3
  3335   001AEA                     
  3336                           ; BSR set to: 0
  3337   001AEA  4B7A               	infsnz	___fldiv@new_exp& (0+255),f,b
  3338   001AEC  2B7B               	incf	(___fldiv@new_exp+1)& (0+255),f,b
  3339   001AEE                     l6354:
  3340                           
  3341                           ; BSR set to: 0
  3342   001AEE  BF7B               	btfsc	(___fldiv@new_exp+1)& (0+255),7,b
  3343   001AF0  EF82  F00D         	goto	u5071
  3344   001AF4  517B               	movf	(___fldiv@new_exp+1)& (0+255),w,b
  3345   001AF6  E108               	bnz	u5070
  3346   001AF8  297A               	incf	___fldiv@new_exp& (0+255),w,b
  3347   001AFA  A0D8               	btfss	status,0,c
  3348   001AFC  EF82  F00D         	goto	u5071
  3349   001B00  EF84  F00D         	goto	u5070
  3350   001B04                     u5071:
  3351   001B04  EF8F  F00D         	goto	l6358
  3352   001B08                     u5070:
  3353   001B08                     
  3354                           ; BSR set to: 0
  3355   001B08  0E00               	movlw	0
  3356   001B0A  6F7B               	movwf	(___fldiv@new_exp+1)& (0+255),b
  3357   001B0C  697A               	setf	___fldiv@new_exp& (0+255),b
  3358   001B0E  0E00               	movlw	0
  3359   001B10  6F6D               	movwf	___fldiv@b& (0+255),b
  3360   001B12  0E00               	movlw	0
  3361   001B14  6F6E               	movwf	(___fldiv@b+1)& (0+255),b
  3362   001B16  0E00               	movlw	0
  3363   001B18  6F6F               	movwf	(___fldiv@b+2)& (0+255),b
  3364   001B1A  0E00               	movlw	0
  3365   001B1C  6F70               	movwf	(___fldiv@b+3)& (0+255),b
  3366   001B1E                     l6358:
  3367                           
  3368                           ; BSR set to: 0
  3369   001B1E  BF7B               	btfsc	(___fldiv@new_exp+1)& (0+255),7,b
  3370   001B20  EF9C  F00D         	goto	u5080
  3371   001B24  517B               	movf	(___fldiv@new_exp+1)& (0+255),w,b
  3372   001B26  E106               	bnz	u5081
  3373   001B28  057A               	decf	___fldiv@new_exp& (0+255),w,b
  3374   001B2A  B0D8               	btfsc	status,0,c
  3375   001B2C  EF9A  F00D         	goto	u5081
  3376   001B30  EF9C  F00D         	goto	u5080
  3377   001B34                     u5081:
  3378   001B34  EFAA  F00D         	goto	l6362
  3379   001B38                     u5080:
  3380   001B38                     
  3381                           ; BSR set to: 0
  3382   001B38  0E00               	movlw	0
  3383   001B3A  6F7B               	movwf	(___fldiv@new_exp+1)& (0+255),b
  3384   001B3C  0E00               	movlw	0
  3385   001B3E  6F7A               	movwf	___fldiv@new_exp& (0+255),b
  3386   001B40  0E00               	movlw	0
  3387   001B42  6F6D               	movwf	___fldiv@b& (0+255),b
  3388   001B44  0E00               	movlw	0
  3389   001B46  6F6E               	movwf	(___fldiv@b+1)& (0+255),b
  3390   001B48  0E00               	movlw	0
  3391   001B4A  6F6F               	movwf	(___fldiv@b+2)& (0+255),b
  3392   001B4C  0E00               	movlw	0
  3393   001B4E  6F70               	movwf	(___fldiv@b+3)& (0+255),b
  3394   001B50  0E00               	movlw	0
  3395   001B52  6F79               	movwf	___fldiv@sign& (0+255),b
  3396   001B54                     l6362:
  3397                           
  3398                           ; BSR set to: 0
  3399   001B54  C07A  F080         	movff	___fldiv@new_exp,___fldiv@bexp
  3400   001B58                     
  3401                           ; BSR set to: 0
  3402   001B58  A180               	btfss	___fldiv@bexp& (0+255),0,b
  3403   001B5A  EFB1  F00D         	goto	u5091
  3404   001B5E  EFB3  F00D         	goto	u5090
  3405   001B62                     u5091:
  3406   001B62  EFB6  F00D         	goto	l6368
  3407   001B66                     u5090:
  3408   001B66                     
  3409                           ; BSR set to: 0
  3410   001B66  8F6F               	bsf	(___fldiv@b+2)& (0+255),7,b
  3411   001B68  EFB7  F00D         	goto	l6370
  3412   001B6C                     l6368:
  3413                           
  3414                           ; BSR set to: 0
  3415   001B6C  9F6F               	bcf	(___fldiv@b+2)& (0+255),7,b
  3416   001B6E                     l6370:
  3417                           
  3418                           ; BSR set to: 0
  3419   001B6E  90D8               	bcf	status,0,c
  3420   001B70  3180               	rrcf	___fldiv@bexp& (0+255),w,b
  3421   001B72  6F70               	movwf	(___fldiv@b+3)& (0+255),b
  3422   001B74  EF6D  F00C         	goto	l6284
  3423   001B78                     l1510:
  3424                           
  3425                           ; BSR set to: 0
  3426   001B78  0012               	return		;funcret
  3427   001B7A                     __end_of___fldiv:
  3428                           	callstack 0
  3429                           
  3430 ;; *************** function _tempRead *****************
  3431 ;; Defined at:
  3432 ;;		line 4 in file "temp_sensor.c"
  3433 ;; Parameters:    Size  Location     Type
  3434 ;;		None
  3435 ;; Auto vars:     Size  Location     Type
  3436 ;;		None
  3437 ;; Return value:  Size  Location     Type
  3438 ;;                  1    wreg      unsigned char 
  3439 ;; Registers used:
  3440 ;;		wreg, fsr2l, fsr2h, status,2, status,0, prodl, prodh, cstack
  3441 ;; Tracked objects:
  3442 ;;		On entry : 0/0
  3443 ;;		On exit  : 0/0
  3444 ;;		Unchanged: 0/0
  3445 ;; Data sizes:     COMRAM   BANK0   BANK1   BANK2   BANK3   BANK4   BANK5   BANK6   BANK7   BANK8   BANK9  BANK10  BANK1
      +1  BANK12  BANK13  BANK14
  3446 ;;      Params:         0       0       0       0       0       0       0       0       0       0       0       0       
      +0       0       0       0
  3447 ;;      Locals:         0       0       0       0       0       0       0       0       0       0       0       0       
      +0       0       0       0
  3448 ;;      Temps:          0       0       0       0       0       0       0       0       0       0       0       0       
      +0       0       0       0
  3449 ;;      Totals:         0       0       0       0       0       0       0       0       0       0       0       0       
      +0       0       0       0
  3450 ;;Total ram usage:        0 bytes
  3451 ;; Hardware stack levels used: 1
  3452 ;; Hardware stack levels required when called: 11
  3453 ;; This function calls:
  3454 ;;		_I2C1_Read1ByteRegister
  3455 ;; This function is called by:
  3456 ;;		_main
  3457 ;; This function uses a non-reentrant model
  3458 ;;
  3459                           
  3460                           	psect	text9
  3461   003AA8                     __ptext9:
  3462                           	callstack 0
  3463   003AA8                     _tempRead:
  3464                           	callstack 19
  3465   003AA8                     
  3466                           ;temp_sensor.c: 5:     return I2C1_Read1ByteRegister(0x48, 0x00);
  3467   003AA8  0E00               	movlw	0
  3468   003AAA  6E23               	movwf	I2C1_Read1ByteRegister@reg^0,c
  3469   003AAC  0E48               	movlw	72
  3470   003AAE  ECBF  F018         	call	_I2C1_Read1ByteRegister
  3471   003AB2  0012               	return		;funcret
  3472   003AB4                     __end_of_tempRead:
  3473                           	callstack 0
  3474                           
  3475 ;; *************** function _system_init *****************
  3476 ;; Defined at:
  3477 ;;		line 34 in file "main.c"
  3478 ;; Parameters:    Size  Location     Type
  3479 ;;		None
  3480 ;; Auto vars:     Size  Location     Type
  3481 ;;		None
  3482 ;; Return value:  Size  Location     Type
  3483 ;;                  1    wreg      void 
  3484 ;; Registers used:
  3485 ;;		wreg, fsr2l, fsr2h, status,2, status,0, prodl, prodh, cstack
  3486 ;; Tracked objects:
  3487 ;;		On entry : 0/0
  3488 ;;		On exit  : 0/0
  3489 ;;		Unchanged: 0/0
  3490 ;; Data sizes:     COMRAM   BANK0   BANK1   BANK2   BANK3   BANK4   BANK5   BANK6   BANK7   BANK8   BANK9  BANK10  BANK1
      +1  BANK12  BANK13  BANK14
  3491 ;;      Params:         0       0       0       0       0       0       0       0       0       0       0       0       
      +0       0       0       0
  3492 ;;      Locals:         0       0       0       0       0       0       0       0       0       0       0       0       
      +0       0       0       0
  3493 ;;      Temps:          0       0       0       0       0       0       0       0       0       0       0       0       
      +0       0       0       0
  3494 ;;      Totals:         0       0       0       0       0       0       0       0       0       0       0       0       
      +0       0       0       0
  3495 ;;Total ram usage:        0 bytes
  3496 ;; Hardware stack levels used: 1
  3497 ;; Hardware stack levels required when called: 13
  3498 ;; This function calls:
  3499 ;;		_TMR2_StartTimer
  3500 ;;		_hallInit
  3501 ;;		_motorStop
  3502 ;; This function is called by:
  3503 ;;		_main
  3504 ;; This function uses a non-reentrant model
  3505 ;;
  3506                           
  3507                           	psect	text10
  3508   003A76                     __ptext10:
  3509                           	callstack 0
  3510   003A76                     _system_init:
  3511                           	callstack 17
  3512   003A76                     
  3513                           ;main.c: 35:     TMR2_StartTimer();
  3514   003A76  ECBA  F01D         	call	_TMR2_StartTimer	;wreg free
  3515   003A7A  010F               	movlb	15	; () banked
  3516   003A7C  8917               	bsf	23,4,b	;volatile
  3517   003A7E                     
  3518                           ; BSR set to: 15
  3519                           ;main.c: 37:     hallInit();
  3520   003A7E  EC1C  F01D         	call	_hallInit	;wreg free
  3521   003A82                     
  3522                           ;main.c: 38:     motorStop();
  3523   003A82  ECA6  F01C         	call	_motorStop	;wreg free
  3524   003A86  0012               	return		;funcret
  3525   003A88                     __end_of_system_init:
  3526                           	callstack 0
  3527                           
  3528 ;; *************** function _motorStop *****************
  3529 ;; Defined at:
  3530 ;;		line 52 in file "motor_control.c"
  3531 ;; Parameters:    Size  Location     Type
  3532 ;;		None
  3533 ;; Auto vars:     Size  Location     Type
  3534 ;;		None
  3535 ;; Return value:  Size  Location     Type
  3536 ;;                  1    wreg      void 
  3537 ;; Registers used:
  3538 ;;		wreg, fsr2l, fsr2h, status,2, status,0, prodl, prodh, cstack
  3539 ;; Tracked objects:
  3540 ;;		On entry : 0/0
  3541 ;;		On exit  : 0/0
  3542 ;;		Unchanged: 0/0
  3543 ;; Data sizes:     COMRAM   BANK0   BANK1   BANK2   BANK3   BANK4   BANK5   BANK6   BANK7   BANK8   BANK9  BANK10  BANK1
      +1  BANK12  BANK13  BANK14
  3544 ;;      Params:         0       0       0       0       0       0       0       0       0       0       0       0       
      +0       0       0       0
  3545 ;;      Locals:         0       0       0       0       0       0       0       0       0       0       0       0       
      +0       0       0       0
  3546 ;;      Temps:          0       0       0       0       0       0       0       0       0       0       0       0       
      +0       0       0       0
  3547 ;;      Totals:         0       0       0       0       0       0       0       0       0       0       0       0       
      +0       0       0       0
  3548 ;;Total ram usage:        0 bytes
  3549 ;; Hardware stack levels used: 1
  3550 ;; Hardware stack levels required when called: 12
  3551 ;; This function calls:
  3552 ;;		_motorController
  3553 ;; This function is called by:
  3554 ;;		_system_init
  3555 ;; This function uses a non-reentrant model
  3556 ;;
  3557                           
  3558                           	psect	text11
  3559   00394C                     __ptext11:
  3560                           	callstack 0
  3561   00394C                     _motorStop:
  3562                           	callstack 17
  3563   00394C                     
  3564                           ;motor_control.c: 53:     motorController(0xD0, 0x3F, 0b00);
  3565   00394C  0E3F               	movlw	63
  3566   00394E  6E26               	movwf	motorController@speed^0,c
  3567   003950  0E00               	movlw	0
  3568   003952  6E27               	movwf	motorController@dir^0,c
  3569   003954  0ED0               	movlw	208
  3570   003956  ECC4  F01C         	call	_motorController
  3571                           
  3572                           ;motor_control.c: 54:     motorController(0xC0, 0x3F, 0b00);
  3573   00395A  0E3F               	movlw	63
  3574   00395C  6E26               	movwf	motorController@speed^0,c
  3575   00395E  0E00               	movlw	0
  3576   003960  6E27               	movwf	motorController@dir^0,c
  3577   003962  0EC0               	movlw	192
  3578   003964  ECC4  F01C         	call	_motorController
  3579   003968  0012               	return		;funcret
  3580   00396A                     __end_of_motorStop:
  3581                           	callstack 0
  3582                           
  3583 ;; *************** function _hallInit *****************
  3584 ;; Defined at:
  3585 ;;		line 3 in file "hall_effect.c"
  3586 ;; Parameters:    Size  Location     Type
  3587 ;;		None
  3588 ;; Auto vars:     Size  Location     Type
  3589 ;;		None
  3590 ;; Return value:  Size  Location     Type
  3591 ;;                  1    wreg      void 
  3592 ;; Registers used:
  3593 ;;		wreg, fsr2l, fsr2h, status,2, status,0, prodl, prodh, cstack
  3594 ;; Tracked objects:
  3595 ;;		On entry : 0/0
  3596 ;;		On exit  : 0/0
  3597 ;;		Unchanged: 0/0
  3598 ;; Data sizes:     COMRAM   BANK0   BANK1   BANK2   BANK3   BANK4   BANK5   BANK6   BANK7   BANK8   BANK9  BANK10  BANK1
      +1  BANK12  BANK13  BANK14
  3599 ;;      Params:         0       0       0       0       0       0       0       0       0       0       0       0       
      +0       0       0       0
  3600 ;;      Locals:         0       0       0       0       0       0       0       0       0       0       0       0       
      +0       0       0       0
  3601 ;;      Temps:          0       0       0       0       0       0       0       0       0       0       0       0       
      +0       0       0       0
  3602 ;;      Totals:         0       0       0       0       0       0       0       0       0       0       0       0       
      +0       0       0       0
  3603 ;;Total ram usage:        0 bytes
  3604 ;; Hardware stack levels used: 1
  3605 ;; Hardware stack levels required when called: 12
  3606 ;; This function calls:
  3607 ;;		_hallRead
  3608 ;; This function is called by:
  3609 ;;		_system_init
  3610 ;; This function uses a non-reentrant model
  3611 ;;
  3612                           
  3613                           	psect	text12
  3614   003A38                     __ptext12:
  3615                           	callstack 0
  3616   003A38                     _hallInit:
  3617                           	callstack 17
  3618   003A38                     
  3619                           ;hall_effect.c: 4:     hall_pos[1] = hallRead();
  3620   003A38  ECFC  F01B         	call	_hallRead	;wreg free
  3621   003A3C  C026  F033         	movff	?_hallRead,_hall_pos+2
  3622   003A40  C027  F034         	movff	?_hallRead+1,_hall_pos+3
  3623   003A44                     
  3624                           ;hall_effect.c: 5:     hall_time[1] = 0;
  3625   003A44  0E00               	movlw	0
  3626   003A46  6E30               	movwf	(_hall_time+3)^0,c
  3627   003A48  0E00               	movlw	0
  3628   003A4A  6E2F               	movwf	(_hall_time+2)^0,c
  3629   003A4C  0012               	return		;funcret
  3630   003A4E                     __end_of_hallInit:
  3631                           	callstack 0
  3632                           
  3633 ;; *************** function _hallRead *****************
  3634 ;; Defined at:
  3635 ;;		line 8 in file "hall_effect.c"
  3636 ;; Parameters:    Size  Location     Type
  3637 ;;		None
  3638 ;; Auto vars:     Size  Location     Type
  3639 ;;		None
  3640 ;; Return value:  Size  Location     Type
  3641 ;;                  2   37[COMRAM] unsigned short 
  3642 ;; Registers used:
  3643 ;;		wreg, fsr2l, fsr2h, status,2, status,0, prodl, prodh, cstack
  3644 ;; Tracked objects:
  3645 ;;		On entry : 0/0
  3646 ;;		On exit  : 0/0
  3647 ;;		Unchanged: 0/0
  3648 ;; Data sizes:     COMRAM   BANK0   BANK1   BANK2   BANK3   BANK4   BANK5   BANK6   BANK7   BANK8   BANK9  BANK10  BANK1
      +1  BANK12  BANK13  BANK14
  3649 ;;      Params:         2       0       0       0       0       0       0       0       0       0       0       0       
      +0       0       0       0
  3650 ;;      Locals:         0       0       0       0       0       0       0       0       0       0       0       0       
      +0       0       0       0
  3651 ;;      Temps:          4       0       0       0       0       0       0       0       0       0       0       0       
      +0       0       0       0
  3652 ;;      Totals:         6       0       0       0       0       0       0       0       0       0       0       0       
      +0       0       0       0
  3653 ;;Total ram usage:        6 bytes
  3654 ;; Hardware stack levels used: 1
  3655 ;; Hardware stack levels required when called: 11
  3656 ;; This function calls:
  3657 ;;		_I2C1_Read1ByteRegister
  3658 ;; This function is called by:
  3659 ;;		_main
  3660 ;;		_hallInit
  3661 ;;		_hallRecord
  3662 ;; This function uses a non-reentrant model
  3663 ;;
  3664                           
  3665                           	psect	text13
  3666   0037F8                     __ptext13:
  3667                           	callstack 0
  3668   0037F8                     _hallRead:
  3669                           	callstack 17
  3670   0037F8                     
  3671                           ;hall_effect.c: 9:     return (I2C1_Read1ByteRegister(0x36,0x0E) << 8 | I2C1_Read1ByteRe
      +                          gister(0x36,0x0F));
  3672   0037F8  0E0E               	movlw	14
  3673   0037FA  6E23               	movwf	I2C1_Read1ByteRegister@reg^0,c
  3674   0037FC  0E36               	movlw	54
  3675   0037FE  ECBF  F018         	call	_I2C1_Read1ByteRegister
  3676   003802  6E28               	movwf	??_hallRead^0,c
  3677   003804  5028               	movf	??_hallRead^0,w,c
  3678   003806  6E2A               	movwf	(??_hallRead+2)^0,c
  3679   003808  6A29               	clrf	(??_hallRead+1)^0,c
  3680   00380A  0E0F               	movlw	15
  3681   00380C  6E23               	movwf	I2C1_Read1ByteRegister@reg^0,c
  3682   00380E  0E36               	movlw	54
  3683   003810  ECBF  F018         	call	_I2C1_Read1ByteRegister
  3684   003814  6E2B               	movwf	(??_hallRead+3)^0,c
  3685   003816  502B               	movf	(??_hallRead+3)^0,w,c
  3686   003818  1029               	iorwf	(??_hallRead+1)^0,w,c
  3687   00381A  6E26               	movwf	?_hallRead^0,c
  3688   00381C  502A               	movf	(??_hallRead+2)^0,w,c
  3689   00381E  6E27               	movwf	(?_hallRead+1)^0,c
  3690   003820  0012               	return		;funcret
  3691   003822                     __end_of_hallRead:
  3692                           	callstack 0
  3693                           
  3694 ;; *************** function _TMR2_StartTimer *****************
  3695 ;; Defined at:
  3696 ;;		line 114 in file "mcc_generated_files/tmr2.c"
  3697 ;; Parameters:    Size  Location     Type
  3698 ;;		None
  3699 ;; Auto vars:     Size  Location     Type
  3700 ;;		None
  3701 ;; Return value:  Size  Location     Type
  3702 ;;                  1    wreg      void 
  3703 ;; Registers used:
  3704 ;;		cstack
  3705 ;; Tracked objects:
  3706 ;;		On entry : 0/0
  3707 ;;		On exit  : 0/0
  3708 ;;		Unchanged: 0/0
  3709 ;; Data sizes:     COMRAM   BANK0   BANK1   BANK2   BANK3   BANK4   BANK5   BANK6   BANK7   BANK8   BANK9  BANK10  BANK1
      +1  BANK12  BANK13  BANK14
  3710 ;;      Params:         0       0       0       0       0       0       0       0       0       0       0       0       
      +0       0       0       0
  3711 ;;      Locals:         0       0       0       0       0       0       0       0       0       0       0       0       
      +0       0       0       0
  3712 ;;      Temps:          0       0       0       0       0       0       0       0       0       0       0       0       
      +0       0       0       0
  3713 ;;      Totals:         0       0       0       0       0       0       0       0       0       0       0       0       
      +0       0       0       0
  3714 ;;Total ram usage:        0 bytes
  3715 ;; Hardware stack levels used: 1
  3716 ;; Hardware stack levels required when called: 8
  3717 ;; This function calls:
  3718 ;;		_TMR2_Start
  3719 ;; This function is called by:
  3720 ;;		_system_init
  3721 ;; This function uses a non-reentrant model
  3722 ;;
  3723                           
  3724                           	psect	text14
  3725   003B74                     __ptext14:
  3726                           	callstack 0
  3727   003B74                     _TMR2_StartTimer:
  3728                           	callstack 21
  3729   003B74                     
  3730                           ;mcc_generated_files/tmr2.c: 116:     TMR2_Start();
  3731   003B74  ECD5  F01D         	call	_TMR2_Start	;wreg free
  3732   003B78  0012               	return		;funcret
  3733   003B7A                     __end_of_TMR2_StartTimer:
  3734                           	callstack 0
  3735                           
  3736 ;; *************** function _TMR2_Start *****************
  3737 ;; Defined at:
  3738 ;;		line 108 in file "mcc_generated_files/tmr2.c"
  3739 ;; Parameters:    Size  Location     Type
  3740 ;;		None
  3741 ;; Auto vars:     Size  Location     Type
  3742 ;;		None
  3743 ;; Return value:  Size  Location     Type
  3744 ;;                  1    wreg      void 
  3745 ;; Registers used:
  3746 ;;		None
  3747 ;; Tracked objects:
  3748 ;;		On entry : 0/0
  3749 ;;		On exit  : 0/0
  3750 ;;		Unchanged: 0/0
  3751 ;; Data sizes:     COMRAM   BANK0   BANK1   BANK2   BANK3   BANK4   BANK5   BANK6   BANK7   BANK8   BANK9  BANK10  BANK1
      +1  BANK12  BANK13  BANK14
  3752 ;;      Params:         0       0       0       0       0       0       0       0       0       0       0       0       
      +0       0       0       0
  3753 ;;      Locals:         0       0       0       0       0       0       0       0       0       0       0       0       
      +0       0       0       0
  3754 ;;      Temps:          0       0       0       0       0       0       0       0       0       0       0       0       
      +0       0       0       0
  3755 ;;      Totals:         0       0       0       0       0       0       0       0       0       0       0       0       
      +0       0       0       0
  3756 ;;Total ram usage:        0 bytes
  3757 ;; Hardware stack levels used: 1
  3758 ;; Hardware stack levels required when called: 7
  3759 ;; This function calls:
  3760 ;;		Nothing
  3761 ;; This function is called by:
  3762 ;;		_TMR2_StartTimer
  3763 ;; This function uses a non-reentrant model
  3764 ;;
  3765                           
  3766                           	psect	text15
  3767   003BAA                     __ptext15:
  3768                           	callstack 0
  3769   003BAA                     _TMR2_Start:
  3770                           	callstack 21
  3771   003BAA                     
  3772                           ;mcc_generated_files/tmr2.c: 111:     T2CONbits.TMR2ON = 1;
  3773   003BAA  8EBD               	bsf	189,7,c	;volatile
  3774   003BAC  0012               	return		;funcret
  3775   003BAE                     __end_of_TMR2_Start:
  3776                           	callstack 0
  3777                           
  3778 ;; *************** function _printf *****************
  3779 ;; Defined at:
  3780 ;;		line 5 in file "C:\Program Files\Microchip\xc8\v2.40\pic\sources\c99\common\printf.c"
  3781 ;; Parameters:    Size  Location     Type
  3782 ;;  fmt             2   73[BANK0 ] PTR const unsigned char 
  3783 ;;		 -> STR_6(25), STR_5(26), STR_4(21), STR_3(12), 
  3784 ;;		 -> STR_2(13), STR_1(22), 
  3785 ;; Auto vars:     Size  Location     Type
  3786 ;;  ap              2   79[BANK0 ] PTR void [1]
  3787 ;;		 -> ?_printf(2), 
  3788 ;;  ret             2    0        int 
  3789 ;; Return value:  Size  Location     Type
  3790 ;;                  2   73[BANK0 ] int 
  3791 ;; Registers used:
  3792 ;;		wreg, fsr1l, fsr1h, fsr2l, fsr2h, status,2, status,0, tblptrl, tblptrh, tblptru, prodl, prodh, cstack
  3793 ;; Tracked objects:
  3794 ;;		On entry : 0/0
  3795 ;;		On exit  : 0/0
  3796 ;;		Unchanged: 0/0
  3797 ;; Data sizes:     COMRAM   BANK0   BANK1   BANK2   BANK3   BANK4   BANK5   BANK6   BANK7   BANK8   BANK9  BANK10  BANK1
      +1  BANK12  BANK13  BANK14
  3798 ;;      Params:         0       6       0       0       0       0       0       0       0       0       0       0       
      +0       0       0       0
  3799 ;;      Locals:         0       2       0       0       0       0       0       0       0       0       0       0       
      +0       0       0       0
  3800 ;;      Temps:          0       0       0       0       0       0       0       0       0       0       0       0       
      +0       0       0       0
  3801 ;;      Totals:         0       8       0       0       0       0       0       0       0       0       0       0       
      +0       0       0       0
  3802 ;;Total ram usage:        8 bytes
  3803 ;; Hardware stack levels used: 1
  3804 ;; Hardware stack levels required when called: 15
  3805 ;; This function calls:
  3806 ;;		_vfprintf
  3807 ;; This function is called by:
  3808 ;;		_main
  3809 ;; This function uses a non-reentrant model
  3810 ;;
  3811                           
  3812                           	psect	text16
  3813   00384C                     __ptext16:
  3814                           	callstack 0
  3815   00384C                     _printf:
  3816                           	callstack 15
  3817   00384C  0EAB               	movlw	low (?_printf+2)
  3818   00384E  0100               	movlb	0	; () banked
  3819   003850  6FAF               	movwf	printf@ap& (0+255),b
  3820   003852  0E00               	movlw	high (?_printf+2)
  3821   003854  6FB0               	movwf	(printf@ap+1)& (0+255),b
  3822   003856                     
  3823                           ; BSR set to: 0
  3824   003856  0E00               	movlw	0
  3825   003858  6FA1               	movwf	vfprintf@fp& (0+255),b
  3826   00385A  0E00               	movlw	0
  3827   00385C  6FA2               	movwf	(vfprintf@fp+1)& (0+255),b
  3828   00385E  C0A9  F0A3         	movff	printf@fmt,vfprintf@fmt
  3829   003862  C0AA  F0A4         	movff	printf@fmt+1,vfprintf@fmt+1
  3830   003866  0EAF               	movlw	low printf@ap
  3831   003868  6FA5               	movwf	vfprintf@ap& (0+255),b
  3832   00386A  0E00               	movlw	high printf@ap
  3833   00386C  6FA6               	movwf	(vfprintf@ap+1)& (0+255),b
  3834   00386E  EC05  F01A         	call	_vfprintf	;wreg free
  3835   003872  0012               	return		;funcret
  3836   003874                     __end_of_printf:
  3837                           	callstack 0
  3838                           
  3839 ;; *************** function _vfprintf *****************
  3840 ;; Defined at:
  3841 ;;		line 1520 in file "C:\Program Files\Microchip\xc8\v2.40\pic\sources\c99\common\doprnt.c"
  3842 ;; Parameters:    Size  Location     Type
  3843 ;;  fp              2   65[BANK0 ] PTR struct _IO_FILE
  3844 ;;		 -> NULL(0), 
  3845 ;;  fmt             2   67[BANK0 ] PTR const unsigned char 
  3846 ;;		 -> STR_6(25), STR_5(26), STR_4(21), STR_3(12), 
  3847 ;;		 -> STR_2(13), STR_1(22), 
  3848 ;;  ap              2   69[BANK0 ] PTR PTR void 
  3849 ;;		 -> printf@ap(2), 
  3850 ;; Auto vars:     Size  Location     Type
  3851 ;;  cfmt            2   71[BANK0 ] PTR unsigned char 
  3852 ;;		 -> STR_6(25), STR_5(26), STR_4(21), STR_3(12), 
  3853 ;;		 -> STR_2(13), STR_1(22), 
  3854 ;; Return value:  Size  Location     Type
  3855 ;;                  2   65[BANK0 ] int 
  3856 ;; Registers used:
  3857 ;;		wreg, fsr1l, fsr1h, fsr2l, fsr2h, status,2, status,0, tblptrl, tblptrh, tblptru, prodl, prodh, cstack
  3858 ;; Tracked objects:
  3859 ;;		On entry : 0/0
  3860 ;;		On exit  : 0/0
  3861 ;;		Unchanged: 0/0
  3862 ;; Data sizes:     COMRAM   BANK0   BANK1   BANK2   BANK3   BANK4   BANK5   BANK6   BANK7   BANK8   BANK9  BANK10  BANK1
      +1  BANK12  BANK13  BANK14
  3863 ;;      Params:         0       6       0       0       0       0       0       0       0       0       0       0       
      +0       0       0       0
  3864 ;;      Locals:         0       2       0       0       0       0       0       0       0       0       0       0       
      +0       0       0       0
  3865 ;;      Temps:          0       0       0       0       0       0       0       0       0       0       0       0       
      +0       0       0       0
  3866 ;;      Totals:         0       8       0       0       0       0       0       0       0       0       0       0       
      +0       0       0       0
  3867 ;;Total ram usage:        8 bytes
  3868 ;; Hardware stack levels used: 1
  3869 ;; Hardware stack levels required when called: 14
  3870 ;; This function calls:
  3871 ;;		_vfpfcnvrt
  3872 ;; This function is called by:
  3873 ;;		_printf
  3874 ;; This function uses a non-reentrant model
  3875 ;;
  3876                           
  3877                           	psect	text17
  3878   00340A                     __ptext17:
  3879                           	callstack 0
  3880   00340A                     _vfprintf:
  3881                           	callstack 15
  3882   00340A                     
  3883                           ;C:\Program Files\Microchip\xc8\v2.40\pic\sources\c99\common\doprnt.c: 1520: int vfprint
      +                          f(FILE *fp, const char *fmt, va_list ap);C:\Program Files\Microchip\xc8\v2.40\pic\source
      +                          s\c99\common\doprnt.c: 1521: {;C:\Program Files\Microchip\xc8\v2.40\pic\sources\c99\comm
      +                          on\doprnt.c: 1523:     char *cfmt;;C:\Program Files\Microchip\xc8\v2.40\pic\sources\c99\
      +                          common\doprnt.c: 1525:     cfmt = (char *)fmt;
  3884   00340A  C0A3  F0A7         	movff	vfprintf@fmt,vfprintf@cfmt
  3885   00340E  C0A4  F0A8         	movff	vfprintf@fmt+1,vfprintf@cfmt+1
  3886                           
  3887                           ;C:\Program Files\Microchip\xc8\v2.40\pic\sources\c99\common\doprnt.c: 1529:     while (
      +                          *cfmt) {
  3888   003412  EF1A  F01A         	goto	l6580
  3889   003416                     l6578:
  3890                           
  3891                           ;C:\Program Files\Microchip\xc8\v2.40\pic\sources\c99\common\doprnt.c: 1533:    vfpfcnvr
      +                          t(fp, &cfmt, ap);
  3892   003416  C0A1  F08D         	movff	vfprintf@fp,vfpfcnvrt@fp
  3893   00341A  C0A2  F08E         	movff	vfprintf@fp+1,vfpfcnvrt@fp+1
  3894   00341E  0EA7               	movlw	low vfprintf@cfmt
  3895   003420  0100               	movlb	0	; () banked
  3896   003422  6F8F               	movwf	vfpfcnvrt@fmt& (0+255),b
  3897   003424  0E00               	movlw	high vfprintf@cfmt
  3898   003426  6F90               	movwf	(vfpfcnvrt@fmt+1)& (0+255),b
  3899   003428  C0A5  F091         	movff	vfprintf@ap,vfpfcnvrt@ap
  3900   00342C  C0A6  F092         	movff	vfprintf@ap+1,vfpfcnvrt@ap+1
  3901   003430  ECE3  F009         	call	_vfpfcnvrt	;wreg free
  3902   003434                     l6580:
  3903                           
  3904                           ;C:\Program Files\Microchip\xc8\v2.40\pic\sources\c99\common\doprnt.c: 1529:     while (
      +                          *cfmt) {
  3905   003434  C0A7  FFF6         	movff	vfprintf@cfmt,tblptrl
  3906   003438  C0A8  FFF7         	movff	vfprintf@cfmt+1,tblptrh
  3907   00343C                     	if	1	;Program memory is < 0x10000, tblptru is always zero
  3908   00343C  6AF8               	clrf	tblptru,c
  3909   00343E                     	endif
  3910   00343E                     	if	0	;tblptru may be non-zero
  3911   00343E                     	endif
  3912   00343E  0008               	tblrd		*
  3913   003440  50F5               	movf	tablat,w,c
  3914   003442  0900               	iorlw	0
  3915   003444  A4D8               	btfss	status,2,c
  3916   003446  EF27  F01A         	goto	u5421
  3917   00344A  EF29  F01A         	goto	u5420
  3918   00344E                     u5421:
  3919   00344E  EF0B  F01A         	goto	l6578
  3920   003452                     u5420:
  3921   003452                     
  3922                           ;C:\Program Files\Microchip\xc8\v2.40\pic\sources\c99\common\doprnt.c: 1538:  return 0;
  3923   003452  0E00               	movlw	0
  3924   003454  0100               	movlb	0	; () banked
  3925   003456  6FA2               	movwf	(?_vfprintf+1)& (0+255),b
  3926   003458  0E00               	movlw	0
  3927   00345A  6FA1               	movwf	?_vfprintf& (0+255),b
  3928   00345C                     
  3929                           ; BSR set to: 0
  3930   00345C  0012               	return		;funcret
  3931   00345E                     __end_of_vfprintf:
  3932                           	callstack 0
  3933                           
  3934 ;; *************** function _vfpfcnvrt *****************
  3935 ;; Defined at:
  3936 ;;		line 1007 in file "C:\Program Files\Microchip\xc8\v2.40\pic\sources\c99\common\doprnt.c"
  3937 ;; Parameters:    Size  Location     Type
  3938 ;;  fp              2   45[BANK0 ] PTR struct _IO_FILE
  3939 ;;		 -> NULL(0), 
  3940 ;;  fmt             2   47[BANK0 ] PTR PTR unsigned char 
  3941 ;;		 -> vfprintf@cfmt(2), 
  3942 ;;  ap              2   49[BANK0 ] PTR PTR void 
  3943 ;;		 -> printf@ap(2), 
  3944 ;; Auto vars:     Size  Location     Type
  3945 ;;  convarg         8   55[BANK0 ] struct .
  3946 ;;  cp              2   63[BANK0 ] PTR unsigned char 
  3947 ;;		 -> STR_6(25), STR_5(26), STR_4(21), STR_3(12), 
  3948 ;;		 -> STR_2(13), STR_1(22), 
  3949 ;;  i               2    0        int 
  3950 ;;  done            2    0        int 
  3951 ;;  c               1    0        unsigned char 
  3952 ;; Return value:  Size  Location     Type
  3953 ;;                  1    wreg      void 
  3954 ;; Registers used:
  3955 ;;		wreg, fsr1l, fsr1h, fsr2l, fsr2h, status,2, status,0, tblptrl, tblptrh, tblptru, prodl, prodh, cstack
  3956 ;; Tracked objects:
  3957 ;;		On entry : 0/0
  3958 ;;		On exit  : 0/0
  3959 ;;		Unchanged: 0/0
  3960 ;; Data sizes:     COMRAM   BANK0   BANK1   BANK2   BANK3   BANK4   BANK5   BANK6   BANK7   BANK8   BANK9  BANK10  BANK1
      +1  BANK12  BANK13  BANK14
  3961 ;;      Params:         0       6       0       0       0       0       0       0       0       0       0       0       
      +0       0       0       0
  3962 ;;      Locals:         0      10       0       0       0       0       0       0       0       0       0       0       
      +0       0       0       0
  3963 ;;      Temps:          0       4       0       0       0       0       0       0       0       0       0       0       
      +0       0       0       0
  3964 ;;      Totals:         0      20       0       0       0       0       0       0       0       0       0       0       
      +0       0       0       0
  3965 ;;Total ram usage:       20 bytes
  3966 ;; Hardware stack levels used: 1
  3967 ;; Hardware stack levels required when called: 13
  3968 ;; This function calls:
  3969 ;;		_atoi
  3970 ;;		_dtoa
  3971 ;;		_fputc
  3972 ;;		_isdigit
  3973 ;;		_utoa
  3974 ;; This function is called by:
  3975 ;;		_vfprintf
  3976 ;; This function uses a non-reentrant model
  3977 ;;
  3978                           
  3979                           	psect	text18
  3980   0013C6                     __ptext18:
  3981                           	callstack 0
  3982   0013C6                     _vfpfcnvrt:
  3983                           	callstack 15
  3984   0013C6                     
  3985                           ;C:\Program Files\Microchip\xc8\v2.40\pic\sources\c99\common\doprnt.c: 1007: vfpfcnvrt(F
      +                          ILE *fp, char *fmt[], va_list ap);C:\Program Files\Microchip\xc8\v2.40\pic\sources\c99\c
      +                          ommon\doprnt.c: 1008: {;C:\Program Files\Microchip\xc8\v2.40\pic\sources\c99\common\dopr
      +                          nt.c: 1009:     char c, *cp;;C:\Program Files\Microchip\xc8\v2.40\pic\sources\c99\common
      +                          \doprnt.c: 1010:     int done, i;;C:\Program Files\Microchip\xc8\v2.40\pic\sources\c99\c
      +                          ommon\doprnt.c: 1016:  } convarg;;C:\Program Files\Microchip\xc8\v2.40\pic\sources\c99\c
      +                          ommon\doprnt.c: 1019:     if ((*fmt)[0] == '%') {
  3986   0013C6  C08F  FFD9         	movff	vfpfcnvrt@fmt,fsr2l
  3987   0013CA  C090  FFDA         	movff	vfpfcnvrt@fmt+1,fsr2h
  3988   0013CE  CFDE FFF6          	movff	postinc2,tblptrl
  3989   0013D2  CFDD FFF7          	movff	postdec2,tblptrh
  3990   0013D6                     	if	1	;Program memory is < 0x10000, tblptru is always zero
  3991   0013D6  6AF8               	clrf	tblptru,c
  3992   0013D8                     	endif
  3993   0013D8                     	if	0	;tblptru may be non-zero
  3994   0013D8                     	endif
  3995   0013D8  0008               	tblrd		*
  3996   0013DA  50F5               	movf	tablat,w,c
  3997   0013DC  0A25               	xorlw	37
  3998   0013DE  A4D8               	btfss	status,2,c
  3999   0013E0  EFF4  F009         	goto	u4771
  4000   0013E4  EFF6  F009         	goto	u4770
  4001   0013E8                     u4771:
  4002   0013E8  EFD9  F00B         	goto	l6130
  4003   0013EC                     u4770:
  4004   0013EC                     
  4005                           ;C:\Program Files\Microchip\xc8\v2.40\pic\sources\c99\common\doprnt.c: 1020:         ++*
      +                          fmt;
  4006   0013EC  C08F  FFD9         	movff	vfpfcnvrt@fmt,fsr2l
  4007   0013F0  C090  FFDA         	movff	vfpfcnvrt@fmt+1,fsr2h
  4008   0013F4  2ADE               	incf	postinc2,f,c
  4009   0013F6  0E00               	movlw	0
  4010   0013F8  22DD               	addwfc	postdec2,f,c
  4011   0013FA                     
  4012                           ;C:\Program Files\Microchip\xc8\v2.40\pic\sources\c99\common\doprnt.c: 1022:         fla
      +                          gs = width = 0;
  4013   0013FA  0E00               	movlw	0
  4014   0013FC  6E36               	movwf	(_width+1)^0,c
  4015   0013FE  0E00               	movlw	0
  4016   001400  6E35               	movwf	_width^0,c
  4017   001402  C035  F03D         	movff	_width,_flags
  4018   001406                     
  4019                           ;C:\Program Files\Microchip\xc8\v2.40\pic\sources\c99\common\doprnt.c: 1023:         pre
      +                          c = -1;
  4020   001406  6837               	setf	_prec^0,c
  4021   001408  6838               	setf	(_prec+1)^0,c
  4022   00140A                     
  4023                           ;C:\Program Files\Microchip\xc8\v2.40\pic\sources\c99\common\doprnt.c: 1074:         if 
      +                          ((*fmt)[0] == '*') {
  4024   00140A  C08F  FFD9         	movff	vfpfcnvrt@fmt,fsr2l
  4025   00140E  C090  FFDA         	movff	vfpfcnvrt@fmt+1,fsr2h
  4026   001412  CFDE FFF6          	movff	postinc2,tblptrl
  4027   001416  CFDD FFF7          	movff	postdec2,tblptrh
  4028   00141A                     	if	1	;Program memory is < 0x10000, tblptru is always zero
  4029   00141A  6AF8               	clrf	tblptru,c
  4030   00141C                     	endif
  4031   00141C                     	if	0	;tblptru may be non-zero
  4032   00141C                     	endif
  4033   00141C  0008               	tblrd		*
  4034   00141E  50F5               	movf	tablat,w,c
  4035   001420  0A2A               	xorlw	42
  4036   001422  A4D8               	btfss	status,2,c
  4037   001424  EF16  F00A         	goto	u4781
  4038   001428  EF18  F00A         	goto	u4780
  4039   00142C                     u4781:
  4040   00142C  EF41  F00A         	goto	l6076
  4041   001430                     u4780:
  4042   001430                     
  4043                           ;C:\Program Files\Microchip\xc8\v2.40\pic\sources\c99\common\doprnt.c: 1075:            
      +                           ++*fmt;
  4044   001430  C08F  FFD9         	movff	vfpfcnvrt@fmt,fsr2l
  4045   001434  C090  FFDA         	movff	vfpfcnvrt@fmt+1,fsr2h
  4046   001438  2ADE               	incf	postinc2,f,c
  4047   00143A  0E00               	movlw	0
  4048   00143C  22DD               	addwfc	postdec2,f,c
  4049                           
  4050                           ;C:\Program Files\Microchip\xc8\v2.40\pic\sources\c99\common\doprnt.c: 1076:            
      +                           width = (*(int *)__va_arg(*(int **)ap, (int)0));
  4051   00143E  C091  FFD9         	movff	vfpfcnvrt@ap,fsr2l
  4052   001442  C092  FFDA         	movff	vfpfcnvrt@ap+1,fsr2h
  4053   001446  CFDF F093          	movff	indf2,??_vfpfcnvrt
  4054   00144A  0E02               	movlw	2
  4055   00144C  26DE               	addwf	postinc2,f,c
  4056   00144E  CFDF F094          	movff	indf2,??_vfpfcnvrt+1
  4057   001452  0E00               	movlw	0
  4058   001454  22DD               	addwfc	postdec2,f,c
  4059   001456  C093  FFD9         	movff	??_vfpfcnvrt,fsr2l
  4060   00145A  C094  FFDA         	movff	??_vfpfcnvrt+1,fsr2h
  4061   00145E  CFDE F035          	movff	postinc2,_width
  4062   001462  CFDD F036          	movff	postdec2,_width+1
  4063   001466                     
  4064                           ;C:\Program Files\Microchip\xc8\v2.40\pic\sources\c99\common\doprnt.c: 1077:            
      +                           if (width < 0) {
  4065   001466  BE36               	btfsc	(_width+1)^0,7,c
  4066   001468  EF3A  F00A         	goto	u4790
  4067   00146C  EF38  F00A         	goto	u4791
  4068   001470                     u4791:
  4069   001470  EF76  F00A         	goto	l6084
  4070   001474                     u4790:
  4071   001474                     
  4072                           ;C:\Program Files\Microchip\xc8\v2.40\pic\sources\c99\common\doprnt.c: 1078:            
      +                               flags |= (1 << 0);
  4073   001474  803D               	bsf	_flags^0,0,c
  4074                           
  4075                           ;C:\Program Files\Microchip\xc8\v2.40\pic\sources\c99\common\doprnt.c: 1079:            
      +                               width = -width;
  4076   001476  6C35               	negf	_width^0,c
  4077   001478  1E36               	comf	(_width+1)^0,f,c
  4078   00147A  B0D8               	btfsc	status,0,c
  4079   00147C  2A36               	incf	(_width+1)^0,f,c
  4080   00147E  EF76  F00A         	goto	l6084
  4081   001482                     l6076:
  4082                           
  4083                           ;C:\Program Files\Microchip\xc8\v2.40\pic\sources\c99\common\doprnt.c: 1082:            
      +                           width = atoi(*fmt);
  4084   001482  C08F  FFD9         	movff	vfpfcnvrt@fmt,fsr2l
  4085   001486  C090  FFDA         	movff	vfpfcnvrt@fmt+1,fsr2h
  4086   00148A  CFDE F020          	movff	postinc2,atoi@s
  4087   00148E  CFDD F021          	movff	postdec2,atoi@s+1
  4088   001492  EC4F  F013         	call	_atoi	;wreg free
  4089   001496  C020  F035         	movff	?_atoi,_width
  4090   00149A  C021  F036         	movff	?_atoi+1,_width+1
  4091                           
  4092                           ;C:\Program Files\Microchip\xc8\v2.40\pic\sources\c99\common\doprnt.c: 1083:            
      +                           while ((0 && isdigit((*fmt)[0]), ((unsigned)((*fmt)[0])-'0') < 10)) {
  4093   00149E  EF58  F00A         	goto	l6082
  4094   0014A2                     l6078:
  4095                           
  4096                           ; BSR set to: 0
  4097                           ;C:\Program Files\Microchip\xc8\v2.40\pic\sources\c99\common\doprnt.c: 1084:            
      +                               ++*fmt;
  4098   0014A2  C08F  FFD9         	movff	vfpfcnvrt@fmt,fsr2l
  4099   0014A6  C090  FFDA         	movff	vfpfcnvrt@fmt+1,fsr2h
  4100   0014AA  2ADE               	incf	postinc2,f,c
  4101   0014AC  0E00               	movlw	0
  4102   0014AE  22DD               	addwfc	postdec2,f,c
  4103   0014B0                     l6082:
  4104   0014B0  C08F  FFD9         	movff	vfpfcnvrt@fmt,fsr2l
  4105   0014B4  C090  FFDA         	movff	vfpfcnvrt@fmt+1,fsr2h
  4106   0014B8  CFDE FFF6          	movff	postinc2,tblptrl
  4107   0014BC  CFDD FFF7          	movff	postdec2,tblptrh
  4108   0014C0                     	if	1	;Program memory is < 0x10000, tblptru is always zero
  4109   0014C0  6AF8               	clrf	tblptru,c
  4110   0014C2                     	endif
  4111   0014C2                     	if	0	;tblptru may be non-zero
  4112   0014C2                     	endif
  4113   0014C2  0008               	tblrd		*
  4114   0014C4  CFF5 F093          	movff	tablat,??_vfpfcnvrt
  4115   0014C8  0ED0               	movlw	208
  4116   0014CA  0100               	movlb	0	; () banked
  4117   0014CC  2593               	addwf	??_vfpfcnvrt& (0+255),w,b
  4118   0014CE  6F94               	movwf	(??_vfpfcnvrt+1)& (0+255),b
  4119   0014D0  6B95               	clrf	(??_vfpfcnvrt+2)& (0+255),b
  4120   0014D2  0EFF               	movlw	255
  4121   0014D4  2395               	addwfc	(??_vfpfcnvrt+2)& (0+255),f,b
  4122   0014D6  5195               	movf	(??_vfpfcnvrt+2)& (0+255),w,b
  4123   0014D8  E109               	bnz	u4800
  4124   0014DA  0E0A               	movlw	10
  4125   0014DC  5D94               	subwf	(??_vfpfcnvrt+1)& (0+255),w,b
  4126   0014DE  A0D8               	btfss	status,0,c
  4127   0014E0  EF74  F00A         	goto	u4801
  4128   0014E4  EF76  F00A         	goto	u4800
  4129   0014E8                     u4801:
  4130   0014E8  EF51  F00A         	goto	l6078
  4131   0014EC                     u4800:
  4132   0014EC                     l6084:
  4133                           
  4134                           ;C:\Program Files\Microchip\xc8\v2.40\pic\sources\c99\common\doprnt.c: 1091:         if 
      +                          ((*fmt)[0] == '.') {
  4135   0014EC  C08F  FFD9         	movff	vfpfcnvrt@fmt,fsr2l
  4136   0014F0  C090  FFDA         	movff	vfpfcnvrt@fmt+1,fsr2h
  4137   0014F4  CFDE FFF6          	movff	postinc2,tblptrl
  4138   0014F8  CFDD FFF7          	movff	postdec2,tblptrh
  4139   0014FC                     	if	1	;Program memory is < 0x10000, tblptru is always zero
  4140   0014FC  6AF8               	clrf	tblptru,c
  4141   0014FE                     	endif
  4142   0014FE                     	if	0	;tblptru may be non-zero
  4143   0014FE                     	endif
  4144   0014FE  0008               	tblrd		*
  4145   001500  50F5               	movf	tablat,w,c
  4146   001502  0A2E               	xorlw	46
  4147   001504  A4D8               	btfss	status,2,c
  4148   001506  EF87  F00A         	goto	u4811
  4149   00150A  EF89  F00A         	goto	u4810
  4150   00150E                     u4811:
  4151   00150E  EFF9  F00A         	goto	l6102
  4152   001512                     u4810:
  4153   001512                     
  4154                           ;C:\Program Files\Microchip\xc8\v2.40\pic\sources\c99\common\doprnt.c: 1092:            
      +                           prec = 0;
  4155   001512  0E00               	movlw	0
  4156   001514  6E38               	movwf	(_prec+1)^0,c
  4157   001516  0E00               	movlw	0
  4158   001518  6E37               	movwf	_prec^0,c
  4159   00151A                     
  4160                           ;C:\Program Files\Microchip\xc8\v2.40\pic\sources\c99\common\doprnt.c: 1093:            
      +                           ++*fmt;
  4161   00151A  C08F  FFD9         	movff	vfpfcnvrt@fmt,fsr2l
  4162   00151E  C090  FFDA         	movff	vfpfcnvrt@fmt+1,fsr2h
  4163   001522  2ADE               	incf	postinc2,f,c
  4164   001524  0E00               	movlw	0
  4165   001526  22DD               	addwfc	postdec2,f,c
  4166   001528                     
  4167                           ;C:\Program Files\Microchip\xc8\v2.40\pic\sources\c99\common\doprnt.c: 1094:            
      +                           if ((*fmt)[0] == '*') {
  4168   001528  C08F  FFD9         	movff	vfpfcnvrt@fmt,fsr2l
  4169   00152C  C090  FFDA         	movff	vfpfcnvrt@fmt+1,fsr2h
  4170   001530  CFDE FFF6          	movff	postinc2,tblptrl
  4171   001534  CFDD FFF7          	movff	postdec2,tblptrh
  4172   001538                     	if	1	;Program memory is < 0x10000, tblptru is always zero
  4173   001538  6AF8               	clrf	tblptru,c
  4174   00153A                     	endif
  4175   00153A                     	if	0	;tblptru may be non-zero
  4176   00153A                     	endif
  4177   00153A  0008               	tblrd		*
  4178   00153C  50F5               	movf	tablat,w,c
  4179   00153E  0A2A               	xorlw	42
  4180   001540  A4D8               	btfss	status,2,c
  4181   001542  EFA5  F00A         	goto	u4821
  4182   001546  EFA7  F00A         	goto	u4820
  4183   00154A                     u4821:
  4184   00154A  EFC4  F00A         	goto	l6094
  4185   00154E                     u4820:
  4186   00154E                     
  4187                           ;C:\Program Files\Microchip\xc8\v2.40\pic\sources\c99\common\doprnt.c: 1095:            
      +                               ++*fmt;
  4188   00154E  C08F  FFD9         	movff	vfpfcnvrt@fmt,fsr2l
  4189   001552  C090  FFDA         	movff	vfpfcnvrt@fmt+1,fsr2h
  4190   001556  2ADE               	incf	postinc2,f,c
  4191   001558  0E00               	movlw	0
  4192   00155A  22DD               	addwfc	postdec2,f,c
  4193                           
  4194                           ;C:\Program Files\Microchip\xc8\v2.40\pic\sources\c99\common\doprnt.c: 1096:            
      +                               prec = (*(int *)__va_arg(*(int **)ap, (int)0));
  4195   00155C  C091  FFD9         	movff	vfpfcnvrt@ap,fsr2l
  4196   001560  C092  FFDA         	movff	vfpfcnvrt@ap+1,fsr2h
  4197   001564  CFDF F093          	movff	indf2,??_vfpfcnvrt
  4198   001568  0E02               	movlw	2
  4199   00156A  26DE               	addwf	postinc2,f,c
  4200   00156C  CFDF F094          	movff	indf2,??_vfpfcnvrt+1
  4201   001570  0E00               	movlw	0
  4202   001572  22DD               	addwfc	postdec2,f,c
  4203   001574  C093  FFD9         	movff	??_vfpfcnvrt,fsr2l
  4204   001578  C094  FFDA         	movff	??_vfpfcnvrt+1,fsr2h
  4205   00157C  CFDE F037          	movff	postinc2,_prec
  4206   001580  CFDD F038          	movff	postdec2,_prec+1
  4207                           
  4208                           ;C:\Program Files\Microchip\xc8\v2.40\pic\sources\c99\common\doprnt.c: 1097:            
      +                           } else {
  4209   001584  EFF9  F00A         	goto	l6102
  4210   001588                     l6094:
  4211                           
  4212                           ;C:\Program Files\Microchip\xc8\v2.40\pic\sources\c99\common\doprnt.c: 1098:            
      +                               prec = atoi(*fmt);
  4213   001588  C08F  FFD9         	movff	vfpfcnvrt@fmt,fsr2l
  4214   00158C  C090  FFDA         	movff	vfpfcnvrt@fmt+1,fsr2h
  4215   001590  CFDE F020          	movff	postinc2,atoi@s
  4216   001594  CFDD F021          	movff	postdec2,atoi@s+1
  4217   001598  EC4F  F013         	call	_atoi	;wreg free
  4218   00159C  C020  F037         	movff	?_atoi,_prec
  4219   0015A0  C021  F038         	movff	?_atoi+1,_prec+1
  4220                           
  4221                           ;C:\Program Files\Microchip\xc8\v2.40\pic\sources\c99\common\doprnt.c: 1099:            
      +                               while ((0 && isdigit((*fmt)[0]), ((unsigned)((*fmt)[0])-'0') < 10)) {
  4222   0015A4  EFDB  F00A         	goto	l6100
  4223   0015A8                     l6096:
  4224                           
  4225                           ; BSR set to: 0
  4226                           ;C:\Program Files\Microchip\xc8\v2.40\pic\sources\c99\common\doprnt.c: 1100:            
      +                                   ++*fmt;
  4227   0015A8  C08F  FFD9         	movff	vfpfcnvrt@fmt,fsr2l
  4228   0015AC  C090  FFDA         	movff	vfpfcnvrt@fmt+1,fsr2h
  4229   0015B0  2ADE               	incf	postinc2,f,c
  4230   0015B2  0E00               	movlw	0
  4231   0015B4  22DD               	addwfc	postdec2,f,c
  4232   0015B6                     l6100:
  4233   0015B6  C08F  FFD9         	movff	vfpfcnvrt@fmt,fsr2l
  4234   0015BA  C090  FFDA         	movff	vfpfcnvrt@fmt+1,fsr2h
  4235   0015BE  CFDE FFF6          	movff	postinc2,tblptrl
  4236   0015C2  CFDD FFF7          	movff	postdec2,tblptrh
  4237   0015C6                     	if	1	;Program memory is < 0x10000, tblptru is always zero
  4238   0015C6  6AF8               	clrf	tblptru,c
  4239   0015C8                     	endif
  4240   0015C8                     	if	0	;tblptru may be non-zero
  4241   0015C8                     	endif
  4242   0015C8  0008               	tblrd		*
  4243   0015CA  CFF5 F093          	movff	tablat,??_vfpfcnvrt
  4244   0015CE  0ED0               	movlw	208
  4245   0015D0  0100               	movlb	0	; () banked
  4246   0015D2  2593               	addwf	??_vfpfcnvrt& (0+255),w,b
  4247   0015D4  6F94               	movwf	(??_vfpfcnvrt+1)& (0+255),b
  4248   0015D6  6B95               	clrf	(??_vfpfcnvrt+2)& (0+255),b
  4249   0015D8  0EFF               	movlw	255
  4250   0015DA  2395               	addwfc	(??_vfpfcnvrt+2)& (0+255),f,b
  4251   0015DC  5195               	movf	(??_vfpfcnvrt+2)& (0+255),w,b
  4252   0015DE  E109               	bnz	u4830
  4253   0015E0  0E0A               	movlw	10
  4254   0015E2  5D94               	subwf	(??_vfpfcnvrt+1)& (0+255),w,b
  4255   0015E4  A0D8               	btfss	status,0,c
  4256   0015E6  EFF7  F00A         	goto	u4831
  4257   0015EA  EFF9  F00A         	goto	u4830
  4258   0015EE                     u4831:
  4259   0015EE  EFD4  F00A         	goto	l6096
  4260   0015F2                     u4830:
  4261   0015F2                     l6102:
  4262                           
  4263                           ;C:\Program Files\Microchip\xc8\v2.40\pic\sources\c99\common\doprnt.c: 1117:   cp = *fmt
      +                          ;
  4264   0015F2  C08F  FFD9         	movff	vfpfcnvrt@fmt,fsr2l
  4265   0015F6  C090  FFDA         	movff	vfpfcnvrt@fmt+1,fsr2h
  4266   0015FA  CFDE F09F          	movff	postinc2,vfpfcnvrt@cp
  4267   0015FE  CFDD F0A0          	movff	postdec2,vfpfcnvrt@cp+1
  4268   001602                     
  4269                           ;C:\Program Files\Microchip\xc8\v2.40\pic\sources\c99\common\doprnt.c: 1187:   if (*cp =
      +                          = 'd' || *cp == 'i') {
  4270   001602  C09F  FFF6         	movff	vfpfcnvrt@cp,tblptrl
  4271   001606  C0A0  FFF7         	movff	vfpfcnvrt@cp+1,tblptrh
  4272   00160A                     	if	1	;Program memory is < 0x10000, tblptru is always zero
  4273   00160A  6AF8               	clrf	tblptru,c
  4274   00160C                     	endif
  4275   00160C                     	if	0	;tblptru may be non-zero
  4276   00160C                     	endif
  4277   00160C  0008               	tblrd		*
  4278   00160E  50F5               	movf	tablat,w,c
  4279   001610  0A64               	xorlw	100
  4280   001612  B4D8               	btfsc	status,2,c
  4281   001614  EF0E  F00B         	goto	u4841
  4282   001618  EF10  F00B         	goto	u4840
  4283   00161C                     u4841:
  4284   00161C  EF1F  F00B         	goto	l6108
  4285   001620                     u4840:
  4286   001620  C09F  FFF6         	movff	vfpfcnvrt@cp,tblptrl
  4287   001624  C0A0  FFF7         	movff	vfpfcnvrt@cp+1,tblptrh
  4288   001628                     	if	1	;Program memory is < 0x10000, tblptru is always zero
  4289   001628  6AF8               	clrf	tblptru,c
  4290   00162A                     	endif
  4291   00162A                     	if	0	;tblptru may be non-zero
  4292   00162A                     	endif
  4293   00162A  0008               	tblrd		*
  4294   00162C  50F5               	movf	tablat,w,c
  4295   00162E  0A69               	xorlw	105
  4296   001630  A4D8               	btfss	status,2,c
  4297   001632  EF1D  F00B         	goto	u4851
  4298   001636  EF1F  F00B         	goto	u4850
  4299   00163A                     u4851:
  4300   00163A  EF63  F00B         	goto	l6114
  4301   00163E                     u4850:
  4302   00163E                     l6108:
  4303                           
  4304                           ;C:\Program Files\Microchip\xc8\v2.40\pic\sources\c99\common\doprnt.c: 1230:    convarg.
      +                          ll = (long long)(int)(*(int *)__va_arg(*(int **)ap, (int)0));
  4305   00163E  C091  FFD9         	movff	vfpfcnvrt@ap,fsr2l
  4306   001642  C092  FFDA         	movff	vfpfcnvrt@ap+1,fsr2h
  4307   001646  CFDF F093          	movff	indf2,??_vfpfcnvrt
  4308   00164A  0E02               	movlw	2
  4309   00164C  26DE               	addwf	postinc2,f,c
  4310   00164E  CFDF F094          	movff	indf2,??_vfpfcnvrt+1
  4311   001652  0E00               	movlw	0
  4312   001654  22DD               	addwfc	postdec2,f,c
  4313   001656  C093  FFD9         	movff	??_vfpfcnvrt,fsr2l
  4314   00165A  C094  FFDA         	movff	??_vfpfcnvrt+1,fsr2h
  4315   00165E  CFDE F097          	movff	postinc2,vfpfcnvrt@convarg
  4316   001662  CFDD F098          	movff	postdec2,vfpfcnvrt@convarg+1
  4317   001666  0100               	movlb	0	; () banked
  4318   001668  0E00               	movlw	0
  4319   00166A  BF98               	btfsc	(vfpfcnvrt@convarg+1)& (0+255),7,b
  4320   00166C  0EFF               	movlw	-1
  4321   00166E  6F99               	movwf	(vfpfcnvrt@convarg+2)& (0+255),b
  4322   001670  6F9A               	movwf	(vfpfcnvrt@convarg+3)& (0+255),b
  4323   001672  6F9B               	movwf	(vfpfcnvrt@convarg+4)& (0+255),b
  4324   001674  6F9C               	movwf	(vfpfcnvrt@convarg+5)& (0+255),b
  4325   001676  6F9D               	movwf	(vfpfcnvrt@convarg+6)& (0+255),b
  4326   001678  6F9E               	movwf	(vfpfcnvrt@convarg+7)& (0+255),b
  4327                           
  4328                           ;C:\Program Files\Microchip\xc8\v2.40\pic\sources\c99\common\doprnt.c: 1232:    *fmt = c
      +                          p+1;
  4329   00167A  0E01               	movlw	1
  4330   00167C  259F               	addwf	vfpfcnvrt@cp& (0+255),w,b
  4331   00167E  6F93               	movwf	??_vfpfcnvrt& (0+255),b
  4332   001680  0E00               	movlw	0
  4333   001682  21A0               	addwfc	(vfpfcnvrt@cp+1)& (0+255),w,b
  4334   001684  6F94               	movwf	(??_vfpfcnvrt+1)& (0+255),b
  4335   001686  C08F  FFD9         	movff	vfpfcnvrt@fmt,fsr2l
  4336   00168A  C090  FFDA         	movff	vfpfcnvrt@fmt+1,fsr2h
  4337   00168E  C093  FFDE         	movff	??_vfpfcnvrt,postinc2
  4338   001692  C094  FFDD         	movff	??_vfpfcnvrt+1,postdec2
  4339   001696                     
  4340                           ; BSR set to: 0
  4341                           ;C:\Program Files\Microchip\xc8\v2.40\pic\sources\c99\common\doprnt.c: 1233:    return (
      +                          void) dtoa(fp, convarg.ll);;	Return value of _vfpfcnvrt is never used
  4342   001696  C08D  F06A         	movff	vfpfcnvrt@fp,dtoa@fp
  4343   00169A  C08E  F06B         	movff	vfpfcnvrt@fp+1,dtoa@fp+1
  4344   00169E  C097  F06C         	movff	vfpfcnvrt@convarg,dtoa@d
  4345   0016A2  C098  F06D         	movff	vfpfcnvrt@convarg+1,dtoa@d+1
  4346   0016A6  C099  F06E         	movff	vfpfcnvrt@convarg+2,dtoa@d+2
  4347   0016AA  C09A  F06F         	movff	vfpfcnvrt@convarg+3,dtoa@d+3
  4348   0016AE  C09B  F070         	movff	vfpfcnvrt@convarg+4,dtoa@d+4
  4349   0016B2  C09C  F071         	movff	vfpfcnvrt@convarg+5,dtoa@d+5
  4350   0016B6  C09D  F072         	movff	vfpfcnvrt@convarg+6,dtoa@d+6
  4351   0016BA  C09E  F073         	movff	vfpfcnvrt@convarg+7,dtoa@d+7
  4352   0016BE  ECBD  F00D         	call	_dtoa	;wreg free
  4353   0016C2  EFEE  F00B         	goto	l1692
  4354   0016C6                     l6114:
  4355   0016C6  C09F  FFF6         	movff	vfpfcnvrt@cp,tblptrl
  4356   0016CA  C0A0  FFF7         	movff	vfpfcnvrt@cp+1,tblptrh
  4357   0016CE                     	if	1	;Program memory is < 0x10000, tblptru is always zero
  4358   0016CE  6AF8               	clrf	tblptru,c
  4359   0016D0                     	endif
  4360   0016D0                     	if	0	;tblptru may be non-zero
  4361   0016D0                     	endif
  4362   0016D0  0008               	tblrd		*
  4363   0016D2  50F5               	movf	tablat,w,c
  4364   0016D4  0A75               	xorlw	117
  4365   0016D6  A4D8               	btfss	status,2,c
  4366   0016D8  EF70  F00B         	goto	u4861
  4367   0016DC  EF72  F00B         	goto	u4860
  4368   0016E0                     u4861:
  4369   0016E0  EFD0  F00B         	goto	l6126
  4370   0016E4                     u4860:
  4371   0016E4                     
  4372                           ;C:\Program Files\Microchip\xc8\v2.40\pic\sources\c99\common\doprnt.c: 1252:     ) {;C:\
      +                          Program Files\Microchip\xc8\v2.40\pic\sources\c99\common\doprnt.c: 1295:    convarg.llu 
      +                          = (unsigned long long)(unsigned int)(*(unsigned int *)__va_arg(*(unsigned int **)ap, (un
      +                          signed int)0));
  4373   0016E4  C091  FFD9         	movff	vfpfcnvrt@ap,fsr2l
  4374   0016E8  C092  FFDA         	movff	vfpfcnvrt@ap+1,fsr2h
  4375   0016EC  CFDF F093          	movff	indf2,??_vfpfcnvrt
  4376   0016F0  0E02               	movlw	2
  4377   0016F2  26DE               	addwf	postinc2,f,c
  4378   0016F4  CFDF F094          	movff	indf2,??_vfpfcnvrt+1
  4379   0016F8  0E00               	movlw	0
  4380   0016FA  22DD               	addwfc	postdec2,f,c
  4381   0016FC  C093  FFD9         	movff	??_vfpfcnvrt,fsr2l
  4382   001700  C094  FFDA         	movff	??_vfpfcnvrt+1,fsr2h
  4383   001704  CFDE F095          	movff	postinc2,??_vfpfcnvrt+2
  4384   001708  CFDD F096          	movff	postdec2,??_vfpfcnvrt+3
  4385   00170C  C095  F097         	movff	??_vfpfcnvrt+2,vfpfcnvrt@convarg
  4386   001710  C096  F098         	movff	??_vfpfcnvrt+3,vfpfcnvrt@convarg+1
  4387   001714  0100               	movlb	0	; () banked
  4388   001716  6B99               	clrf	(vfpfcnvrt@convarg+2)& (0+255),b
  4389   001718  6B9A               	clrf	(vfpfcnvrt@convarg+3)& (0+255),b
  4390   00171A  6B9B               	clrf	(vfpfcnvrt@convarg+4)& (0+255),b
  4391   00171C  6B9C               	clrf	(vfpfcnvrt@convarg+5)& (0+255),b
  4392   00171E  6B9D               	clrf	(vfpfcnvrt@convarg+6)& (0+255),b
  4393   001720  6B9E               	clrf	(vfpfcnvrt@convarg+7)& (0+255),b
  4394                           
  4395                           ;C:\Program Files\Microchip\xc8\v2.40\pic\sources\c99\common\doprnt.c: 1297:    *fmt = c
      +                          p+1;
  4396   001722  0E01               	movlw	1
  4397   001724  259F               	addwf	vfpfcnvrt@cp& (0+255),w,b
  4398   001726  6F93               	movwf	??_vfpfcnvrt& (0+255),b
  4399   001728  0E00               	movlw	0
  4400   00172A  21A0               	addwfc	(vfpfcnvrt@cp+1)& (0+255),w,b
  4401   00172C  6F94               	movwf	(??_vfpfcnvrt+1)& (0+255),b
  4402   00172E  C08F  FFD9         	movff	vfpfcnvrt@fmt,fsr2l
  4403   001732  C090  FFDA         	movff	vfpfcnvrt@fmt+1,fsr2h
  4404   001736  C093  FFDE         	movff	??_vfpfcnvrt,postinc2
  4405   00173A  C094  FFDD         	movff	??_vfpfcnvrt+1,postdec2
  4406                           
  4407                           ;C:\Program Files\Microchip\xc8\v2.40\pic\sources\c99\common\doprnt.c: 1298:    switch (
      +                          *cp) {
  4408   00173E  EFB9  F00B         	goto	l6124
  4409   001742                     l6118:
  4410                           
  4411                           ; BSR set to: 0
  4412                           ;C:\Program Files\Microchip\xc8\v2.40\pic\sources\c99\common\doprnt.c: 1305:      return
      +                           (void) utoa(fp, convarg.llu);;	Return value of _vfpfcnvrt is never used
  4413   001742  C08D  F06A         	movff	vfpfcnvrt@fp,utoa@fp
  4414   001746  C08E  F06B         	movff	vfpfcnvrt@fp+1,utoa@fp+1
  4415   00174A  C097  F06C         	movff	vfpfcnvrt@convarg,utoa@d
  4416   00174E  C098  F06D         	movff	vfpfcnvrt@convarg+1,utoa@d+1
  4417   001752  C099  F06E         	movff	vfpfcnvrt@convarg+2,utoa@d+2
  4418   001756  C09A  F06F         	movff	vfpfcnvrt@convarg+3,utoa@d+3
  4419   00175A  C09B  F070         	movff	vfpfcnvrt@convarg+4,utoa@d+4
  4420   00175E  C09C  F071         	movff	vfpfcnvrt@convarg+5,utoa@d+5
  4421   001762  C09D  F072         	movff	vfpfcnvrt@convarg+6,utoa@d+6
  4422   001766  C09E  F073         	movff	vfpfcnvrt@convarg+7,utoa@d+7
  4423   00176A  EC19  F010         	call	_utoa	;wreg free
  4424   00176E  EFEE  F00B         	goto	l1692
  4425   001772                     l6124:
  4426                           
  4427                           ; BSR set to: 0
  4428   001772  C09F  FFF6         	movff	vfpfcnvrt@cp,tblptrl
  4429   001776  C0A0  FFF7         	movff	vfpfcnvrt@cp+1,tblptrh
  4430   00177A                     	if	1	;Program memory is < 0x10000, tblptru is always zero
  4431   00177A  6AF8               	clrf	tblptru,c
  4432   00177C                     	endif
  4433   00177C                     	if	0	;tblptru may be non-zero
  4434   00177C                     	endif
  4435   00177C  0008               	tblrd		*
  4436   00177E  50F5               	movf	tablat,w,c
  4437   001780  6F93               	movwf	??_vfpfcnvrt& (0+255),b
  4438   001782  6B94               	clrf	(??_vfpfcnvrt+1)& (0+255),b
  4439                           
  4440                           ; Switch on 2 bytes has been partitioned into a top level switch of size 1, and 1 sub-sw
      +                          itches
  4441                           ; Switch size 1, requested type "simple"
  4442                           ; Number of cases is 1, Range of values is 0 to 0
  4443                           ; switch strategies available:
  4444                           ; Name         Instructions Cycles
  4445                           ; simple_byte            4     3 (average)
  4446                           ;	Chosen strategy is simple_byte
  4447   001784  5194               	movf	(??_vfpfcnvrt+1)& (0+255),w,b
  4448   001786  0A00               	xorlw	0	; case 0
  4449   001788  B4D8               	btfsc	status,2,c
  4450   00178A  EFC9  F00B         	goto	l6996
  4451   00178E  EFD0  F00B         	goto	l6126
  4452   001792                     l6996:
  4453                           
  4454                           ; BSR set to: 0
  4455                           ; Switch size 1, requested type "simple"
  4456                           ; Number of cases is 1, Range of values is 117 to 117
  4457                           ; switch strategies available:
  4458                           ; Name         Instructions Cycles
  4459                           ; simple_byte            4     3 (average)
  4460                           ;	Chosen strategy is simple_byte
  4461   001792  5193               	movf	??_vfpfcnvrt& (0+255),w,b
  4462   001794  0A75               	xorlw	117	; case 117
  4463   001796  B4D8               	btfsc	status,2,c
  4464   001798  EFA1  F00B         	goto	l6118
  4465   00179C  EFD0  F00B         	goto	l6126
  4466   0017A0                     l6126:
  4467                           
  4468                           ;C:\Program Files\Microchip\xc8\v2.40\pic\sources\c99\common\doprnt.c: 1509:         ++*
      +                          fmt;
  4469   0017A0  C08F  FFD9         	movff	vfpfcnvrt@fmt,fsr2l
  4470   0017A4  C090  FFDA         	movff	vfpfcnvrt@fmt+1,fsr2h
  4471   0017A8  2ADE               	incf	postinc2,f,c
  4472   0017AA  0E00               	movlw	0
  4473   0017AC  22DD               	addwfc	postdec2,f,c
  4474   0017AE  EFEE  F00B         	goto	l1692
  4475   0017B2                     l6130:
  4476                           
  4477                           ;C:\Program Files\Microchip\xc8\v2.40\pic\sources\c99\common\doprnt.c: 1514:     fputc((
      +                          int)(*fmt)[0], fp);
  4478   0017B2  C08F  FFD9         	movff	vfpfcnvrt@fmt,fsr2l
  4479   0017B6  C090  FFDA         	movff	vfpfcnvrt@fmt+1,fsr2h
  4480   0017BA  CFDE FFF6          	movff	postinc2,tblptrl
  4481   0017BE  CFDD FFF7          	movff	postdec2,tblptrh
  4482   0017C2                     	if	1	;Program memory is < 0x10000, tblptru is always zero
  4483   0017C2  6AF8               	clrf	tblptru,c
  4484   0017C4                     	endif
  4485   0017C4                     	if	0	;tblptru may be non-zero
  4486   0017C4                     	endif
  4487   0017C4  0008               	tblrd		*
  4488   0017C6  50F5               	movf	tablat,w,c
  4489   0017C8  6E1C               	movwf	fputc@c^0,c
  4490   0017CA  6A1D               	clrf	(fputc@c+1)^0,c
  4491   0017CC  C08D  F01E         	movff	vfpfcnvrt@fp,fputc@fp
  4492   0017D0  C08E  F01F         	movff	vfpfcnvrt@fp+1,fputc@fp+1
  4493   0017D4  EC42  F017         	call	_fputc	;wreg free
  4494   0017D8  EFD0  F00B         	goto	l6126
  4495   0017DC                     l1692:
  4496   0017DC  0012               	return		;funcret
  4497   0017DE                     __end_of_vfpfcnvrt:
  4498                           	callstack 0
  4499                           
  4500 ;; *************** function _utoa *****************
  4501 ;; Defined at:
  4502 ;;		line 894 in file "C:\Program Files\Microchip\xc8\v2.40\pic\sources\c99\common\doprnt.c"
  4503 ;; Parameters:    Size  Location     Type
  4504 ;;  fp              2   10[BANK0 ] PTR struct _IO_FILE
  4505 ;;		 -> NULL(0), 
  4506 ;;  d               8   12[BANK0 ] unsigned long long 
  4507 ;; Auto vars:     Size  Location     Type
  4508 ;;  n               8   32[BANK0 ] unsigned long long 
  4509 ;;  i               2   40[BANK0 ] int 
  4510 ;;  p               2   30[BANK0 ] int 
  4511 ;;  w               2   28[BANK0 ] int 
  4512 ;; Return value:  Size  Location     Type
  4513 ;;                  1    wreg      void 
  4514 ;; Registers used:
  4515 ;;		wreg, fsr1l, fsr1h, fsr2l, fsr2h, status,2, status,0, cstack
  4516 ;; Tracked objects:
  4517 ;;		On entry : 0/0
  4518 ;;		On exit  : 0/0
  4519 ;;		Unchanged: 0/0
  4520 ;; Data sizes:     COMRAM   BANK0   BANK1   BANK2   BANK3   BANK4   BANK5   BANK6   BANK7   BANK8   BANK9  BANK10  BANK1
      +1  BANK12  BANK13  BANK14
  4521 ;;      Params:         0      10       0       0       0       0       0       0       0       0       0       0       
      +0       0       0       0
  4522 ;;      Locals:         0      14       0       0       0       0       0       0       0       0       0       0       
      +0       0       0       0
  4523 ;;      Temps:          0       8       0       0       0       0       0       0       0       0       0       0       
      +0       0       0       0
  4524 ;;      Totals:         0      32       0       0       0       0       0       0       0       0       0       0       
      +0       0       0       0
  4525 ;;Total ram usage:       32 bytes
  4526 ;; Hardware stack levels used: 1
  4527 ;; Hardware stack levels required when called: 12
  4528 ;; This function calls:
  4529 ;;		___lodiv
  4530 ;;		___lomod
  4531 ;;		_pad
  4532 ;; This function is called by:
  4533 ;;		_vfpfcnvrt
  4534 ;; This function uses a non-reentrant model
  4535 ;;
  4536                           
  4537                           	psect	text19
  4538   002032                     __ptext19:
  4539                           	callstack 0
  4540   002032                     _utoa:
  4541                           	callstack 15
  4542   002032                     
  4543                           ;C:\Program Files\Microchip\xc8\v2.40\pic\sources\c99\common\doprnt.c: 894: static void 
      +                          utoa(FILE *fp, unsigned long long d);C:\Program Files\Microchip\xc8\v2.40\pic\sources\c9
      +                          9\common\doprnt.c: 895: {;C:\Program Files\Microchip\xc8\v2.40\pic\sources\c99\common\do
      +                          prnt.c: 896:     int i, p, w;;C:\Program Files\Microchip\xc8\v2.40\pic\sources\c99\commo
      +                          n\doprnt.c: 897:     unsigned long long n;;C:\Program Files\Microchip\xc8\v2.40\pic\sour
      +                          ces\c99\common\doprnt.c: 905:     p = (0 < prec) ? prec : 1;
  4544   002032  BE38               	btfsc	(_prec+1)^0,7,c
  4545   002034  EF26  F010         	goto	u4690
  4546   002038  5038               	movf	(_prec+1)^0,w,c
  4547   00203A  E106               	bnz	u4691
  4548   00203C  0437               	decf	_prec^0,w,c
  4549   00203E  B0D8               	btfsc	status,0,c
  4550   002040  EF24  F010         	goto	u4691
  4551   002044  EF26  F010         	goto	u4690
  4552   002048                     u4691:
  4553   002048  EF2D  F010         	goto	l1661
  4554   00204C                     u4690:
  4555   00204C  0E00               	movlw	0
  4556   00204E  0100               	movlb	0	; () banked
  4557   002050  6F7F               	movwf	(utoa@p+1)& (0+255),b
  4558   002052  0E01               	movlw	1
  4559   002054  6F7E               	movwf	utoa@p& (0+255),b
  4560   002056  EF31  F010         	goto	l1663
  4561   00205A                     l1661:
  4562   00205A  C037  F07E         	movff	_prec,utoa@p
  4563   00205E  C038  F07F         	movff	_prec+1,utoa@p+1
  4564   002062                     l1663:
  4565                           
  4566                           ;C:\Program Files\Microchip\xc8\v2.40\pic\sources\c99\common\doprnt.c: 906:     w = widt
      +                          h;
  4567   002062  C035  F07C         	movff	_width,utoa@w
  4568   002066  C036  F07D         	movff	_width+1,utoa@w+1
  4569                           
  4570                           ;C:\Program Files\Microchip\xc8\v2.40\pic\sources\c99\common\doprnt.c: 909:     n = d;
  4571   00206A  C06C  F080         	movff	utoa@d,utoa@n
  4572   00206E  C06D  F081         	movff	utoa@d+1,utoa@n+1
  4573   002072  C06E  F082         	movff	utoa@d+2,utoa@n+2
  4574   002076  C06F  F083         	movff	utoa@d+3,utoa@n+3
  4575   00207A  C070  F084         	movff	utoa@d+4,utoa@n+4
  4576   00207E  C071  F085         	movff	utoa@d+5,utoa@n+5
  4577   002082  C072  F086         	movff	utoa@d+6,utoa@n+6
  4578   002086  C073  F087         	movff	utoa@d+7,utoa@n+7
  4579   00208A                     
  4580                           ;C:\Program Files\Microchip\xc8\v2.40\pic\sources\c99\common\doprnt.c: 910:     i = size
      +                          of(dbuf) - 1;
  4581   00208A  0E00               	movlw	0
  4582   00208C  0100               	movlb	0	; () banked
  4583   00208E  6F89               	movwf	(utoa@i+1)& (0+255),b
  4584   002090  0E1F               	movlw	31
  4585   002092  6F88               	movwf	utoa@i& (0+255),b
  4586   002094                     
  4587                           ; BSR set to: 0
  4588                           ;C:\Program Files\Microchip\xc8\v2.40\pic\sources\c99\common\doprnt.c: 911:     dbuf[i] 
      +                          = '\0';
  4589   002094  0E00               	movlw	0
  4590   002096  6FF7               	movwf	(_dbuf+31)& (0+255),b
  4591                           
  4592                           ;C:\Program Files\Microchip\xc8\v2.40\pic\sources\c99\common\doprnt.c: 912:     while (i
      +                           && (n || (0 < p)
  4593   002098  EFC5  F010         	goto	l5994
  4594   00209C                     l5984:
  4595                           
  4596                           ; BSR set to: 0
  4597                           ;C:\Program Files\Microchip\xc8\v2.40\pic\sources\c99\common\doprnt.c: 916:     )) {;C:\
      +                          Program Files\Microchip\xc8\v2.40\pic\sources\c99\common\doprnt.c: 917:         --i;
  4598   00209C  0788               	decf	utoa@i& (0+255),f,b
  4599   00209E  A0D8               	btfss	status,0,c
  4600   0020A0  0789               	decf	(utoa@i+1)& (0+255),f,b
  4601   0020A2                     
  4602                           ; BSR set to: 0
  4603                           ;C:\Program Files\Microchip\xc8\v2.40\pic\sources\c99\common\doprnt.c: 918:         dbuf
      +                          [i] = '0' + (n % 10);
  4604   0020A2  0ED8               	movlw	low _dbuf
  4605   0020A4  2588               	addwf	utoa@i& (0+255),w,b
  4606   0020A6  6ED9               	movwf	fsr2l,c
  4607   0020A8  0E00               	movlw	high _dbuf
  4608   0020AA  2189               	addwfc	(utoa@i+1)& (0+255),w,b
  4609   0020AC  6EDA               	movwf	fsr2h,c
  4610   0020AE  C080  F01A         	movff	utoa@n,___lomod@dividend
  4611   0020B2  C081  F01B         	movff	utoa@n+1,___lomod@dividend+1
  4612   0020B6  C082  F01C         	movff	utoa@n+2,___lomod@dividend+2
  4613   0020BA  C083  F01D         	movff	utoa@n+3,___lomod@dividend+3
  4614   0020BE  C084  F01E         	movff	utoa@n+4,___lomod@dividend+4
  4615   0020C2  C085  F01F         	movff	utoa@n+5,___lomod@dividend+5
  4616   0020C6  C086  F020         	movff	utoa@n+6,___lomod@dividend+6
  4617   0020CA  C087  F021         	movff	utoa@n+7,___lomod@dividend+7
  4618   0020CE  0E0A               	movlw	10
  4619   0020D0  6E22               	movwf	___lomod@divisor^0,c
  4620   0020D2  0E00               	movlw	0
  4621   0020D4  6E23               	movwf	(___lomod@divisor+1)^0,c
  4622   0020D6  0E00               	movlw	0
  4623   0020D8  6E24               	movwf	(___lomod@divisor+2)^0,c
  4624   0020DA  0E00               	movlw	0
  4625   0020DC  6E25               	movwf	(___lomod@divisor+3)^0,c
  4626   0020DE  0E00               	movlw	0
  4627   0020E0  6E26               	movwf	(___lomod@divisor+4)^0,c
  4628   0020E2  0E00               	movlw	0
  4629   0020E4  6E27               	movwf	(___lomod@divisor+5)^0,c
  4630   0020E6  0E00               	movlw	0
  4631   0020E8  6E28               	movwf	(___lomod@divisor+6)^0,c
  4632   0020EA  0E00               	movlw	0
  4633   0020EC  6E29               	movwf	(___lomod@divisor+7)^0,c
  4634   0020EE  EC7F  F015         	call	___lomod	;wreg free
  4635   0020F2  C01A  F074         	movff	?___lomod,??_utoa
  4636   0020F6  C01B  F075         	movff	?___lomod+1,??_utoa+1
  4637   0020FA  C01C  F076         	movff	?___lomod+2,??_utoa+2
  4638   0020FE  C01D  F077         	movff	?___lomod+3,??_utoa+3
  4639   002102  C01E  F078         	movff	?___lomod+4,??_utoa+4
  4640   002106  C01F  F079         	movff	?___lomod+5,??_utoa+5
  4641   00210A  C020  F07A         	movff	?___lomod+6,??_utoa+6
  4642   00210E  C021  F07B         	movff	?___lomod+7,??_utoa+7
  4643   002112  0100               	movlb	0	; () banked
  4644   002114  5174               	movf	??_utoa& (0+255),w,b
  4645   002116  0F30               	addlw	48
  4646   002118  6EDF               	movwf	indf2,c
  4647   00211A                     
  4648                           ; BSR set to: 0
  4649                           ;C:\Program Files\Microchip\xc8\v2.40\pic\sources\c99\common\doprnt.c: 919:         --p;
  4650   00211A  077E               	decf	utoa@p& (0+255),f,b
  4651   00211C  A0D8               	btfss	status,0,c
  4652   00211E  077F               	decf	(utoa@p+1)& (0+255),f,b
  4653   002120                     
  4654                           ; BSR set to: 0
  4655                           ;C:\Program Files\Microchip\xc8\v2.40\pic\sources\c99\common\doprnt.c: 920:         --w;
  4656   002120  077C               	decf	utoa@w& (0+255),f,b
  4657   002122  A0D8               	btfss	status,0,c
  4658   002124  077D               	decf	(utoa@w+1)& (0+255),f,b
  4659   002126                     
  4660                           ; BSR set to: 0
  4661                           ;C:\Program Files\Microchip\xc8\v2.40\pic\sources\c99\common\doprnt.c: 921:         n = 
      +                          n / 10;
  4662   002126  C080  F01A         	movff	utoa@n,___lodiv@dividend
  4663   00212A  C081  F01B         	movff	utoa@n+1,___lodiv@dividend+1
  4664   00212E  C082  F01C         	movff	utoa@n+2,___lodiv@dividend+2
  4665   002132  C083  F01D         	movff	utoa@n+3,___lodiv@dividend+3
  4666   002136  C084  F01E         	movff	utoa@n+4,___lodiv@dividend+4
  4667   00213A  C085  F01F         	movff	utoa@n+5,___lodiv@dividend+5
  4668   00213E  C086  F020         	movff	utoa@n+6,___lodiv@dividend+6
  4669   002142  C087  F021         	movff	utoa@n+7,___lodiv@dividend+7
  4670   002146  0E0A               	movlw	10
  4671   002148  6E22               	movwf	___lodiv@divisor^0,c
  4672   00214A  0E00               	movlw	0
  4673   00214C  6E23               	movwf	(___lodiv@divisor+1)^0,c
  4674   00214E  0E00               	movlw	0
  4675   002150  6E24               	movwf	(___lodiv@divisor+2)^0,c
  4676   002152  0E00               	movlw	0
  4677   002154  6E25               	movwf	(___lodiv@divisor+3)^0,c
  4678   002156  0E00               	movlw	0
  4679   002158  6E26               	movwf	(___lodiv@divisor+4)^0,c
  4680   00215A  0E00               	movlw	0
  4681   00215C  6E27               	movwf	(___lodiv@divisor+5)^0,c
  4682   00215E  0E00               	movlw	0
  4683   002160  6E28               	movwf	(___lodiv@divisor+6)^0,c
  4684   002162  0E00               	movlw	0
  4685   002164  6E29               	movwf	(___lodiv@divisor+7)^0,c
  4686   002166  EC06  F015         	call	___lodiv	;wreg free
  4687   00216A  C01A  F080         	movff	?___lodiv,utoa@n
  4688   00216E  C01B  F081         	movff	?___lodiv+1,utoa@n+1
  4689   002172  C01C  F082         	movff	?___lodiv+2,utoa@n+2
  4690   002176  C01D  F083         	movff	?___lodiv+3,utoa@n+3
  4691   00217A  C01E  F084         	movff	?___lodiv+4,utoa@n+4
  4692   00217E  C01F  F085         	movff	?___lodiv+5,utoa@n+5
  4693   002182  C020  F086         	movff	?___lodiv+6,utoa@n+6
  4694   002186  C021  F087         	movff	?___lodiv+7,utoa@n+7
  4695   00218A                     l5994:
  4696                           
  4697                           ;C:\Program Files\Microchip\xc8\v2.40\pic\sources\c99\common\doprnt.c: 912:     while (i
      +                           && (n || (0 < p)
  4698   00218A  0100               	movlb	0	; () banked
  4699   00218C  5188               	movf	utoa@i& (0+255),w,b
  4700   00218E  1189               	iorwf	(utoa@i+1)& (0+255),w,b
  4701   002190  B4D8               	btfsc	status,2,c
  4702   002192  EFCD  F010         	goto	u4701
  4703   002196  EFCF  F010         	goto	u4700
  4704   00219A                     u4701:
  4705   00219A  EFEB  F010         	goto	l6000
  4706   00219E                     u4700:
  4707   00219E                     
  4708                           ; BSR set to: 0
  4709   00219E  5180               	movf	utoa@n& (0+255),w,b
  4710   0021A0  1181               	iorwf	(utoa@n+1)& (0+255),w,b
  4711   0021A2  1182               	iorwf	(utoa@n+2)& (0+255),w,b
  4712   0021A4  1183               	iorwf	(utoa@n+3)& (0+255),w,b
  4713   0021A6  1184               	iorwf	(utoa@n+4)& (0+255),w,b
  4714   0021A8  1185               	iorwf	(utoa@n+5)& (0+255),w,b
  4715   0021AA  1186               	iorwf	(utoa@n+6)& (0+255),w,b
  4716   0021AC  1187               	iorwf	(utoa@n+7)& (0+255),w,b
  4717   0021AE  A4D8               	btfss	status,2,c
  4718   0021B0  EFDC  F010         	goto	u4711
  4719   0021B4  EFDE  F010         	goto	u4710
  4720   0021B8                     u4711:
  4721   0021B8  EF4E  F010         	goto	l5984
  4722   0021BC                     u4710:
  4723   0021BC                     
  4724                           ; BSR set to: 0
  4725   0021BC  BF7F               	btfsc	(utoa@p+1)& (0+255),7,b
  4726   0021BE  EFEB  F010         	goto	u4720
  4727   0021C2  517F               	movf	(utoa@p+1)& (0+255),w,b
  4728   0021C4  E106               	bnz	u4721
  4729   0021C6  057E               	decf	utoa@p& (0+255),w,b
  4730   0021C8  B0D8               	btfsc	status,0,c
  4731   0021CA  EFE9  F010         	goto	u4721
  4732   0021CE  EFEB  F010         	goto	u4720
  4733   0021D2                     u4721:
  4734   0021D2  EF4E  F010         	goto	l5984
  4735   0021D6                     u4720:
  4736   0021D6                     l6000:
  4737                           
  4738                           ; BSR set to: 0
  4739                           ;C:\Program Files\Microchip\xc8\v2.40\pic\sources\c99\common\doprnt.c: 925:     return (
      +                          void) pad(fp, &dbuf[i], w);
  4740   0021D6  C06A  F060         	movff	utoa@fp,pad@fp
  4741   0021DA  C06B  F061         	movff	utoa@fp+1,pad@fp+1
  4742   0021DE  0ED8               	movlw	low _dbuf
  4743   0021E0  2588               	addwf	utoa@i& (0+255),w,b
  4744   0021E2  6F62               	movwf	pad@buf& (0+255),b
  4745   0021E4  0E00               	movlw	high _dbuf
  4746   0021E6  2189               	addwfc	(utoa@i+1)& (0+255),w,b
  4747   0021E8  6F63               	movwf	(pad@buf+1)& (0+255),b
  4748   0021EA  C07C  F064         	movff	utoa@w,pad@p
  4749   0021EE  C07D  F065         	movff	utoa@w+1,pad@p+1
  4750   0021F2  EC49  F016         	call	_pad	;wreg free
  4751   0021F6  0012               	return		;funcret
  4752   0021F8                     __end_of_utoa:
  4753                           	callstack 0
  4754                           
  4755 ;; *************** function ___lomod *****************
  4756 ;; Defined at:
  4757 ;;		line 9 in file "C:\Program Files\Microchip\xc8\v2.40\pic\sources\c99\common\lomod.c"
  4758 ;; Parameters:    Size  Location     Type
  4759 ;;  dividend        8   25[COMRAM] unsigned long long 
  4760 ;;  divisor         8   33[COMRAM] unsigned long long 
  4761 ;; Auto vars:     Size  Location     Type
  4762 ;;  counter         1   41[COMRAM] unsigned char 
  4763 ;; Return value:  Size  Location     Type
  4764 ;;                  8   25[COMRAM] unsigned long long 
  4765 ;; Registers used:
  4766 ;;		wreg, status,2, status,0
  4767 ;; Tracked objects:
  4768 ;;		On entry : 0/0
  4769 ;;		On exit  : 0/0
  4770 ;;		Unchanged: 0/0
  4771 ;; Data sizes:     COMRAM   BANK0   BANK1   BANK2   BANK3   BANK4   BANK5   BANK6   BANK7   BANK8   BANK9  BANK10  BANK1
      +1  BANK12  BANK13  BANK14
  4772 ;;      Params:        16       0       0       0       0       0       0       0       0       0       0       0       
      +0       0       0       0
  4773 ;;      Locals:         1       0       0       0       0       0       0       0       0       0       0       0       
      +0       0       0       0
  4774 ;;      Temps:          0       0       0       0       0       0       0       0       0       0       0       0       
      +0       0       0       0
  4775 ;;      Totals:        17       0       0       0       0       0       0       0       0       0       0       0       
      +0       0       0       0
  4776 ;;Total ram usage:       17 bytes
  4777 ;; Hardware stack levels used: 1
  4778 ;; Hardware stack levels required when called: 7
  4779 ;; This function calls:
  4780 ;;		Nothing
  4781 ;; This function is called by:
  4782 ;;		_utoa
  4783 ;; This function uses a non-reentrant model
  4784 ;;
  4785                           
  4786                           	psect	text20
  4787   002AFE                     __ptext20:
  4788                           	callstack 0
  4789   002AFE                     ___lomod:
  4790                           	callstack 19
  4791   002AFE  5022               	movf	___lomod@divisor^0,w,c
  4792   002B00  1023               	iorwf	(___lomod@divisor+1)^0,w,c
  4793   002B02  1024               	iorwf	(___lomod@divisor+2)^0,w,c
  4794   002B04  1025               	iorwf	(___lomod@divisor+3)^0,w,c
  4795   002B06  1026               	iorwf	(___lomod@divisor+4)^0,w,c
  4796   002B08  1027               	iorwf	(___lomod@divisor+5)^0,w,c
  4797   002B0A  1028               	iorwf	(___lomod@divisor+6)^0,w,c
  4798   002B0C  1029               	iorwf	(___lomod@divisor+7)^0,w,c
  4799   002B0E  B4D8               	btfsc	status,2,c
  4800   002B10  EF8C  F015         	goto	u4431
  4801   002B14  EF8E  F015         	goto	u4430
  4802   002B18                     u4431:
  4803   002B18  EFD6  F015         	goto	l1376
  4804   002B1C                     u4430:
  4805   002B1C  0E01               	movlw	1
  4806   002B1E  6E2A               	movwf	___lomod@counter^0,c
  4807   002B20  EF9C  F015         	goto	l5838
  4808   002B24                     l5836:
  4809   002B24  90D8               	bcf	status,0,c
  4810   002B26  3622               	rlcf	___lomod@divisor^0,f,c
  4811   002B28  3623               	rlcf	(___lomod@divisor+1)^0,f,c
  4812   002B2A  3624               	rlcf	(___lomod@divisor+2)^0,f,c
  4813   002B2C  3625               	rlcf	(___lomod@divisor+3)^0,f,c
  4814   002B2E  3626               	rlcf	(___lomod@divisor+4)^0,f,c
  4815   002B30  3627               	rlcf	(___lomod@divisor+5)^0,f,c
  4816   002B32  3628               	rlcf	(___lomod@divisor+6)^0,f,c
  4817   002B34  3629               	rlcf	(___lomod@divisor+7)^0,f,c
  4818   002B36  2A2A               	incf	___lomod@counter^0,f,c
  4819   002B38                     l5838:
  4820   002B38  AE29               	btfss	(___lomod@divisor+7)^0,7,c
  4821   002B3A  EFA1  F015         	goto	u4441
  4822   002B3E  EFA3  F015         	goto	u4440
  4823   002B42                     u4441:
  4824   002B42  EF92  F015         	goto	l5836
  4825   002B46                     u4440:
  4826   002B46                     l5840:
  4827   002B46  5022               	movf	___lomod@divisor^0,w,c
  4828   002B48  5C1A               	subwf	___lomod@dividend^0,w,c
  4829   002B4A  5023               	movf	(___lomod@divisor+1)^0,w,c
  4830   002B4C  581B               	subwfb	(___lomod@dividend+1)^0,w,c
  4831   002B4E  5024               	movf	(___lomod@divisor+2)^0,w,c
  4832   002B50  581C               	subwfb	(___lomod@dividend+2)^0,w,c
  4833   002B52  5025               	movf	(___lomod@divisor+3)^0,w,c
  4834   002B54  581D               	subwfb	(___lomod@dividend+3)^0,w,c
  4835   002B56  5026               	movf	(___lomod@divisor+4)^0,w,c
  4836   002B58  581E               	subwfb	(___lomod@dividend+4)^0,w,c
  4837   002B5A  5027               	movf	(___lomod@divisor+5)^0,w,c
  4838   002B5C  581F               	subwfb	(___lomod@dividend+5)^0,w,c
  4839   002B5E  5028               	movf	(___lomod@divisor+6)^0,w,c
  4840   002B60  5820               	subwfb	(___lomod@dividend+6)^0,w,c
  4841   002B62  5029               	movf	(___lomod@divisor+7)^0,w,c
  4842   002B64  5821               	subwfb	(___lomod@dividend+7)^0,w,c
  4843   002B66  A0D8               	btfss	status,0,c
  4844   002B68  EFB8  F015         	goto	u4451
  4845   002B6C  EFBA  F015         	goto	u4450
  4846   002B70                     u4451:
  4847   002B70  EFCA  F015         	goto	l5844
  4848   002B74                     u4450:
  4849   002B74  5022               	movf	___lomod@divisor^0,w,c
  4850   002B76  5E1A               	subwf	___lomod@dividend^0,f,c
  4851   002B78  5023               	movf	(___lomod@divisor+1)^0,w,c
  4852   002B7A  5A1B               	subwfb	(___lomod@dividend+1)^0,f,c
  4853   002B7C  5024               	movf	(___lomod@divisor+2)^0,w,c
  4854   002B7E  5A1C               	subwfb	(___lomod@dividend+2)^0,f,c
  4855   002B80  5025               	movf	(___lomod@divisor+3)^0,w,c
  4856   002B82  5A1D               	subwfb	(___lomod@dividend+3)^0,f,c
  4857   002B84  5026               	movf	(___lomod@divisor+4)^0,w,c
  4858   002B86  5A1E               	subwfb	(___lomod@dividend+4)^0,f,c
  4859   002B88  5027               	movf	(___lomod@divisor+5)^0,w,c
  4860   002B8A  5A1F               	subwfb	(___lomod@dividend+5)^0,f,c
  4861   002B8C  5028               	movf	(___lomod@divisor+6)^0,w,c
  4862   002B8E  5A20               	subwfb	(___lomod@dividend+6)^0,f,c
  4863   002B90  5029               	movf	(___lomod@divisor+7)^0,w,c
  4864   002B92  5A21               	subwfb	(___lomod@dividend+7)^0,f,c
  4865   002B94                     l5844:
  4866   002B94  90D8               	bcf	status,0,c
  4867   002B96  3229               	rrcf	(___lomod@divisor+7)^0,f,c
  4868   002B98  3228               	rrcf	(___lomod@divisor+6)^0,f,c
  4869   002B9A  3227               	rrcf	(___lomod@divisor+5)^0,f,c
  4870   002B9C  3226               	rrcf	(___lomod@divisor+4)^0,f,c
  4871   002B9E  3225               	rrcf	(___lomod@divisor+3)^0,f,c
  4872   002BA0  3224               	rrcf	(___lomod@divisor+2)^0,f,c
  4873   002BA2  3223               	rrcf	(___lomod@divisor+1)^0,f,c
  4874   002BA4  3222               	rrcf	___lomod@divisor^0,f,c
  4875   002BA6  2E2A               	decfsz	___lomod@counter^0,f,c
  4876   002BA8  EFA3  F015         	goto	l5840
  4877   002BAC                     l1376:
  4878   002BAC  C01A  F01A         	movff	___lomod@dividend,?___lomod
  4879   002BB0  C01B  F01B         	movff	___lomod@dividend+1,?___lomod+1
  4880   002BB4  C01C  F01C         	movff	___lomod@dividend+2,?___lomod+2
  4881   002BB8  C01D  F01D         	movff	___lomod@dividend+3,?___lomod+3
  4882   002BBC  C01E  F01E         	movff	___lomod@dividend+4,?___lomod+4
  4883   002BC0  C01F  F01F         	movff	___lomod@dividend+5,?___lomod+5
  4884   002BC4  C020  F020         	movff	___lomod@dividend+6,?___lomod+6
  4885   002BC8  C021  F021         	movff	___lomod@dividend+7,?___lomod+7
  4886   002BCC  0012               	return		;funcret
  4887   002BCE                     __end_of___lomod:
  4888                           	callstack 0
  4889                           
  4890 ;; *************** function ___lodiv *****************
  4891 ;; Defined at:
  4892 ;;		line 9 in file "C:\Program Files\Microchip\xc8\v2.40\pic\sources\c99\common\lodiv.c"
  4893 ;; Parameters:    Size  Location     Type
  4894 ;;  dividend        8   25[COMRAM] unsigned long long 
  4895 ;;  divisor         8   33[COMRAM] unsigned long long 
  4896 ;; Auto vars:     Size  Location     Type
  4897 ;;  quotient        8    0[BANK0 ] unsigned long long 
  4898 ;;  counter         1    8[BANK0 ] unsigned char 
  4899 ;; Return value:  Size  Location     Type
  4900 ;;                  8   25[COMRAM] unsigned long long 
  4901 ;; Registers used:
  4902 ;;		wreg, fsr2l, fsr2h, status,2, status,0
  4903 ;; Tracked objects:
  4904 ;;		On entry : 0/0
  4905 ;;		On exit  : 0/0
  4906 ;;		Unchanged: 0/0
  4907 ;; Data sizes:     COMRAM   BANK0   BANK1   BANK2   BANK3   BANK4   BANK5   BANK6   BANK7   BANK8   BANK9  BANK10  BANK1
      +1  BANK12  BANK13  BANK14
  4908 ;;      Params:        16       0       0       0       0       0       0       0       0       0       0       0       
      +0       0       0       0
  4909 ;;      Locals:         0       9       0       0       0       0       0       0       0       0       0       0       
      +0       0       0       0
  4910 ;;      Temps:          0       0       0       0       0       0       0       0       0       0       0       0       
      +0       0       0       0
  4911 ;;      Totals:        16       9       0       0       0       0       0       0       0       0       0       0       
      +0       0       0       0
  4912 ;;Total ram usage:       25 bytes
  4913 ;; Hardware stack levels used: 1
  4914 ;; Hardware stack levels required when called: 7
  4915 ;; This function calls:
  4916 ;;		Nothing
  4917 ;; This function is called by:
  4918 ;;		_utoa
  4919 ;; This function uses a non-reentrant model
  4920 ;;
  4921                           
  4922                           	psect	text21
  4923   002A0C                     __ptext21:
  4924                           	callstack 0
  4925   002A0C                     ___lodiv:
  4926                           	callstack 19
  4927   002A0C  EE20  F060         	lfsr	2,___lodiv@quotient
  4928   002A10  0E07               	movlw	7
  4929   002A12                     u4391:
  4930   002A12  6ADE               	clrf	postinc2,c
  4931   002A14  06E8               	decf	wreg,f,c
  4932   002A16  E2FD               	bc	u4391
  4933   002A18  5022               	movf	___lodiv@divisor^0,w,c
  4934   002A1A  1023               	iorwf	(___lodiv@divisor+1)^0,w,c
  4935   002A1C  1024               	iorwf	(___lodiv@divisor+2)^0,w,c
  4936   002A1E  1025               	iorwf	(___lodiv@divisor+3)^0,w,c
  4937   002A20  1026               	iorwf	(___lodiv@divisor+4)^0,w,c
  4938   002A22  1027               	iorwf	(___lodiv@divisor+5)^0,w,c
  4939   002A24  1028               	iorwf	(___lodiv@divisor+6)^0,w,c
  4940   002A26  1029               	iorwf	(___lodiv@divisor+7)^0,w,c
  4941   002A28  B4D8               	btfsc	status,2,c
  4942   002A2A  EF19  F015         	goto	u4401
  4943   002A2E  EF1B  F015         	goto	u4400
  4944   002A32                     u4401:
  4945   002A32  EF6E  F015         	goto	l1366
  4946   002A36                     u4400:
  4947   002A36  0E01               	movlw	1
  4948   002A38  0100               	movlb	0	; () banked
  4949   002A3A  6F68               	movwf	___lodiv@counter& (0+255),b
  4950   002A3C  EF2A  F015         	goto	l5818
  4951   002A40                     l5816:
  4952                           
  4953                           ; BSR set to: 0
  4954   002A40  90D8               	bcf	status,0,c
  4955   002A42  3622               	rlcf	___lodiv@divisor^0,f,c
  4956   002A44  3623               	rlcf	(___lodiv@divisor+1)^0,f,c
  4957   002A46  3624               	rlcf	(___lodiv@divisor+2)^0,f,c
  4958   002A48  3625               	rlcf	(___lodiv@divisor+3)^0,f,c
  4959   002A4A  3626               	rlcf	(___lodiv@divisor+4)^0,f,c
  4960   002A4C  3627               	rlcf	(___lodiv@divisor+5)^0,f,c
  4961   002A4E  3628               	rlcf	(___lodiv@divisor+6)^0,f,c
  4962   002A50  3629               	rlcf	(___lodiv@divisor+7)^0,f,c
  4963   002A52  2B68               	incf	___lodiv@counter& (0+255),f,b
  4964   002A54                     l5818:
  4965                           
  4966                           ; BSR set to: 0
  4967   002A54  AE29               	btfss	(___lodiv@divisor+7)^0,7,c
  4968   002A56  EF2F  F015         	goto	u4411
  4969   002A5A  EF31  F015         	goto	u4410
  4970   002A5E                     u4411:
  4971   002A5E  EF20  F015         	goto	l5816
  4972   002A62                     u4410:
  4973   002A62                     l5820:
  4974                           
  4975                           ; BSR set to: 0
  4976   002A62  90D8               	bcf	status,0,c
  4977   002A64  3760               	rlcf	___lodiv@quotient& (0+255),f,b
  4978   002A66  3761               	rlcf	(___lodiv@quotient+1)& (0+255),f,b
  4979   002A68  3762               	rlcf	(___lodiv@quotient+2)& (0+255),f,b
  4980   002A6A  3763               	rlcf	(___lodiv@quotient+3)& (0+255),f,b
  4981   002A6C  3764               	rlcf	(___lodiv@quotient+4)& (0+255),f,b
  4982   002A6E  3765               	rlcf	(___lodiv@quotient+5)& (0+255),f,b
  4983   002A70  3766               	rlcf	(___lodiv@quotient+6)& (0+255),f,b
  4984   002A72  3767               	rlcf	(___lodiv@quotient+7)& (0+255),f,b
  4985   002A74                     
  4986                           ; BSR set to: 0
  4987   002A74  5022               	movf	___lodiv@divisor^0,w,c
  4988   002A76  5C1A               	subwf	___lodiv@dividend^0,w,c
  4989   002A78  5023               	movf	(___lodiv@divisor+1)^0,w,c
  4990   002A7A  581B               	subwfb	(___lodiv@dividend+1)^0,w,c
  4991   002A7C  5024               	movf	(___lodiv@divisor+2)^0,w,c
  4992   002A7E  581C               	subwfb	(___lodiv@dividend+2)^0,w,c
  4993   002A80  5025               	movf	(___lodiv@divisor+3)^0,w,c
  4994   002A82  581D               	subwfb	(___lodiv@dividend+3)^0,w,c
  4995   002A84  5026               	movf	(___lodiv@divisor+4)^0,w,c
  4996   002A86  581E               	subwfb	(___lodiv@dividend+4)^0,w,c
  4997   002A88  5027               	movf	(___lodiv@divisor+5)^0,w,c
  4998   002A8A  581F               	subwfb	(___lodiv@dividend+5)^0,w,c
  4999   002A8C  5028               	movf	(___lodiv@divisor+6)^0,w,c
  5000   002A8E  5820               	subwfb	(___lodiv@dividend+6)^0,w,c
  5001   002A90  5029               	movf	(___lodiv@divisor+7)^0,w,c
  5002   002A92  5821               	subwfb	(___lodiv@dividend+7)^0,w,c
  5003   002A94  A0D8               	btfss	status,0,c
  5004   002A96  EF4F  F015         	goto	u4421
  5005   002A9A  EF51  F015         	goto	u4420
  5006   002A9E                     u4421:
  5007   002A9E  EF62  F015         	goto	l5828
  5008   002AA2                     u4420:
  5009   002AA2                     
  5010                           ; BSR set to: 0
  5011   002AA2  5022               	movf	___lodiv@divisor^0,w,c
  5012   002AA4  5E1A               	subwf	___lodiv@dividend^0,f,c
  5013   002AA6  5023               	movf	(___lodiv@divisor+1)^0,w,c
  5014   002AA8  5A1B               	subwfb	(___lodiv@dividend+1)^0,f,c
  5015   002AAA  5024               	movf	(___lodiv@divisor+2)^0,w,c
  5016   002AAC  5A1C               	subwfb	(___lodiv@dividend+2)^0,f,c
  5017   002AAE  5025               	movf	(___lodiv@divisor+3)^0,w,c
  5018   002AB0  5A1D               	subwfb	(___lodiv@dividend+3)^0,f,c
  5019   002AB2  5026               	movf	(___lodiv@divisor+4)^0,w,c
  5020   002AB4  5A1E               	subwfb	(___lodiv@dividend+4)^0,f,c
  5021   002AB6  5027               	movf	(___lodiv@divisor+5)^0,w,c
  5022   002AB8  5A1F               	subwfb	(___lodiv@dividend+5)^0,f,c
  5023   002ABA  5028               	movf	(___lodiv@divisor+6)^0,w,c
  5024   002ABC  5A20               	subwfb	(___lodiv@dividend+6)^0,f,c
  5025   002ABE  5029               	movf	(___lodiv@divisor+7)^0,w,c
  5026   002AC0  5A21               	subwfb	(___lodiv@dividend+7)^0,f,c
  5027   002AC2                     
  5028                           ; BSR set to: 0
  5029   002AC2  8160               	bsf	___lodiv@quotient& (0+255),0,b
  5030   002AC4                     l5828:
  5031                           
  5032                           ; BSR set to: 0
  5033   002AC4  90D8               	bcf	status,0,c
  5034   002AC6  3229               	rrcf	(___lodiv@divisor+7)^0,f,c
  5035   002AC8  3228               	rrcf	(___lodiv@divisor+6)^0,f,c
  5036   002ACA  3227               	rrcf	(___lodiv@divisor+5)^0,f,c
  5037   002ACC  3226               	rrcf	(___lodiv@divisor+4)^0,f,c
  5038   002ACE  3225               	rrcf	(___lodiv@divisor+3)^0,f,c
  5039   002AD0  3224               	rrcf	(___lodiv@divisor+2)^0,f,c
  5040   002AD2  3223               	rrcf	(___lodiv@divisor+1)^0,f,c
  5041   002AD4  3222               	rrcf	___lodiv@divisor^0,f,c
  5042   002AD6                     
  5043                           ; BSR set to: 0
  5044   002AD6  2F68               	decfsz	___lodiv@counter& (0+255),f,b
  5045   002AD8  EF31  F015         	goto	l5820
  5046   002ADC                     l1366:
  5047   002ADC  C060  F01A         	movff	___lodiv@quotient,?___lodiv
  5048   002AE0  C061  F01B         	movff	___lodiv@quotient+1,?___lodiv+1
  5049   002AE4  C062  F01C         	movff	___lodiv@quotient+2,?___lodiv+2
  5050   002AE8  C063  F01D         	movff	___lodiv@quotient+3,?___lodiv+3
  5051   002AEC  C064  F01E         	movff	___lodiv@quotient+4,?___lodiv+4
  5052   002AF0  C065  F01F         	movff	___lodiv@quotient+5,?___lodiv+5
  5053   002AF4  C066  F020         	movff	___lodiv@quotient+6,?___lodiv+6
  5054   002AF8  C067  F021         	movff	___lodiv@quotient+7,?___lodiv+7
  5055   002AFC  0012               	return		;funcret
  5056   002AFE                     __end_of___lodiv:
  5057                           	callstack 0
  5058                           
  5059 ;; *************** function _dtoa *****************
  5060 ;; Defined at:
  5061 ;;		line 443 in file "C:\Program Files\Microchip\xc8\v2.40\pic\sources\c99\common\doprnt.c"
  5062 ;; Parameters:    Size  Location     Type
  5063 ;;  fp              2   10[BANK0 ] PTR struct _IO_FILE
  5064 ;;		 -> NULL(0), 
  5065 ;;  d               8   12[BANK0 ] long long 
  5066 ;; Auto vars:     Size  Location     Type
  5067 ;;  n               8   34[BANK0 ] long long 
  5068 ;;  i               2   43[BANK0 ] int 
  5069 ;;  w               2   32[BANK0 ] int 
  5070 ;;  p               2   30[BANK0 ] int 
  5071 ;;  s               1   42[BANK0 ] unsigned char 
  5072 ;; Return value:  Size  Location     Type
  5073 ;;                  1    wreg      void 
  5074 ;; Registers used:
  5075 ;;		wreg, fsr1l, fsr1h, fsr2l, fsr2h, status,2, status,0, cstack
  5076 ;; Tracked objects:
  5077 ;;		On entry : 0/0
  5078 ;;		On exit  : 0/0
  5079 ;;		Unchanged: 0/0
  5080 ;; Data sizes:     COMRAM   BANK0   BANK1   BANK2   BANK3   BANK4   BANK5   BANK6   BANK7   BANK8   BANK9  BANK10  BANK1
      +1  BANK12  BANK13  BANK14
  5081 ;;      Params:         0      10       0       0       0       0       0       0       0       0       0       0       
      +0       0       0       0
  5082 ;;      Locals:         0      17       0       0       0       0       0       0       0       0       0       0       
      +0       0       0       0
  5083 ;;      Temps:          0       8       0       0       0       0       0       0       0       0       0       0       
      +0       0       0       0
  5084 ;;      Totals:         0      35       0       0       0       0       0       0       0       0       0       0       
      +0       0       0       0
  5085 ;;Total ram usage:       35 bytes
  5086 ;; Hardware stack levels used: 1
  5087 ;; Hardware stack levels required when called: 12
  5088 ;; This function calls:
  5089 ;;		___aodiv
  5090 ;;		___aomod
  5091 ;;		_abs
  5092 ;;		_pad
  5093 ;; This function is called by:
  5094 ;;		_vfpfcnvrt
  5095 ;; This function uses a non-reentrant model
  5096 ;;
  5097                           
  5098                           	psect	text22
  5099   001B7A                     __ptext22:
  5100                           	callstack 0
  5101   001B7A                     _dtoa:
  5102                           	callstack 15
  5103   001B7A                     
  5104                           ;C:\Program Files\Microchip\xc8\v2.40\pic\sources\c99\common\doprnt.c: 443: static void 
      +                          dtoa(FILE *fp, long long d);C:\Program Files\Microchip\xc8\v2.40\pic\sources\c99\common\
      +                          doprnt.c: 444: {;C:\Program Files\Microchip\xc8\v2.40\pic\sources\c99\common\doprnt.c: 4
      +                          45:  char s;;C:\Program Files\Microchip\xc8\v2.40\pic\sources\c99\common\doprnt.c: 446: 
      +                              int i, p, w;;C:\Program Files\Microchip\xc8\v2.40\pic\sources\c99\common\doprnt.c: 4
      +                          47:     long long n;;C:\Program Files\Microchip\xc8\v2.40\pic\sources\c99\common\doprnt.
      +                          c: 450:     n = d;
  5105   001B7A  C06C  F082         	movff	dtoa@d,dtoa@n
  5106   001B7E  C06D  F083         	movff	dtoa@d+1,dtoa@n+1
  5107   001B82  C06E  F084         	movff	dtoa@d+2,dtoa@n+2
  5108   001B86  C06F  F085         	movff	dtoa@d+3,dtoa@n+3
  5109   001B8A  C070  F086         	movff	dtoa@d+4,dtoa@n+4
  5110   001B8E  C071  F087         	movff	dtoa@d+5,dtoa@n+5
  5111   001B92  C072  F088         	movff	dtoa@d+6,dtoa@n+6
  5112   001B96  C073  F089         	movff	dtoa@d+7,dtoa@n+7
  5113   001B9A                     
  5114                           ;C:\Program Files\Microchip\xc8\v2.40\pic\sources\c99\common\doprnt.c: 451:     s = n < 
      +                          0 ? 1 : 0;
  5115   001B9A  0100               	movlb	0	; () banked
  5116   001B9C  BF89               	btfsc	(dtoa@n+7)& (0+255),7,b
  5117   001B9E  EFD3  F00D         	goto	u4591
  5118   001BA2  EFD6  F00D         	goto	u4590
  5119   001BA6                     u4591:
  5120   001BA6  0E01               	movlw	1
  5121   001BA8  EFD7  F00D         	goto	u4600
  5122   001BAC                     u4590:
  5123   001BAC  0E00               	movlw	0
  5124   001BAE                     u4600:
  5125   001BAE  6F8A               	movwf	dtoa@s& (0+255),b
  5126   001BB0                     
  5127                           ; BSR set to: 0
  5128                           ;C:\Program Files\Microchip\xc8\v2.40\pic\sources\c99\common\doprnt.c: 452:     if (s) {
  5129   001BB0  518A               	movf	dtoa@s& (0+255),w,b
  5130   001BB2  B4D8               	btfsc	status,2,c
  5131   001BB4  EFDE  F00D         	goto	u4611
  5132   001BB8  EFE0  F00D         	goto	u4610
  5133   001BBC                     u4611:
  5134   001BBC  EFF0  F00D         	goto	l5932
  5135   001BC0                     u4610:
  5136   001BC0                     
  5137                           ; BSR set to: 0
  5138                           ;C:\Program Files\Microchip\xc8\v2.40\pic\sources\c99\common\doprnt.c: 453:         n = 
      +                          -n;
  5139   001BC0  1F89               	comf	(dtoa@n+7)& (0+255),f,b
  5140   001BC2  1F88               	comf	(dtoa@n+6)& (0+255),f,b
  5141   001BC4  1F87               	comf	(dtoa@n+5)& (0+255),f,b
  5142   001BC6  1F86               	comf	(dtoa@n+4)& (0+255),f,b
  5143   001BC8  1F85               	comf	(dtoa@n+3)& (0+255),f,b
  5144   001BCA  1F84               	comf	(dtoa@n+2)& (0+255),f,b
  5145   001BCC  1F83               	comf	(dtoa@n+1)& (0+255),f,b
  5146   001BCE  6D82               	negf	dtoa@n& (0+255),b
  5147   001BD0  0E00               	movlw	0
  5148   001BD2  2383               	addwfc	(dtoa@n+1)& (0+255),f,b
  5149   001BD4  2384               	addwfc	(dtoa@n+2)& (0+255),f,b
  5150   001BD6  2385               	addwfc	(dtoa@n+3)& (0+255),f,b
  5151   001BD8  2386               	addwfc	(dtoa@n+4)& (0+255),f,b
  5152   001BDA  2387               	addwfc	(dtoa@n+5)& (0+255),f,b
  5153   001BDC  2388               	addwfc	(dtoa@n+6)& (0+255),f,b
  5154   001BDE  2389               	addwfc	(dtoa@n+7)& (0+255),f,b
  5155   001BE0                     l5932:
  5156                           
  5157                           ; BSR set to: 0
  5158                           ;C:\Program Files\Microchip\xc8\v2.40\pic\sources\c99\common\doprnt.c: 462:     p = (0 <
      +                           prec) ? prec : 1;
  5159   001BE0  BE38               	btfsc	(_prec+1)^0,7,c
  5160   001BE2  EFFD  F00D         	goto	u4620
  5161   001BE6  5038               	movf	(_prec+1)^0,w,c
  5162   001BE8  E106               	bnz	u4621
  5163   001BEA  0437               	decf	_prec^0,w,c
  5164   001BEC  B0D8               	btfsc	status,0,c
  5165   001BEE  EFFB  F00D         	goto	u4621
  5166   001BF2  EFFD  F00D         	goto	u4620
  5167   001BF6                     u4621:
  5168   001BF6  EF03  F00E         	goto	l1643
  5169   001BFA                     u4620:
  5170   001BFA                     
  5171                           ; BSR set to: 0
  5172   001BFA  0E00               	movlw	0
  5173   001BFC  6F7F               	movwf	(dtoa@p+1)& (0+255),b
  5174   001BFE  0E01               	movlw	1
  5175   001C00  6F7E               	movwf	dtoa@p& (0+255),b
  5176   001C02  EF07  F00E         	goto	l1645
  5177   001C06                     l1643:
  5178                           
  5179                           ; BSR set to: 0
  5180   001C06  C037  F07E         	movff	_prec,dtoa@p
  5181   001C0A  C038  F07F         	movff	_prec+1,dtoa@p+1
  5182   001C0E                     l1645:
  5183                           
  5184                           ; BSR set to: 0
  5185                           ;C:\Program Files\Microchip\xc8\v2.40\pic\sources\c99\common\doprnt.c: 463:     w = widt
      +                          h;
  5186   001C0E  C035  F080         	movff	_width,dtoa@w
  5187   001C12  C036  F081         	movff	_width+1,dtoa@w+1
  5188   001C16                     
  5189                           ; BSR set to: 0
  5190                           ;C:\Program Files\Microchip\xc8\v2.40\pic\sources\c99\common\doprnt.c: 464:     if (s
  5191   001C16  518A               	movf	dtoa@s& (0+255),w,b
  5192   001C18  B4D8               	btfsc	status,2,c
  5193   001C1A  EF11  F00E         	goto	u4631
  5194   001C1E  EF13  F00E         	goto	u4630
  5195   001C22                     u4631:
  5196   001C22  EF2A  F00E         	goto	l1646
  5197   001C26                     u4630:
  5198   001C26                     
  5199                           ; BSR set to: 0
  5200                           ;C:\Program Files\Microchip\xc8\v2.40\pic\sources\c99\common\doprnt.c: 468:     ) {;C:\P
      +                          rogram Files\Microchip\xc8\v2.40\pic\sources\c99\common\doprnt.c: 469:         --w;
  5201   001C26  0780               	decf	dtoa@w& (0+255),f,b
  5202   001C28  A0D8               	btfss	status,0,c
  5203   001C2A  0781               	decf	(dtoa@w+1)& (0+255),f,b
  5204   001C2C                     
  5205                           ; BSR set to: 0
  5206                           ;C:\Program Files\Microchip\xc8\v2.40\pic\sources\c99\common\doprnt.c: 470:   s = s ? '-
      +                          ' : '+';
  5207   001C2C  518A               	movf	dtoa@s& (0+255),w,b
  5208   001C2E  A4D8               	btfss	status,2,c
  5209   001C30  EF1C  F00E         	goto	u4641
  5210   001C34  EF1E  F00E         	goto	u4640
  5211   001C38                     u4641:
  5212   001C38  EF24  F00E         	goto	l5944
  5213   001C3C                     u4640:
  5214   001C3C                     
  5215                           ; BSR set to: 0
  5216   001C3C  0E00               	movlw	0
  5217   001C3E  6F7D               	movwf	(_dtoa$2695+1)& (0+255),b
  5218   001C40  0E2B               	movlw	43
  5219   001C42  6F7C               	movwf	_dtoa$2695& (0+255),b
  5220   001C44  EF28  F00E         	goto	l5946
  5221   001C48                     l5944:
  5222                           
  5223                           ; BSR set to: 0
  5224   001C48  0E00               	movlw	0
  5225   001C4A  6F7D               	movwf	(_dtoa$2695+1)& (0+255),b
  5226   001C4C  0E2D               	movlw	45
  5227   001C4E  6F7C               	movwf	_dtoa$2695& (0+255),b
  5228   001C50                     l5946:
  5229                           
  5230                           ; BSR set to: 0
  5231   001C50  C07C  F08A         	movff	_dtoa$2695,dtoa@s
  5232   001C54                     l1646:
  5233                           
  5234                           ; BSR set to: 0
  5235                           ;C:\Program Files\Microchip\xc8\v2.40\pic\sources\c99\common\doprnt.c: 480:     i = size
      +                          of(dbuf) - 1;
  5236   001C54  0E00               	movlw	0
  5237   001C56  6F8C               	movwf	(dtoa@i+1)& (0+255),b
  5238   001C58  0E1F               	movlw	31
  5239   001C5A  6F8B               	movwf	dtoa@i& (0+255),b
  5240   001C5C                     
  5241                           ; BSR set to: 0
  5242                           ;C:\Program Files\Microchip\xc8\v2.40\pic\sources\c99\common\doprnt.c: 481:     dbuf[i] 
      +                          = '\0';
  5243   001C5C  0E00               	movlw	0
  5244   001C5E  6FF7               	movwf	(_dbuf+31)& (0+255),b
  5245                           
  5246                           ;C:\Program Files\Microchip\xc8\v2.40\pic\sources\c99\common\doprnt.c: 482:     while (!
      +                          (i < 1) && (n || (0 < p)
  5247   001C60  EFAF  F00E         	goto	l5960
  5248   001C64                     l5950:
  5249                           
  5250                           ; BSR set to: 0
  5251                           ;C:\Program Files\Microchip\xc8\v2.40\pic\sources\c99\common\doprnt.c: 486:     )) {;C:\
      +                          Program Files\Microchip\xc8\v2.40\pic\sources\c99\common\doprnt.c: 487:         --i;
  5252   001C64  078B               	decf	dtoa@i& (0+255),f,b
  5253   001C66  A0D8               	btfss	status,0,c
  5254   001C68  078C               	decf	(dtoa@i+1)& (0+255),f,b
  5255   001C6A                     
  5256                           ; BSR set to: 0
  5257                           ;C:\Program Files\Microchip\xc8\v2.40\pic\sources\c99\common\doprnt.c: 488:         dbuf
      +                          [i] = (char)((int)'0' + abs(n % 10));
  5258   001C6A  0ED8               	movlw	low _dbuf
  5259   001C6C  258B               	addwf	dtoa@i& (0+255),w,b
  5260   001C6E  6ED9               	movwf	fsr2l,c
  5261   001C70  0E00               	movlw	high _dbuf
  5262   001C72  218C               	addwfc	(dtoa@i+1)& (0+255),w,b
  5263   001C74  6EDA               	movwf	fsr2h,c
  5264   001C76  C082  F01A         	movff	dtoa@n,___aomod@dividend
  5265   001C7A  C083  F01B         	movff	dtoa@n+1,___aomod@dividend+1
  5266   001C7E  C084  F01C         	movff	dtoa@n+2,___aomod@dividend+2
  5267   001C82  C085  F01D         	movff	dtoa@n+3,___aomod@dividend+3
  5268   001C86  C086  F01E         	movff	dtoa@n+4,___aomod@dividend+4
  5269   001C8A  C087  F01F         	movff	dtoa@n+5,___aomod@dividend+5
  5270   001C8E  C088  F020         	movff	dtoa@n+6,___aomod@dividend+6
  5271   001C92  C089  F021         	movff	dtoa@n+7,___aomod@dividend+7
  5272   001C96  0E0A               	movlw	10
  5273   001C98  6E22               	movwf	___aomod@divisor^0,c
  5274   001C9A  0E00               	movlw	0
  5275   001C9C  6E23               	movwf	(___aomod@divisor+1)^0,c
  5276   001C9E  0E00               	movlw	0
  5277   001CA0  6E24               	movwf	(___aomod@divisor+2)^0,c
  5278   001CA2  0E00               	movlw	0
  5279   001CA4  6E25               	movwf	(___aomod@divisor+3)^0,c
  5280   001CA6  0E00               	movlw	0
  5281   001CA8  6E26               	movwf	(___aomod@divisor+4)^0,c
  5282   001CAA  0E00               	movlw	0
  5283   001CAC  6E27               	movwf	(___aomod@divisor+5)^0,c
  5284   001CAE  0E00               	movlw	0
  5285   001CB0  6E28               	movwf	(___aomod@divisor+6)^0,c
  5286   001CB2  0E00               	movlw	0
  5287   001CB4  6E29               	movwf	(___aomod@divisor+7)^0,c
  5288   001CB6  EC9D  F012         	call	___aomod	;wreg free
  5289   001CBA  C01A  F074         	movff	?___aomod,??_dtoa
  5290   001CBE  C01B  F075         	movff	?___aomod+1,??_dtoa+1
  5291   001CC2  C01C  F076         	movff	?___aomod+2,??_dtoa+2
  5292   001CC6  C01D  F077         	movff	?___aomod+3,??_dtoa+3
  5293   001CCA  C01E  F078         	movff	?___aomod+4,??_dtoa+4
  5294   001CCE  C01F  F079         	movff	?___aomod+5,??_dtoa+5
  5295   001CD2  C020  F07A         	movff	?___aomod+6,??_dtoa+6
  5296   001CD6  C021  F07B         	movff	?___aomod+7,??_dtoa+7
  5297   001CDA  C074  F060         	movff	??_dtoa,abs@a
  5298   001CDE  C075  F061         	movff	??_dtoa+1,abs@a+1
  5299   001CE2  EC9E  F01A         	call	_abs	;wreg free
  5300   001CE6  0100               	movlb	0	; () banked
  5301   001CE8  5160               	movf	?_abs& (0+255),w,b
  5302   001CEA  0F30               	addlw	48
  5303   001CEC  6EDF               	movwf	indf2,c
  5304   001CEE                     
  5305                           ; BSR set to: 0
  5306                           ;C:\Program Files\Microchip\xc8\v2.40\pic\sources\c99\common\doprnt.c: 489:         --p;
  5307   001CEE  077E               	decf	dtoa@p& (0+255),f,b
  5308   001CF0  A0D8               	btfss	status,0,c
  5309   001CF2  077F               	decf	(dtoa@p+1)& (0+255),f,b
  5310   001CF4                     
  5311                           ; BSR set to: 0
  5312                           ;C:\Program Files\Microchip\xc8\v2.40\pic\sources\c99\common\doprnt.c: 490:         --w;
  5313   001CF4  0780               	decf	dtoa@w& (0+255),f,b
  5314   001CF6  A0D8               	btfss	status,0,c
  5315   001CF8  0781               	decf	(dtoa@w+1)& (0+255),f,b
  5316   001CFA                     
  5317                           ; BSR set to: 0
  5318                           ;C:\Program Files\Microchip\xc8\v2.40\pic\sources\c99\common\doprnt.c: 491:         n = 
      +                          n / 10;
  5319   001CFA  C082  F01A         	movff	dtoa@n,___aodiv@dividend
  5320   001CFE  C083  F01B         	movff	dtoa@n+1,___aodiv@dividend+1
  5321   001D02  C084  F01C         	movff	dtoa@n+2,___aodiv@dividend+2
  5322   001D06  C085  F01D         	movff	dtoa@n+3,___aodiv@dividend+3
  5323   001D0A  C086  F01E         	movff	dtoa@n+4,___aodiv@dividend+4
  5324   001D0E  C087  F01F         	movff	dtoa@n+5,___aodiv@dividend+5
  5325   001D12  C088  F020         	movff	dtoa@n+6,___aodiv@dividend+6
  5326   001D16  C089  F021         	movff	dtoa@n+7,___aodiv@dividend+7
  5327   001D1A  0E0A               	movlw	10
  5328   001D1C  6E22               	movwf	___aodiv@divisor^0,c
  5329   001D1E  0E00               	movlw	0
  5330   001D20  6E23               	movwf	(___aodiv@divisor+1)^0,c
  5331   001D22  0E00               	movlw	0
  5332   001D24  6E24               	movwf	(___aodiv@divisor+2)^0,c
  5333   001D26  0E00               	movlw	0
  5334   001D28  6E25               	movwf	(___aodiv@divisor+3)^0,c
  5335   001D2A  0E00               	movlw	0
  5336   001D2C  6E26               	movwf	(___aodiv@divisor+4)^0,c
  5337   001D2E  0E00               	movlw	0
  5338   001D30  6E27               	movwf	(___aodiv@divisor+5)^0,c
  5339   001D32  0E00               	movlw	0
  5340   001D34  6E28               	movwf	(___aodiv@divisor+6)^0,c
  5341   001D36  0E00               	movlw	0
  5342   001D38  6E29               	movwf	(___aodiv@divisor+7)^0,c
  5343   001D3A  ECD8  F011         	call	___aodiv	;wreg free
  5344   001D3E  C01A  F082         	movff	?___aodiv,dtoa@n
  5345   001D42  C01B  F083         	movff	?___aodiv+1,dtoa@n+1
  5346   001D46  C01C  F084         	movff	?___aodiv+2,dtoa@n+2
  5347   001D4A  C01D  F085         	movff	?___aodiv+3,dtoa@n+3
  5348   001D4E  C01E  F086         	movff	?___aodiv+4,dtoa@n+4
  5349   001D52  C01F  F087         	movff	?___aodiv+5,dtoa@n+5
  5350   001D56  C020  F088         	movff	?___aodiv+6,dtoa@n+6
  5351   001D5A  C021  F089         	movff	?___aodiv+7,dtoa@n+7
  5352   001D5E                     l5960:
  5353                           
  5354                           ;C:\Program Files\Microchip\xc8\v2.40\pic\sources\c99\common\doprnt.c: 482:     while (!
      +                          (i < 1) && (n || (0 < p)
  5355   001D5E  0100               	movlb	0	; () banked
  5356   001D60  BF8C               	btfsc	(dtoa@i+1)& (0+255),7,b
  5357   001D62  EFBB  F00E         	goto	u4651
  5358   001D66  518C               	movf	(dtoa@i+1)& (0+255),w,b
  5359   001D68  E108               	bnz	u4650
  5360   001D6A  058B               	decf	dtoa@i& (0+255),w,b
  5361   001D6C  A0D8               	btfss	status,0,c
  5362   001D6E  EFBB  F00E         	goto	u4651
  5363   001D72  EFBD  F00E         	goto	u4650
  5364   001D76                     u4651:
  5365   001D76  EFD9  F00E         	goto	l5966
  5366   001D7A                     u4650:
  5367   001D7A                     
  5368                           ; BSR set to: 0
  5369   001D7A  5182               	movf	dtoa@n& (0+255),w,b
  5370   001D7C  1183               	iorwf	(dtoa@n+1)& (0+255),w,b
  5371   001D7E  1184               	iorwf	(dtoa@n+2)& (0+255),w,b
  5372   001D80  1185               	iorwf	(dtoa@n+3)& (0+255),w,b
  5373   001D82  1186               	iorwf	(dtoa@n+4)& (0+255),w,b
  5374   001D84  1187               	iorwf	(dtoa@n+5)& (0+255),w,b
  5375   001D86  1188               	iorwf	(dtoa@n+6)& (0+255),w,b
  5376   001D88  1189               	iorwf	(dtoa@n+7)& (0+255),w,b
  5377   001D8A  A4D8               	btfss	status,2,c
  5378   001D8C  EFCA  F00E         	goto	u4661
  5379   001D90  EFCC  F00E         	goto	u4660
  5380   001D94                     u4661:
  5381   001D94  EF32  F00E         	goto	l5950
  5382   001D98                     u4660:
  5383   001D98                     
  5384                           ; BSR set to: 0
  5385   001D98  BF7F               	btfsc	(dtoa@p+1)& (0+255),7,b
  5386   001D9A  EFD9  F00E         	goto	u4670
  5387   001D9E  517F               	movf	(dtoa@p+1)& (0+255),w,b
  5388   001DA0  E106               	bnz	u4671
  5389   001DA2  057E               	decf	dtoa@p& (0+255),w,b
  5390   001DA4  B0D8               	btfsc	status,0,c
  5391   001DA6  EFD7  F00E         	goto	u4671
  5392   001DAA  EFD9  F00E         	goto	u4670
  5393   001DAE                     u4671:
  5394   001DAE  EF32  F00E         	goto	l5950
  5395   001DB2                     u4670:
  5396   001DB2                     l5966:
  5397                           
  5398                           ; BSR set to: 0
  5399                           ;C:\Program Files\Microchip\xc8\v2.40\pic\sources\c99\common\doprnt.c: 495:     if (s !=
      +                           0) {
  5400   001DB2  518A               	movf	dtoa@s& (0+255),w,b
  5401   001DB4  B4D8               	btfsc	status,2,c
  5402   001DB6  EFDF  F00E         	goto	u4681
  5403   001DBA  EFE1  F00E         	goto	u4680
  5404   001DBE                     u4681:
  5405   001DBE  EFEC  F00E         	goto	l5972
  5406   001DC2                     u4680:
  5407   001DC2                     
  5408                           ; BSR set to: 0
  5409                           ;C:\Program Files\Microchip\xc8\v2.40\pic\sources\c99\common\doprnt.c: 496:         --i;
  5410   001DC2  078B               	decf	dtoa@i& (0+255),f,b
  5411   001DC4  A0D8               	btfss	status,0,c
  5412   001DC6  078C               	decf	(dtoa@i+1)& (0+255),f,b
  5413   001DC8                     
  5414                           ; BSR set to: 0
  5415                           ;C:\Program Files\Microchip\xc8\v2.40\pic\sources\c99\common\doprnt.c: 497:         dbuf
      +                          [i] = s;
  5416   001DC8  0ED8               	movlw	low _dbuf
  5417   001DCA  258B               	addwf	dtoa@i& (0+255),w,b
  5418   001DCC  6ED9               	movwf	fsr2l,c
  5419   001DCE  0E00               	movlw	high _dbuf
  5420   001DD0  218C               	addwfc	(dtoa@i+1)& (0+255),w,b
  5421   001DD2  6EDA               	movwf	fsr2h,c
  5422   001DD4  C08A  FFDF         	movff	dtoa@s,indf2
  5423   001DD8                     l5972:
  5424                           
  5425                           ; BSR set to: 0
  5426                           ;C:\Program Files\Microchip\xc8\v2.40\pic\sources\c99\common\doprnt.c: 501:     return (
      +                          void) pad(fp, &dbuf[i], w);
  5427   001DD8  C06A  F060         	movff	dtoa@fp,pad@fp
  5428   001DDC  C06B  F061         	movff	dtoa@fp+1,pad@fp+1
  5429   001DE0  0ED8               	movlw	low _dbuf
  5430   001DE2  258B               	addwf	dtoa@i& (0+255),w,b
  5431   001DE4  6F62               	movwf	pad@buf& (0+255),b
  5432   001DE6  0E00               	movlw	high _dbuf
  5433   001DE8  218C               	addwfc	(dtoa@i+1)& (0+255),w,b
  5434   001DEA  6F63               	movwf	(pad@buf+1)& (0+255),b
  5435   001DEC  C080  F064         	movff	dtoa@w,pad@p
  5436   001DF0  C081  F065         	movff	dtoa@w+1,pad@p+1
  5437   001DF4  EC49  F016         	call	_pad	;wreg free
  5438   001DF8  0012               	return		;funcret
  5439   001DFA                     __end_of_dtoa:
  5440                           	callstack 0
  5441                           
  5442 ;; *************** function _pad *****************
  5443 ;; Defined at:
  5444 ;;		line 133 in file "C:\Program Files\Microchip\xc8\v2.40\pic\sources\c99\common\doprnt.c"
  5445 ;; Parameters:    Size  Location     Type
  5446 ;;  fp              2    0[BANK0 ] PTR struct _IO_FILE
  5447 ;;		 -> NULL(0), 
  5448 ;;  buf             2    2[BANK0 ] PTR unsigned char 
  5449 ;;		 -> dbuf(32), 
  5450 ;;  p               2    4[BANK0 ] int 
  5451 ;; Auto vars:     Size  Location     Type
  5452 ;;  w               2    8[BANK0 ] int 
  5453 ;;  i               2    6[BANK0 ] int 
  5454 ;; Return value:  Size  Location     Type
  5455 ;;                  1    wreg      void 
  5456 ;; Registers used:
  5457 ;;		wreg, fsr1l, fsr1h, fsr2l, fsr2h, status,2, status,0, cstack
  5458 ;; Tracked objects:
  5459 ;;		On entry : 0/0
  5460 ;;		On exit  : 0/0
  5461 ;;		Unchanged: 0/0
  5462 ;; Data sizes:     COMRAM   BANK0   BANK1   BANK2   BANK3   BANK4   BANK5   BANK6   BANK7   BANK8   BANK9  BANK10  BANK1
      +1  BANK12  BANK13  BANK14
  5463 ;;      Params:         0       6       0       0       0       0       0       0       0       0       0       0       
      +0       0       0       0
  5464 ;;      Locals:         0       4       0       0       0       0       0       0       0       0       0       0       
      +0       0       0       0
  5465 ;;      Temps:          1       0       0       0       0       0       0       0       0       0       0       0       
      +0       0       0       0
  5466 ;;      Totals:         1      10       0       0       0       0       0       0       0       0       0       0       
      +0       0       0       0
  5467 ;;Total ram usage:       11 bytes
  5468 ;; Hardware stack levels used: 1
  5469 ;; Hardware stack levels required when called: 11
  5470 ;; This function calls:
  5471 ;;		_fputc
  5472 ;;		_fputs
  5473 ;; This function is called by:
  5474 ;;		_dtoa
  5475 ;;		_utoa
  5476 ;; This function uses a non-reentrant model
  5477 ;;
  5478                           
  5479                           	psect	text23
  5480   002C92                     __ptext23:
  5481                           	callstack 0
  5482   002C92                     _pad:
  5483                           	callstack 15
  5484   002C92                     
  5485                           ;C:\Program Files\Microchip\xc8\v2.40\pic\sources\c99\common\doprnt.c: 133: static void 
      +                          pad(FILE *fp, char *buf, int p);C:\Program Files\Microchip\xc8\v2.40\pic\sources\c99\com
      +                          mon\doprnt.c: 134: {;C:\Program Files\Microchip\xc8\v2.40\pic\sources\c99\common\doprnt.
      +                          c: 135:     int i, w;;C:\Program Files\Microchip\xc8\v2.40\pic\sources\c99\common\doprnt
      +                          .c: 139:     if (flags & (1 << 0)) {
  5486   002C92  A03D               	btfss	_flags^0,0,c
  5487   002C94  EF4E  F016         	goto	u4461
  5488   002C98  EF50  F016         	goto	u4460
  5489   002C9C                     u4461:
  5490   002C9C  EF5A  F016         	goto	l5852
  5491   002CA0                     u4460:
  5492   002CA0                     
  5493                           ;C:\Program Files\Microchip\xc8\v2.40\pic\sources\c99\common\doprnt.c: 140:         fput
      +                          s((const char *)buf, fp);
  5494   002CA0  C062  F025         	movff	pad@buf,fputs@s
  5495   002CA4  C063  F026         	movff	pad@buf+1,fputs@s+1
  5496   002CA8  C060  F027         	movff	pad@fp,fputs@fp
  5497   002CAC  C061  F028         	movff	pad@fp+1,fputs@fp+1
  5498   002CB0  EC7C  F01A         	call	_fputs	;wreg free
  5499   002CB4                     l5852:
  5500                           
  5501                           ;C:\Program Files\Microchip\xc8\v2.40\pic\sources\c99\common\doprnt.c: 145:     w = (p <
      +                           0) ? 0 : p;
  5502   002CB4  0100               	movlb	0	; () banked
  5503   002CB6  BF65               	btfsc	(pad@p+1)& (0+255),7,b
  5504   002CB8  EF60  F016         	goto	u4471
  5505   002CBC  EF62  F016         	goto	u4470
  5506   002CC0                     u4471:
  5507   002CC0  EF68  F016         	goto	l5856
  5508   002CC4                     u4470:
  5509   002CC4                     
  5510                           ; BSR set to: 0
  5511   002CC4  C064  F068         	movff	pad@p,pad@w
  5512   002CC8  C065  F069         	movff	pad@p+1,pad@w+1
  5513   002CCC  EF6C  F016         	goto	l1633
  5514   002CD0                     l5856:
  5515                           
  5516                           ; BSR set to: 0
  5517   002CD0  0E00               	movlw	0
  5518   002CD2  6F69               	movwf	(pad@w+1)& (0+255),b
  5519   002CD4  0E00               	movlw	0
  5520   002CD6  6F68               	movwf	pad@w& (0+255),b
  5521   002CD8                     l1633:
  5522                           
  5523                           ; BSR set to: 0
  5524                           ;C:\Program Files\Microchip\xc8\v2.40\pic\sources\c99\common\doprnt.c: 146:     i = 0;
  5525   002CD8  0E00               	movlw	0
  5526   002CDA  6F67               	movwf	(pad@i+1)& (0+255),b
  5527   002CDC  0E00               	movlw	0
  5528   002CDE  6F66               	movwf	pad@i& (0+255),b
  5529                           
  5530                           ;C:\Program Files\Microchip\xc8\v2.40\pic\sources\c99\common\doprnt.c: 147:     while (i
      +                           < w) {
  5531   002CE0  EF7F  F016         	goto	l5862
  5532   002CE4                     l5858:
  5533                           
  5534                           ; BSR set to: 0
  5535                           ;C:\Program Files\Microchip\xc8\v2.40\pic\sources\c99\common\doprnt.c: 148:         fput
      +                          c(' ', fp);
  5536   002CE4  0E00               	movlw	0
  5537   002CE6  6E1D               	movwf	(fputc@c+1)^0,c
  5538   002CE8  0E20               	movlw	32
  5539   002CEA  6E1C               	movwf	fputc@c^0,c
  5540   002CEC  C060  F01E         	movff	pad@fp,fputc@fp
  5541   002CF0  C061  F01F         	movff	pad@fp+1,fputc@fp+1
  5542   002CF4  EC42  F017         	call	_fputc	;wreg free
  5543   002CF8                     
  5544                           ;C:\Program Files\Microchip\xc8\v2.40\pic\sources\c99\common\doprnt.c: 149:         ++i;
  5545   002CF8  0100               	movlb	0	; () banked
  5546   002CFA  4B66               	infsnz	pad@i& (0+255),f,b
  5547   002CFC  2B67               	incf	(pad@i+1)& (0+255),f,b
  5548   002CFE                     l5862:
  5549                           
  5550                           ; BSR set to: 0
  5551                           ;C:\Program Files\Microchip\xc8\v2.40\pic\sources\c99\common\doprnt.c: 147:     while (i
      +                           < w) {
  5552   002CFE  5168               	movf	pad@w& (0+255),w,b
  5553   002D00  5D66               	subwf	pad@i& (0+255),w,b
  5554   002D02  5167               	movf	(pad@i+1)& (0+255),w,b
  5555   002D04  0A80               	xorlw	128
  5556   002D06  6E2C               	movwf	??_pad^0,c
  5557   002D08  5169               	movf	(pad@w+1)& (0+255),w,b
  5558   002D0A  0A80               	xorlw	128
  5559   002D0C  582C               	subwfb	??_pad^0,w,c
  5560   002D0E  A0D8               	btfss	status,0,c
  5561   002D10  EF8C  F016         	goto	u4481
  5562   002D14  EF8E  F016         	goto	u4480
  5563   002D18                     u4481:
  5564   002D18  EF72  F016         	goto	l5858
  5565   002D1C                     u4480:
  5566   002D1C                     
  5567                           ; BSR set to: 0
  5568                           ;C:\Program Files\Microchip\xc8\v2.40\pic\sources\c99\common\doprnt.c: 154:     if (!(fl
      +                          ags & (1 << 0))) {
  5569   002D1C  B03D               	btfsc	_flags^0,0,c
  5570   002D1E  EF93  F016         	goto	u4491
  5571   002D22  EF95  F016         	goto	u4490
  5572   002D26                     u4491:
  5573   002D26  EF9F  F016         	goto	l1638
  5574   002D2A                     u4490:
  5575   002D2A                     
  5576                           ; BSR set to: 0
  5577                           ;C:\Program Files\Microchip\xc8\v2.40\pic\sources\c99\common\doprnt.c: 156:         fput
      +                          s((const char *)buf, fp);
  5578   002D2A  C062  F025         	movff	pad@buf,fputs@s
  5579   002D2E  C063  F026         	movff	pad@buf+1,fputs@s+1
  5580   002D32  C060  F027         	movff	pad@fp,fputs@fp
  5581   002D36  C061  F028         	movff	pad@fp+1,fputs@fp+1
  5582   002D3A  EC7C  F01A         	call	_fputs	;wreg free
  5583   002D3E                     l1638:
  5584   002D3E  0012               	return		;funcret
  5585   002D40                     __end_of_pad:
  5586                           	callstack 0
  5587                           
  5588 ;; *************** function _fputs *****************
  5589 ;; Defined at:
  5590 ;;		line 8 in file "C:\Program Files\Microchip\xc8\v2.40\pic\sources\c99\common\nf_fputs.c"
  5591 ;; Parameters:    Size  Location     Type
  5592 ;;  s               2   36[COMRAM] PTR const unsigned char 
  5593 ;;		 -> dbuf(32), 
  5594 ;;  fp              2   38[COMRAM] PTR struct _IO_FILE
  5595 ;;		 -> NULL(0), 
  5596 ;; Auto vars:     Size  Location     Type
  5597 ;;  i               2   41[COMRAM] int 
  5598 ;;  c               1   40[COMRAM] unsigned char 
  5599 ;; Return value:  Size  Location     Type
  5600 ;;                  2   36[COMRAM] int 
  5601 ;; Registers used:
  5602 ;;		wreg, fsr1l, fsr1h, fsr2l, fsr2h, status,2, status,0, cstack
  5603 ;; Tracked objects:
  5604 ;;		On entry : 0/0
  5605 ;;		On exit  : 0/0
  5606 ;;		Unchanged: 0/0
  5607 ;; Data sizes:     COMRAM   BANK0   BANK1   BANK2   BANK3   BANK4   BANK5   BANK6   BANK7   BANK8   BANK9  BANK10  BANK1
      +1  BANK12  BANK13  BANK14
  5608 ;;      Params:         4       0       0       0       0       0       0       0       0       0       0       0       
      +0       0       0       0
  5609 ;;      Locals:         3       0       0       0       0       0       0       0       0       0       0       0       
      +0       0       0       0
  5610 ;;      Temps:          0       0       0       0       0       0       0       0       0       0       0       0       
      +0       0       0       0
  5611 ;;      Totals:         7       0       0       0       0       0       0       0       0       0       0       0       
      +0       0       0       0
  5612 ;;Total ram usage:        7 bytes
  5613 ;; Hardware stack levels used: 1
  5614 ;; Hardware stack levels required when called: 10
  5615 ;; This function calls:
  5616 ;;		_fputc
  5617 ;; This function is called by:
  5618 ;;		_pad
  5619 ;; This function uses a non-reentrant model
  5620 ;;
  5621                           
  5622                           	psect	text24
  5623   0034F8                     __ptext24:
  5624                           	callstack 0
  5625   0034F8                     _fputs:
  5626                           	callstack 15
  5627   0034F8  0E00               	movlw	0
  5628   0034FA  6E2B               	movwf	(fputs@i+1)^0,c
  5629   0034FC  0E00               	movlw	0
  5630   0034FE  6E2A               	movwf	fputs@i^0,c
  5631   003500  EF8D  F01A         	goto	l5640
  5632   003504                     l5636:
  5633   003504  C029  F01C         	movff	fputs@c,fputc@c
  5634   003508  6A1D               	clrf	(fputc@c+1)^0,c
  5635   00350A  C027  F01E         	movff	fputs@fp,fputc@fp
  5636   00350E  C028  F01F         	movff	fputs@fp+1,fputc@fp+1
  5637   003512  EC42  F017         	call	_fputc	;wreg free
  5638   003516  4A2A               	infsnz	fputs@i^0,f,c
  5639   003518  2A2B               	incf	(fputs@i+1)^0,f,c
  5640   00351A                     l5640:
  5641   00351A  502A               	movf	fputs@i^0,w,c
  5642   00351C  2425               	addwf	fputs@s^0,w,c
  5643   00351E  6ED9               	movwf	fsr2l,c
  5644   003520  502B               	movf	(fputs@i+1)^0,w,c
  5645   003522  2026               	addwfc	(fputs@s+1)^0,w,c
  5646   003524  6EDA               	movwf	fsr2h,c
  5647   003526  50DF               	movf	indf2,w,c
  5648   003528  6E29               	movwf	fputs@c^0,c
  5649   00352A  5029               	movf	fputs@c^0,w,c
  5650   00352C  A4D8               	btfss	status,2,c
  5651   00352E  EF9B  F01A         	goto	u4221
  5652   003532  EF9D  F01A         	goto	u4220
  5653   003536                     u4221:
  5654   003536  EF82  F01A         	goto	l5636
  5655   00353A                     u4220:
  5656   00353A  0012               	return		;funcret
  5657   00353C                     __end_of_fputs:
  5658                           	callstack 0
  5659                           
  5660 ;; *************** function _fputc *****************
  5661 ;; Defined at:
  5662 ;;		line 8 in file "C:\Program Files\Microchip\xc8\v2.40\pic\sources\c99\common\nf_fputc.c"
  5663 ;; Parameters:    Size  Location     Type
  5664 ;;  c               2   27[COMRAM] int 
  5665 ;;  fp              2   29[COMRAM] PTR struct _IO_FILE
  5666 ;;		 -> NULL(0), 
  5667 ;; Auto vars:     Size  Location     Type
  5668 ;;		None
  5669 ;; Return value:  Size  Location     Type
  5670 ;;                  2   27[COMRAM] int 
  5671 ;; Registers used:
  5672 ;;		wreg, fsr1l, fsr1h, fsr2l, fsr2h, status,2, status,0, cstack
  5673 ;; Tracked objects:
  5674 ;;		On entry : 0/0
  5675 ;;		On exit  : 0/0
  5676 ;;		Unchanged: 0/0
  5677 ;; Data sizes:     COMRAM   BANK0   BANK1   BANK2   BANK3   BANK4   BANK5   BANK6   BANK7   BANK8   BANK9  BANK10  BANK1
      +1  BANK12  BANK13  BANK14
  5678 ;;      Params:         4       0       0       0       0       0       0       0       0       0       0       0       
      +0       0       0       0
  5679 ;;      Locals:         0       0       0       0       0       0       0       0       0       0       0       0       
      +0       0       0       0
  5680 ;;      Temps:          5       0       0       0       0       0       0       0       0       0       0       0       
      +0       0       0       0
  5681 ;;      Totals:         9       0       0       0       0       0       0       0       0       0       0       0       
      +0       0       0       0
  5682 ;;Total ram usage:        9 bytes
  5683 ;; Hardware stack levels used: 1
  5684 ;; Hardware stack levels required when called: 9
  5685 ;; This function calls:
  5686 ;;		_putch
  5687 ;; This function is called by:
  5688 ;;		_pad
  5689 ;;		_vfpfcnvrt
  5690 ;;		_fputs
  5691 ;; This function uses a non-reentrant model
  5692 ;;
  5693                           
  5694                           	psect	text25
  5695   002E84                     __ptext25:
  5696                           	callstack 0
  5697   002E84                     _fputc:
  5698                           	callstack 15
  5699   002E84  501E               	movf	fputc@fp^0,w,c
  5700   002E86  101F               	iorwf	(fputc@fp+1)^0,w,c
  5701   002E88  B4D8               	btfsc	status,2,c
  5702   002E8A  EF49  F017         	goto	u4141
  5703   002E8E  EF4B  F017         	goto	u4140
  5704   002E92                     u4141:
  5705   002E92  EF54  F017         	goto	l5580
  5706   002E96                     u4140:
  5707   002E96  501E               	movf	fputc@fp^0,w,c
  5708   002E98  101F               	iorwf	(fputc@fp+1)^0,w,c
  5709   002E9A  A4D8               	btfss	status,2,c
  5710   002E9C  EF52  F017         	goto	u4151
  5711   002EA0  EF54  F017         	goto	u4150
  5712   002EA4                     u4151:
  5713   002EA4  EF59  F017         	goto	l5582
  5714   002EA8                     u4150:
  5715   002EA8                     l5580:
  5716   002EA8  501C               	movf	fputc@c^0,w,c
  5717   002EAA  EC6C  F01D         	call	_putch
  5718   002EAE  EF8C  F017         	goto	l1762
  5719   002EB2                     l5582:
  5720   002EB2  EE20 F009          	lfsr	2,9
  5721   002EB6  501E               	movf	fputc@fp^0,w,c
  5722   002EB8  26D9               	addwf	fsr2l,f,c
  5723   002EBA  501F               	movf	(fputc@fp+1)^0,w,c
  5724   002EBC  22DA               	addwfc	fsr2h,f,c
  5725   002EBE  50DE               	movf	postinc2,w,c
  5726   002EC0  10DE               	iorwf	postinc2,w,c
  5727   002EC2  B4D8               	btfsc	status,2,c
  5728   002EC4  EF66  F017         	goto	u4161
  5729   002EC8  EF68  F017         	goto	u4160
  5730   002ECC                     u4161:
  5731   002ECC  EF83  F017         	goto	l5586
  5732   002ED0                     u4160:
  5733   002ED0  EE20 F009          	lfsr	2,9
  5734   002ED4  501E               	movf	fputc@fp^0,w,c
  5735   002ED6  26D9               	addwf	fsr2l,f,c
  5736   002ED8  501F               	movf	(fputc@fp+1)^0,w,c
  5737   002EDA  22DA               	addwfc	fsr2h,f,c
  5738   002EDC  EE10 F003          	lfsr	1,3
  5739   002EE0  501E               	movf	fputc@fp^0,w,c
  5740   002EE2  26E1               	addwf	fsr1l,f,c
  5741   002EE4  501F               	movf	(fputc@fp+1)^0,w,c
  5742   002EE6  22E2               	addwfc	fsr1h,f,c
  5743   002EE8  50DE               	movf	postinc2,w,c
  5744   002EEA  5CE6               	subwf	postinc1,w,c
  5745   002EEC  50E6               	movf	postinc1,w,c
  5746   002EEE  0A80               	xorlw	128
  5747   002EF0  6E24               	movwf	(??_fputc+4)^0,c
  5748   002EF2  50DE               	movf	postinc2,w,c
  5749   002EF4  0A80               	xorlw	128
  5750   002EF6  5824               	subwfb	(??_fputc+4)^0,w,c
  5751   002EF8  B0D8               	btfsc	status,0,c
  5752   002EFA  EF81  F017         	goto	u4171
  5753   002EFE  EF83  F017         	goto	u4170
  5754   002F02                     u4171:
  5755   002F02  EF8C  F017         	goto	l1762
  5756   002F06                     u4170:
  5757   002F06                     l5586:
  5758   002F06  EE20 F003          	lfsr	2,3
  5759   002F0A  501E               	movf	fputc@fp^0,w,c
  5760   002F0C  26D9               	addwf	fsr2l,f,c
  5761   002F0E  501F               	movf	(fputc@fp+1)^0,w,c
  5762   002F10  22DA               	addwfc	fsr2h,f,c
  5763   002F12  2ADE               	incf	postinc2,f,c
  5764   002F14  0E00               	movlw	0
  5765   002F16  22DD               	addwfc	postdec2,f,c
  5766   002F18                     l1762:
  5767   002F18  0012               	return		;funcret
  5768   002F1A                     __end_of_fputc:
  5769                           	callstack 0
  5770                           
  5771 ;; *************** function _putch *****************
  5772 ;; Defined at:
  5773 ;;		line 146 in file "mcc_generated_files/eusart1.c"
  5774 ;; Parameters:    Size  Location     Type
  5775 ;;  txData          1    wreg     unsigned char 
  5776 ;; Auto vars:     Size  Location     Type
  5777 ;;  txData          1   26[COMRAM] unsigned char 
  5778 ;; Return value:  Size  Location     Type
  5779 ;;                  1    wreg      void 
  5780 ;; Registers used:
  5781 ;;		wreg, status,2, cstack
  5782 ;; Tracked objects:
  5783 ;;		On entry : 0/0
  5784 ;;		On exit  : 0/0
  5785 ;;		Unchanged: 0/0
  5786 ;; Data sizes:     COMRAM   BANK0   BANK1   BANK2   BANK3   BANK4   BANK5   BANK6   BANK7   BANK8   BANK9  BANK10  BANK1
      +1  BANK12  BANK13  BANK14
  5787 ;;      Params:         0       0       0       0       0       0       0       0       0       0       0       0       
      +0       0       0       0
  5788 ;;      Locals:         1       0       0       0       0       0       0       0       0       0       0       0       
      +0       0       0       0
  5789 ;;      Temps:          0       0       0       0       0       0       0       0       0       0       0       0       
      +0       0       0       0
  5790 ;;      Totals:         1       0       0       0       0       0       0       0       0       0       0       0       
      +0       0       0       0
  5791 ;;Total ram usage:        1 bytes
  5792 ;; Hardware stack levels used: 1
  5793 ;; Hardware stack levels required when called: 8
  5794 ;; This function calls:
  5795 ;;		_EUSART1_Write
  5796 ;; This function is called by:
  5797 ;;		_fputc
  5798 ;; This function uses a non-reentrant model
  5799 ;;
  5800                           
  5801                           	psect	text26
  5802   003AD8                     __ptext26:
  5803                           	callstack 0
  5804   003AD8                     _putch:
  5805                           	callstack 15
  5806                           
  5807                           ;incstack = 0
  5808                           ;putch@txData stored from wreg
  5809   003AD8  6E1B               	movwf	putch@txData^0,c
  5810   003ADA                     
  5811                           ;mcc_generated_files/eusart1.c: 146: void putch(char txData);mcc_generated_files/eusart1
      +                          .c: 147: {;mcc_generated_files/eusart1.c: 148:     EUSART1_Write(txData);
  5812   003ADA  501B               	movf	putch@txData^0,w,c
  5813   003ADC  ECE0  F01C         	call	_EUSART1_Write
  5814   003AE0  0012               	return		;funcret
  5815   003AE2                     __end_of_putch:
  5816                           	callstack 0
  5817                           
  5818 ;; *************** function _EUSART1_Write *****************
  5819 ;; Defined at:
  5820 ;;		line 132 in file "mcc_generated_files/eusart1.c"
  5821 ;; Parameters:    Size  Location     Type
  5822 ;;  txData          1    wreg     unsigned char 
  5823 ;; Auto vars:     Size  Location     Type
  5824 ;;  txData          1   25[COMRAM] unsigned char 
  5825 ;; Return value:  Size  Location     Type
  5826 ;;                  1    wreg      void 
  5827 ;; Registers used:
  5828 ;;		wreg
  5829 ;; Tracked objects:
  5830 ;;		On entry : 0/0
  5831 ;;		On exit  : 0/0
  5832 ;;		Unchanged: 0/0
  5833 ;; Data sizes:     COMRAM   BANK0   BANK1   BANK2   BANK3   BANK4   BANK5   BANK6   BANK7   BANK8   BANK9  BANK10  BANK1
      +1  BANK12  BANK13  BANK14
  5834 ;;      Params:         0       0       0       0       0       0       0       0       0       0       0       0       
      +0       0       0       0
  5835 ;;      Locals:         1       0       0       0       0       0       0       0       0       0       0       0       
      +0       0       0       0
  5836 ;;      Temps:          0       0       0       0       0       0       0       0       0       0       0       0       
      +0       0       0       0
  5837 ;;      Totals:         1       0       0       0       0       0       0       0       0       0       0       0       
      +0       0       0       0
  5838 ;;Total ram usage:        1 bytes
  5839 ;; Hardware stack levels used: 1
  5840 ;; Hardware stack levels required when called: 7
  5841 ;; This function calls:
  5842 ;;		Nothing
  5843 ;; This function is called by:
  5844 ;;		_putch
  5845 ;; This function uses a non-reentrant model
  5846 ;;
  5847                           
  5848                           	psect	text27
  5849   0039C0                     __ptext27:
  5850                           	callstack 0
  5851   0039C0                     _EUSART1_Write:
  5852                           	callstack 15
  5853                           
  5854                           ;incstack = 0
  5855                           ;EUSART1_Write@txData stored from wreg
  5856   0039C0  6E1A               	movwf	EUSART1_Write@txData^0,c
  5857   0039C2                     l674:
  5858                           
  5859                           ;mcc_generated_files/eusart1.c: 134:     while(0 == PIR3bits.TX1IF)
  5860   0039C2  010E               	movlb	14	; () banked
  5861   0039C4  A9CD               	btfss	205,4,b	;volatile
  5862   0039C6  EFE7  F01C         	goto	u4131
  5863   0039CA  EFE9  F01C         	goto	u4130
  5864   0039CE                     u4131:
  5865   0039CE  EFE1  F01C         	goto	l674
  5866   0039D2                     u4130:
  5867   0039D2                     
  5868                           ; BSR set to: 14
  5869                           ;mcc_generated_files/eusart1.c: 138:     TX1REG = txData;
  5870   0039D2  C01A  FF9A         	movff	EUSART1_Write@txData,3994	;volatile
  5871   0039D6                     
  5872                           ; BSR set to: 14
  5873   0039D6  0012               	return		;funcret
  5874   0039D8                     __end_of_EUSART1_Write:
  5875                           	callstack 0
  5876                           
  5877 ;; *************** function _abs *****************
  5878 ;; Defined at:
  5879 ;;		line 1 in file "C:\Program Files\Microchip\xc8\v2.40\pic\sources\c99\common\abs.c"
  5880 ;; Parameters:    Size  Location     Type
  5881 ;;  a               2    0[BANK0 ] int 
  5882 ;; Auto vars:     Size  Location     Type
  5883 ;;		None
  5884 ;; Return value:  Size  Location     Type
  5885 ;;                  2    0[BANK0 ] int 
  5886 ;; Registers used:
  5887 ;;		wreg, status,2, status,0
  5888 ;; Tracked objects:
  5889 ;;		On entry : 0/0
  5890 ;;		On exit  : 0/0
  5891 ;;		Unchanged: 0/0
  5892 ;; Data sizes:     COMRAM   BANK0   BANK1   BANK2   BANK3   BANK4   BANK5   BANK6   BANK7   BANK8   BANK9  BANK10  BANK1
      +1  BANK12  BANK13  BANK14
  5893 ;;      Params:         0       2       0       0       0       0       0       0       0       0       0       0       
      +0       0       0       0
  5894 ;;      Locals:         0       0       0       0       0       0       0       0       0       0       0       0       
      +0       0       0       0
  5895 ;;      Temps:          0       2       0       0       0       0       0       0       0       0       0       0       
      +0       0       0       0
  5896 ;;      Totals:         0       4       0       0       0       0       0       0       0       0       0       0       
      +0       0       0       0
  5897 ;;Total ram usage:        4 bytes
  5898 ;; Hardware stack levels used: 1
  5899 ;; Hardware stack levels required when called: 7
  5900 ;; This function calls:
  5901 ;;		Nothing
  5902 ;; This function is called by:
  5903 ;;		_dtoa
  5904 ;; This function uses a non-reentrant model
  5905 ;;
  5906                           
  5907                           	psect	text28
  5908   00353C                     __ptext28:
  5909                           	callstack 0
  5910   00353C                     _abs:
  5911                           	callstack 19
  5912   00353C  0100               	movlb	0	; () banked
  5913   00353E  BF61               	btfsc	(abs@a+1)& (0+255),7,b
  5914   003540  EFAC  F01A         	goto	u4500
  5915   003544  5161               	movf	(abs@a+1)& (0+255),w,b
  5916   003546  E106               	bnz	u4501
  5917   003548  0560               	decf	abs@a& (0+255),w,b
  5918   00354A  B0D8               	btfsc	status,0,c
  5919   00354C  EFAA  F01A         	goto	u4501
  5920   003550  EFAC  F01A         	goto	u4500
  5921   003554                     u4501:
  5922   003554  EFBA  F01A         	goto	l1708
  5923   003558                     u4500:
  5924   003558                     
  5925                           ; BSR set to: 0
  5926   003558  C060  F062         	movff	abs@a,??_abs
  5927   00355C  C061  F063         	movff	abs@a+1,??_abs+1
  5928   003560  1F62               	comf	??_abs& (0+255),f,b
  5929   003562  1F63               	comf	(??_abs+1)& (0+255),f,b
  5930   003564  4B62               	infsnz	??_abs& (0+255),f,b
  5931   003566  2B63               	incf	(??_abs+1)& (0+255),f,b
  5932   003568  C062  F060         	movff	??_abs,?_abs
  5933   00356C  C063  F061         	movff	??_abs+1,?_abs+1
  5934   003570  EFBE  F01A         	goto	l1711
  5935   003574                     l1708:
  5936                           
  5937                           ; BSR set to: 0
  5938   003574  C060  F060         	movff	abs@a,?_abs
  5939   003578  C061  F061         	movff	abs@a+1,?_abs+1
  5940   00357C                     l1711:
  5941                           
  5942                           ; BSR set to: 0
  5943   00357C  0012               	return		;funcret
  5944   00357E                     __end_of_abs:
  5945                           	callstack 0
  5946                           
  5947 ;; *************** function ___aomod *****************
  5948 ;; Defined at:
  5949 ;;		line 9 in file "C:\Program Files\Microchip\xc8\v2.40\pic\sources\c99\common\aomod.c"
  5950 ;; Parameters:    Size  Location     Type
  5951 ;;  dividend        8   25[COMRAM] long long 
  5952 ;;  divisor         8   33[COMRAM] long long 
  5953 ;; Auto vars:     Size  Location     Type
  5954 ;;  sign            1   42[COMRAM] unsigned char 
  5955 ;;  counter         1   41[COMRAM] unsigned char 
  5956 ;; Return value:  Size  Location     Type
  5957 ;;                  8   25[COMRAM] long long 
  5958 ;; Registers used:
  5959 ;;		wreg, status,2, status,0
  5960 ;; Tracked objects:
  5961 ;;		On entry : 0/0
  5962 ;;		On exit  : 0/0
  5963 ;;		Unchanged: 0/0
  5964 ;; Data sizes:     COMRAM   BANK0   BANK1   BANK2   BANK3   BANK4   BANK5   BANK6   BANK7   BANK8   BANK9  BANK10  BANK1
      +1  BANK12  BANK13  BANK14
  5965 ;;      Params:        16       0       0       0       0       0       0       0       0       0       0       0       
      +0       0       0       0
  5966 ;;      Locals:         2       0       0       0       0       0       0       0       0       0       0       0       
      +0       0       0       0
  5967 ;;      Temps:          0       0       0       0       0       0       0       0       0       0       0       0       
      +0       0       0       0
  5968 ;;      Totals:        18       0       0       0       0       0       0       0       0       0       0       0       
      +0       0       0       0
  5969 ;;Total ram usage:       18 bytes
  5970 ;; Hardware stack levels used: 1
  5971 ;; Hardware stack levels required when called: 7
  5972 ;; This function calls:
  5973 ;;		Nothing
  5974 ;; This function is called by:
  5975 ;;		_dtoa
  5976 ;; This function uses a non-reentrant model
  5977 ;;
  5978                           
  5979                           	psect	text29
  5980   00253A                     __ptext29:
  5981                           	callstack 0
  5982   00253A                     ___aomod:
  5983                           	callstack 19
  5984   00253A  0E00               	movlw	0
  5985   00253C  6E2B               	movwf	___aomod@sign^0,c
  5986   00253E  BE21               	btfsc	(___aomod@dividend+7)^0,7,c
  5987   002540  EFA6  F012         	goto	u4330
  5988   002544  EFA4  F012         	goto	u4331
  5989   002548                     u4331:
  5990   002548  EFB8  F012         	goto	l5782
  5991   00254C                     u4330:
  5992   00254C  1E21               	comf	(___aomod@dividend+7)^0,f,c
  5993   00254E  1E20               	comf	(___aomod@dividend+6)^0,f,c
  5994   002550  1E1F               	comf	(___aomod@dividend+5)^0,f,c
  5995   002552  1E1E               	comf	(___aomod@dividend+4)^0,f,c
  5996   002554  1E1D               	comf	(___aomod@dividend+3)^0,f,c
  5997   002556  1E1C               	comf	(___aomod@dividend+2)^0,f,c
  5998   002558  1E1B               	comf	(___aomod@dividend+1)^0,f,c
  5999   00255A  6C1A               	negf	___aomod@dividend^0,c
  6000   00255C  0E00               	movlw	0
  6001   00255E  221B               	addwfc	(___aomod@dividend+1)^0,f,c
  6002   002560  221C               	addwfc	(___aomod@dividend+2)^0,f,c
  6003   002562  221D               	addwfc	(___aomod@dividend+3)^0,f,c
  6004   002564  221E               	addwfc	(___aomod@dividend+4)^0,f,c
  6005   002566  221F               	addwfc	(___aomod@dividend+5)^0,f,c
  6006   002568  2220               	addwfc	(___aomod@dividend+6)^0,f,c
  6007   00256A  2221               	addwfc	(___aomod@dividend+7)^0,f,c
  6008   00256C  0E01               	movlw	1
  6009   00256E  6E2B               	movwf	___aomod@sign^0,c
  6010   002570                     l5782:
  6011   002570  BE29               	btfsc	(___aomod@divisor+7)^0,7,c
  6012   002572  EFBF  F012         	goto	u4340
  6013   002576  EFBD  F012         	goto	u4341
  6014   00257A                     u4341:
  6015   00257A  EFCF  F012         	goto	l5786
  6016   00257E                     u4340:
  6017   00257E  1E29               	comf	(___aomod@divisor+7)^0,f,c
  6018   002580  1E28               	comf	(___aomod@divisor+6)^0,f,c
  6019   002582  1E27               	comf	(___aomod@divisor+5)^0,f,c
  6020   002584  1E26               	comf	(___aomod@divisor+4)^0,f,c
  6021   002586  1E25               	comf	(___aomod@divisor+3)^0,f,c
  6022   002588  1E24               	comf	(___aomod@divisor+2)^0,f,c
  6023   00258A  1E23               	comf	(___aomod@divisor+1)^0,f,c
  6024   00258C  6C22               	negf	___aomod@divisor^0,c
  6025   00258E  0E00               	movlw	0
  6026   002590  2223               	addwfc	(___aomod@divisor+1)^0,f,c
  6027   002592  2224               	addwfc	(___aomod@divisor+2)^0,f,c
  6028   002594  2225               	addwfc	(___aomod@divisor+3)^0,f,c
  6029   002596  2226               	addwfc	(___aomod@divisor+4)^0,f,c
  6030   002598  2227               	addwfc	(___aomod@divisor+5)^0,f,c
  6031   00259A  2228               	addwfc	(___aomod@divisor+6)^0,f,c
  6032   00259C  2229               	addwfc	(___aomod@divisor+7)^0,f,c
  6033   00259E                     l5786:
  6034   00259E  5022               	movf	___aomod@divisor^0,w,c
  6035   0025A0  1023               	iorwf	(___aomod@divisor+1)^0,w,c
  6036   0025A2  1024               	iorwf	(___aomod@divisor+2)^0,w,c
  6037   0025A4  1025               	iorwf	(___aomod@divisor+3)^0,w,c
  6038   0025A6  1026               	iorwf	(___aomod@divisor+4)^0,w,c
  6039   0025A8  1027               	iorwf	(___aomod@divisor+5)^0,w,c
  6040   0025AA  1028               	iorwf	(___aomod@divisor+6)^0,w,c
  6041   0025AC  1029               	iorwf	(___aomod@divisor+7)^0,w,c
  6042   0025AE  B4D8               	btfsc	status,2,c
  6043   0025B0  EFDC  F012         	goto	u4351
  6044   0025B4  EFDE  F012         	goto	u4350
  6045   0025B8                     u4351:
  6046   0025B8  EF26  F013         	goto	l5802
  6047   0025BC                     u4350:
  6048   0025BC  0E01               	movlw	1
  6049   0025BE  6E2A               	movwf	___aomod@counter^0,c
  6050   0025C0  EFEC  F012         	goto	l5792
  6051   0025C4                     l5790:
  6052   0025C4  90D8               	bcf	status,0,c
  6053   0025C6  3622               	rlcf	___aomod@divisor^0,f,c
  6054   0025C8  3623               	rlcf	(___aomod@divisor+1)^0,f,c
  6055   0025CA  3624               	rlcf	(___aomod@divisor+2)^0,f,c
  6056   0025CC  3625               	rlcf	(___aomod@divisor+3)^0,f,c
  6057   0025CE  3626               	rlcf	(___aomod@divisor+4)^0,f,c
  6058   0025D0  3627               	rlcf	(___aomod@divisor+5)^0,f,c
  6059   0025D2  3628               	rlcf	(___aomod@divisor+6)^0,f,c
  6060   0025D4  3629               	rlcf	(___aomod@divisor+7)^0,f,c
  6061   0025D6  2A2A               	incf	___aomod@counter^0,f,c
  6062   0025D8                     l5792:
  6063   0025D8  AE29               	btfss	(___aomod@divisor+7)^0,7,c
  6064   0025DA  EFF1  F012         	goto	u4361
  6065   0025DE  EFF3  F012         	goto	u4360
  6066   0025E2                     u4361:
  6067   0025E2  EFE2  F012         	goto	l5790
  6068   0025E6                     u4360:
  6069   0025E6                     l5794:
  6070   0025E6  5022               	movf	___aomod@divisor^0,w,c
  6071   0025E8  5C1A               	subwf	___aomod@dividend^0,w,c
  6072   0025EA  5023               	movf	(___aomod@divisor+1)^0,w,c
  6073   0025EC  581B               	subwfb	(___aomod@dividend+1)^0,w,c
  6074   0025EE  5024               	movf	(___aomod@divisor+2)^0,w,c
  6075   0025F0  581C               	subwfb	(___aomod@dividend+2)^0,w,c
  6076   0025F2  5025               	movf	(___aomod@divisor+3)^0,w,c
  6077   0025F4  581D               	subwfb	(___aomod@dividend+3)^0,w,c
  6078   0025F6  5026               	movf	(___aomod@divisor+4)^0,w,c
  6079   0025F8  581E               	subwfb	(___aomod@dividend+4)^0,w,c
  6080   0025FA  5027               	movf	(___aomod@divisor+5)^0,w,c
  6081   0025FC  581F               	subwfb	(___aomod@dividend+5)^0,w,c
  6082   0025FE  5028               	movf	(___aomod@divisor+6)^0,w,c
  6083   002600  5820               	subwfb	(___aomod@dividend+6)^0,w,c
  6084   002602  5029               	movf	(___aomod@divisor+7)^0,w,c
  6085   002604  5821               	subwfb	(___aomod@dividend+7)^0,w,c
  6086   002606  A0D8               	btfss	status,0,c
  6087   002608  EF08  F013         	goto	u4371
  6088   00260C  EF0A  F013         	goto	u4370
  6089   002610                     u4371:
  6090   002610  EF1A  F013         	goto	l5798
  6091   002614                     u4370:
  6092   002614  5022               	movf	___aomod@divisor^0,w,c
  6093   002616  5E1A               	subwf	___aomod@dividend^0,f,c
  6094   002618  5023               	movf	(___aomod@divisor+1)^0,w,c
  6095   00261A  5A1B               	subwfb	(___aomod@dividend+1)^0,f,c
  6096   00261C  5024               	movf	(___aomod@divisor+2)^0,w,c
  6097   00261E  5A1C               	subwfb	(___aomod@dividend+2)^0,f,c
  6098   002620  5025               	movf	(___aomod@divisor+3)^0,w,c
  6099   002622  5A1D               	subwfb	(___aomod@dividend+3)^0,f,c
  6100   002624  5026               	movf	(___aomod@divisor+4)^0,w,c
  6101   002626  5A1E               	subwfb	(___aomod@dividend+4)^0,f,c
  6102   002628  5027               	movf	(___aomod@divisor+5)^0,w,c
  6103   00262A  5A1F               	subwfb	(___aomod@dividend+5)^0,f,c
  6104   00262C  5028               	movf	(___aomod@divisor+6)^0,w,c
  6105   00262E  5A20               	subwfb	(___aomod@dividend+6)^0,f,c
  6106   002630  5029               	movf	(___aomod@divisor+7)^0,w,c
  6107   002632  5A21               	subwfb	(___aomod@dividend+7)^0,f,c
  6108   002634                     l5798:
  6109   002634  90D8               	bcf	status,0,c
  6110   002636  3229               	rrcf	(___aomod@divisor+7)^0,f,c
  6111   002638  3228               	rrcf	(___aomod@divisor+6)^0,f,c
  6112   00263A  3227               	rrcf	(___aomod@divisor+5)^0,f,c
  6113   00263C  3226               	rrcf	(___aomod@divisor+4)^0,f,c
  6114   00263E  3225               	rrcf	(___aomod@divisor+3)^0,f,c
  6115   002640  3224               	rrcf	(___aomod@divisor+2)^0,f,c
  6116   002642  3223               	rrcf	(___aomod@divisor+1)^0,f,c
  6117   002644  3222               	rrcf	___aomod@divisor^0,f,c
  6118   002646  2E2A               	decfsz	___aomod@counter^0,f,c
  6119   002648  EFF3  F012         	goto	l5794
  6120   00264C                     l5802:
  6121   00264C  502B               	movf	___aomod@sign^0,w,c
  6122   00264E  B4D8               	btfsc	status,2,c
  6123   002650  EF2C  F013         	goto	u4381
  6124   002654  EF2E  F013         	goto	u4380
  6125   002658                     u4381:
  6126   002658  EF3E  F013         	goto	l5806
  6127   00265C                     u4380:
  6128   00265C  1E21               	comf	(___aomod@dividend+7)^0,f,c
  6129   00265E  1E20               	comf	(___aomod@dividend+6)^0,f,c
  6130   002660  1E1F               	comf	(___aomod@dividend+5)^0,f,c
  6131   002662  1E1E               	comf	(___aomod@dividend+4)^0,f,c
  6132   002664  1E1D               	comf	(___aomod@dividend+3)^0,f,c
  6133   002666  1E1C               	comf	(___aomod@dividend+2)^0,f,c
  6134   002668  1E1B               	comf	(___aomod@dividend+1)^0,f,c
  6135   00266A  6C1A               	negf	___aomod@dividend^0,c
  6136   00266C  0E00               	movlw	0
  6137   00266E  221B               	addwfc	(___aomod@dividend+1)^0,f,c
  6138   002670  221C               	addwfc	(___aomod@dividend+2)^0,f,c
  6139   002672  221D               	addwfc	(___aomod@dividend+3)^0,f,c
  6140   002674  221E               	addwfc	(___aomod@dividend+4)^0,f,c
  6141   002676  221F               	addwfc	(___aomod@dividend+5)^0,f,c
  6142   002678  2220               	addwfc	(___aomod@dividend+6)^0,f,c
  6143   00267A  2221               	addwfc	(___aomod@dividend+7)^0,f,c
  6144   00267C                     l5806:
  6145   00267C  C01A  F01A         	movff	___aomod@dividend,?___aomod
  6146   002680  C01B  F01B         	movff	___aomod@dividend+1,?___aomod+1
  6147   002684  C01C  F01C         	movff	___aomod@dividend+2,?___aomod+2
  6148   002688  C01D  F01D         	movff	___aomod@dividend+3,?___aomod+3
  6149   00268C  C01E  F01E         	movff	___aomod@dividend+4,?___aomod+4
  6150   002690  C01F  F01F         	movff	___aomod@dividend+5,?___aomod+5
  6151   002694  C020  F020         	movff	___aomod@dividend+6,?___aomod+6
  6152   002698  C021  F021         	movff	___aomod@dividend+7,?___aomod+7
  6153   00269C  0012               	return		;funcret
  6154   00269E                     __end_of___aomod:
  6155                           	callstack 0
  6156                           
  6157 ;; *************** function ___aodiv *****************
  6158 ;; Defined at:
  6159 ;;		line 9 in file "C:\Program Files\Microchip\xc8\v2.40\pic\sources\c99\common\aodiv.c"
  6160 ;; Parameters:    Size  Location     Type
  6161 ;;  dividend        8   25[COMRAM] long long 
  6162 ;;  divisor         8   33[COMRAM] long long 
  6163 ;; Auto vars:     Size  Location     Type
  6164 ;;  quotient        8    2[BANK0 ] long long 
  6165 ;;  sign            1    1[BANK0 ] unsigned char 
  6166 ;;  counter         1    0[BANK0 ] unsigned char 
  6167 ;; Return value:  Size  Location     Type
  6168 ;;                  8   25[COMRAM] long long 
  6169 ;; Registers used:
  6170 ;;		wreg, fsr2l, fsr2h, status,2, status,0
  6171 ;; Tracked objects:
  6172 ;;		On entry : 0/0
  6173 ;;		On exit  : 0/0
  6174 ;;		Unchanged: 0/0
  6175 ;; Data sizes:     COMRAM   BANK0   BANK1   BANK2   BANK3   BANK4   BANK5   BANK6   BANK7   BANK8   BANK9  BANK10  BANK1
      +1  BANK12  BANK13  BANK14
  6176 ;;      Params:        16       0       0       0       0       0       0       0       0       0       0       0       
      +0       0       0       0
  6177 ;;      Locals:         0      10       0       0       0       0       0       0       0       0       0       0       
      +0       0       0       0
  6178 ;;      Temps:          0       0       0       0       0       0       0       0       0       0       0       0       
      +0       0       0       0
  6179 ;;      Totals:        16      10       0       0       0       0       0       0       0       0       0       0       
      +0       0       0       0
  6180 ;;Total ram usage:       26 bytes
  6181 ;; Hardware stack levels used: 1
  6182 ;; Hardware stack levels required when called: 7
  6183 ;; This function calls:
  6184 ;;		Nothing
  6185 ;; This function is called by:
  6186 ;;		_dtoa
  6187 ;; This function uses a non-reentrant model
  6188 ;;
  6189                           
  6190                           	psect	text30
  6191   0023B0                     __ptext30:
  6192                           	callstack 0
  6193   0023B0                     ___aodiv:
  6194                           	callstack 19
  6195   0023B0  0E00               	movlw	0
  6196   0023B2  0100               	movlb	0	; () banked
  6197   0023B4  6F61               	movwf	___aodiv@sign& (0+255),b
  6198   0023B6                     
  6199                           ; BSR set to: 0
  6200   0023B6  BE29               	btfsc	(___aodiv@divisor+7)^0,7,c
  6201   0023B8  EFE2  F011         	goto	u4260
  6202   0023BC  EFE0  F011         	goto	u4261
  6203   0023C0                     u4261:
  6204   0023C0  EFF4  F011         	goto	l5738
  6205   0023C4                     u4260:
  6206   0023C4                     
  6207                           ; BSR set to: 0
  6208   0023C4  1E29               	comf	(___aodiv@divisor+7)^0,f,c
  6209   0023C6  1E28               	comf	(___aodiv@divisor+6)^0,f,c
  6210   0023C8  1E27               	comf	(___aodiv@divisor+5)^0,f,c
  6211   0023CA  1E26               	comf	(___aodiv@divisor+4)^0,f,c
  6212   0023CC  1E25               	comf	(___aodiv@divisor+3)^0,f,c
  6213   0023CE  1E24               	comf	(___aodiv@divisor+2)^0,f,c
  6214   0023D0  1E23               	comf	(___aodiv@divisor+1)^0,f,c
  6215   0023D2  6C22               	negf	___aodiv@divisor^0,c
  6216   0023D4  0E00               	movlw	0
  6217   0023D6  2223               	addwfc	(___aodiv@divisor+1)^0,f,c
  6218   0023D8  2224               	addwfc	(___aodiv@divisor+2)^0,f,c
  6219   0023DA  2225               	addwfc	(___aodiv@divisor+3)^0,f,c
  6220   0023DC  2226               	addwfc	(___aodiv@divisor+4)^0,f,c
  6221   0023DE  2227               	addwfc	(___aodiv@divisor+5)^0,f,c
  6222   0023E0  2228               	addwfc	(___aodiv@divisor+6)^0,f,c
  6223   0023E2  2229               	addwfc	(___aodiv@divisor+7)^0,f,c
  6224   0023E4                     
  6225                           ; BSR set to: 0
  6226   0023E4  0E01               	movlw	1
  6227   0023E6  6F61               	movwf	___aodiv@sign& (0+255),b
  6228   0023E8                     l5738:
  6229                           
  6230                           ; BSR set to: 0
  6231   0023E8  BE21               	btfsc	(___aodiv@dividend+7)^0,7,c
  6232   0023EA  EFFB  F011         	goto	u4270
  6233   0023EE  EFF9  F011         	goto	u4271
  6234   0023F2                     u4271:
  6235   0023F2  EF0D  F012         	goto	l5744
  6236   0023F6                     u4270:
  6237   0023F6                     
  6238                           ; BSR set to: 0
  6239   0023F6  1E21               	comf	(___aodiv@dividend+7)^0,f,c
  6240   0023F8  1E20               	comf	(___aodiv@dividend+6)^0,f,c
  6241   0023FA  1E1F               	comf	(___aodiv@dividend+5)^0,f,c
  6242   0023FC  1E1E               	comf	(___aodiv@dividend+4)^0,f,c
  6243   0023FE  1E1D               	comf	(___aodiv@dividend+3)^0,f,c
  6244   002400  1E1C               	comf	(___aodiv@dividend+2)^0,f,c
  6245   002402  1E1B               	comf	(___aodiv@dividend+1)^0,f,c
  6246   002404  6C1A               	negf	___aodiv@dividend^0,c
  6247   002406  0E00               	movlw	0
  6248   002408  221B               	addwfc	(___aodiv@dividend+1)^0,f,c
  6249   00240A  221C               	addwfc	(___aodiv@dividend+2)^0,f,c
  6250   00240C  221D               	addwfc	(___aodiv@dividend+3)^0,f,c
  6251   00240E  221E               	addwfc	(___aodiv@dividend+4)^0,f,c
  6252   002410  221F               	addwfc	(___aodiv@dividend+5)^0,f,c
  6253   002412  2220               	addwfc	(___aodiv@dividend+6)^0,f,c
  6254   002414  2221               	addwfc	(___aodiv@dividend+7)^0,f,c
  6255   002416                     
  6256                           ; BSR set to: 0
  6257   002416  0E01               	movlw	1
  6258   002418  1B61               	xorwf	___aodiv@sign& (0+255),f,b
  6259   00241A                     l5744:
  6260                           
  6261                           ; BSR set to: 0
  6262   00241A  EE20  F062         	lfsr	2,___aodiv@quotient
  6263   00241E  0E07               	movlw	7
  6264   002420                     u4281:
  6265   002420  6ADE               	clrf	postinc2,c
  6266   002422  06E8               	decf	wreg,f,c
  6267   002424  E2FD               	bc	u4281
  6268   002426                     
  6269                           ; BSR set to: 0
  6270   002426  5022               	movf	___aodiv@divisor^0,w,c
  6271   002428  1023               	iorwf	(___aodiv@divisor+1)^0,w,c
  6272   00242A  1024               	iorwf	(___aodiv@divisor+2)^0,w,c
  6273   00242C  1025               	iorwf	(___aodiv@divisor+3)^0,w,c
  6274   00242E  1026               	iorwf	(___aodiv@divisor+4)^0,w,c
  6275   002430  1027               	iorwf	(___aodiv@divisor+5)^0,w,c
  6276   002432  1028               	iorwf	(___aodiv@divisor+6)^0,w,c
  6277   002434  1029               	iorwf	(___aodiv@divisor+7)^0,w,c
  6278   002436  B4D8               	btfsc	status,2,c
  6279   002438  EF20  F012         	goto	u4291
  6280   00243C  EF22  F012         	goto	u4290
  6281   002440                     u4291:
  6282   002440  EF74  F012         	goto	l5766
  6283   002444                     u4290:
  6284   002444                     
  6285                           ; BSR set to: 0
  6286   002444  0E01               	movlw	1
  6287   002446  6F60               	movwf	___aodiv@counter& (0+255),b
  6288   002448  EF30  F012         	goto	l5752
  6289   00244C                     l5750:
  6290                           
  6291                           ; BSR set to: 0
  6292   00244C  90D8               	bcf	status,0,c
  6293   00244E  3622               	rlcf	___aodiv@divisor^0,f,c
  6294   002450  3623               	rlcf	(___aodiv@divisor+1)^0,f,c
  6295   002452  3624               	rlcf	(___aodiv@divisor+2)^0,f,c
  6296   002454  3625               	rlcf	(___aodiv@divisor+3)^0,f,c
  6297   002456  3626               	rlcf	(___aodiv@divisor+4)^0,f,c
  6298   002458  3627               	rlcf	(___aodiv@divisor+5)^0,f,c
  6299   00245A  3628               	rlcf	(___aodiv@divisor+6)^0,f,c
  6300   00245C  3629               	rlcf	(___aodiv@divisor+7)^0,f,c
  6301   00245E  2B60               	incf	___aodiv@counter& (0+255),f,b
  6302   002460                     l5752:
  6303                           
  6304                           ; BSR set to: 0
  6305   002460  AE29               	btfss	(___aodiv@divisor+7)^0,7,c
  6306   002462  EF35  F012         	goto	u4301
  6307   002466  EF37  F012         	goto	u4300
  6308   00246A                     u4301:
  6309   00246A  EF26  F012         	goto	l5750
  6310   00246E                     u4300:
  6311   00246E                     l5754:
  6312                           
  6313                           ; BSR set to: 0
  6314   00246E  90D8               	bcf	status,0,c
  6315   002470  3762               	rlcf	___aodiv@quotient& (0+255),f,b
  6316   002472  3763               	rlcf	(___aodiv@quotient+1)& (0+255),f,b
  6317   002474  3764               	rlcf	(___aodiv@quotient+2)& (0+255),f,b
  6318   002476  3765               	rlcf	(___aodiv@quotient+3)& (0+255),f,b
  6319   002478  3766               	rlcf	(___aodiv@quotient+4)& (0+255),f,b
  6320   00247A  3767               	rlcf	(___aodiv@quotient+5)& (0+255),f,b
  6321   00247C  3768               	rlcf	(___aodiv@quotient+6)& (0+255),f,b
  6322   00247E  3769               	rlcf	(___aodiv@quotient+7)& (0+255),f,b
  6323   002480                     
  6324                           ; BSR set to: 0
  6325   002480  5022               	movf	___aodiv@divisor^0,w,c
  6326   002482  5C1A               	subwf	___aodiv@dividend^0,w,c
  6327   002484  5023               	movf	(___aodiv@divisor+1)^0,w,c
  6328   002486  581B               	subwfb	(___aodiv@dividend+1)^0,w,c
  6329   002488  5024               	movf	(___aodiv@divisor+2)^0,w,c
  6330   00248A  581C               	subwfb	(___aodiv@dividend+2)^0,w,c
  6331   00248C  5025               	movf	(___aodiv@divisor+3)^0,w,c
  6332   00248E  581D               	subwfb	(___aodiv@dividend+3)^0,w,c
  6333   002490  5026               	movf	(___aodiv@divisor+4)^0,w,c
  6334   002492  581E               	subwfb	(___aodiv@dividend+4)^0,w,c
  6335   002494  5027               	movf	(___aodiv@divisor+5)^0,w,c
  6336   002496  581F               	subwfb	(___aodiv@dividend+5)^0,w,c
  6337   002498  5028               	movf	(___aodiv@divisor+6)^0,w,c
  6338   00249A  5820               	subwfb	(___aodiv@dividend+6)^0,w,c
  6339   00249C  5029               	movf	(___aodiv@divisor+7)^0,w,c
  6340   00249E  5821               	subwfb	(___aodiv@dividend+7)^0,w,c
  6341   0024A0  A0D8               	btfss	status,0,c
  6342   0024A2  EF55  F012         	goto	u4311
  6343   0024A6  EF57  F012         	goto	u4310
  6344   0024AA                     u4311:
  6345   0024AA  EF68  F012         	goto	l5762
  6346   0024AE                     u4310:
  6347   0024AE                     
  6348                           ; BSR set to: 0
  6349   0024AE  5022               	movf	___aodiv@divisor^0,w,c
  6350   0024B0  5E1A               	subwf	___aodiv@dividend^0,f,c
  6351   0024B2  5023               	movf	(___aodiv@divisor+1)^0,w,c
  6352   0024B4  5A1B               	subwfb	(___aodiv@dividend+1)^0,f,c
  6353   0024B6  5024               	movf	(___aodiv@divisor+2)^0,w,c
  6354   0024B8  5A1C               	subwfb	(___aodiv@dividend+2)^0,f,c
  6355   0024BA  5025               	movf	(___aodiv@divisor+3)^0,w,c
  6356   0024BC  5A1D               	subwfb	(___aodiv@dividend+3)^0,f,c
  6357   0024BE  5026               	movf	(___aodiv@divisor+4)^0,w,c
  6358   0024C0  5A1E               	subwfb	(___aodiv@dividend+4)^0,f,c
  6359   0024C2  5027               	movf	(___aodiv@divisor+5)^0,w,c
  6360   0024C4  5A1F               	subwfb	(___aodiv@dividend+5)^0,f,c
  6361   0024C6  5028               	movf	(___aodiv@divisor+6)^0,w,c
  6362   0024C8  5A20               	subwfb	(___aodiv@dividend+6)^0,f,c
  6363   0024CA  5029               	movf	(___aodiv@divisor+7)^0,w,c
  6364   0024CC  5A21               	subwfb	(___aodiv@dividend+7)^0,f,c
  6365   0024CE                     
  6366                           ; BSR set to: 0
  6367   0024CE  8162               	bsf	___aodiv@quotient& (0+255),0,b
  6368   0024D0                     l5762:
  6369                           
  6370                           ; BSR set to: 0
  6371   0024D0  90D8               	bcf	status,0,c
  6372   0024D2  3229               	rrcf	(___aodiv@divisor+7)^0,f,c
  6373   0024D4  3228               	rrcf	(___aodiv@divisor+6)^0,f,c
  6374   0024D6  3227               	rrcf	(___aodiv@divisor+5)^0,f,c
  6375   0024D8  3226               	rrcf	(___aodiv@divisor+4)^0,f,c
  6376   0024DA  3225               	rrcf	(___aodiv@divisor+3)^0,f,c
  6377   0024DC  3224               	rrcf	(___aodiv@divisor+2)^0,f,c
  6378   0024DE  3223               	rrcf	(___aodiv@divisor+1)^0,f,c
  6379   0024E0  3222               	rrcf	___aodiv@divisor^0,f,c
  6380   0024E2                     
  6381                           ; BSR set to: 0
  6382   0024E2  2F60               	decfsz	___aodiv@counter& (0+255),f,b
  6383   0024E4  EF37  F012         	goto	l5754
  6384   0024E8                     l5766:
  6385                           
  6386                           ; BSR set to: 0
  6387   0024E8  5161               	movf	___aodiv@sign& (0+255),w,b
  6388   0024EA  B4D8               	btfsc	status,2,c
  6389   0024EC  EF7A  F012         	goto	u4321
  6390   0024F0  EF7C  F012         	goto	u4320
  6391   0024F4                     u4321:
  6392   0024F4  EF8C  F012         	goto	l5770
  6393   0024F8                     u4320:
  6394   0024F8                     
  6395                           ; BSR set to: 0
  6396   0024F8  1F69               	comf	(___aodiv@quotient+7)& (0+255),f,b
  6397   0024FA  1F68               	comf	(___aodiv@quotient+6)& (0+255),f,b
  6398   0024FC  1F67               	comf	(___aodiv@quotient+5)& (0+255),f,b
  6399   0024FE  1F66               	comf	(___aodiv@quotient+4)& (0+255),f,b
  6400   002500  1F65               	comf	(___aodiv@quotient+3)& (0+255),f,b
  6401   002502  1F64               	comf	(___aodiv@quotient+2)& (0+255),f,b
  6402   002504  1F63               	comf	(___aodiv@quotient+1)& (0+255),f,b
  6403   002506  6D62               	negf	___aodiv@quotient& (0+255),b
  6404   002508  0E00               	movlw	0
  6405   00250A  2363               	addwfc	(___aodiv@quotient+1)& (0+255),f,b
  6406   00250C  2364               	addwfc	(___aodiv@quotient+2)& (0+255),f,b
  6407   00250E  2365               	addwfc	(___aodiv@quotient+3)& (0+255),f,b
  6408   002510  2366               	addwfc	(___aodiv@quotient+4)& (0+255),f,b
  6409   002512  2367               	addwfc	(___aodiv@quotient+5)& (0+255),f,b
  6410   002514  2368               	addwfc	(___aodiv@quotient+6)& (0+255),f,b
  6411   002516  2369               	addwfc	(___aodiv@quotient+7)& (0+255),f,b
  6412   002518                     l5770:
  6413                           
  6414                           ; BSR set to: 0
  6415   002518  C062  F01A         	movff	___aodiv@quotient,?___aodiv
  6416   00251C  C063  F01B         	movff	___aodiv@quotient+1,?___aodiv+1
  6417   002520  C064  F01C         	movff	___aodiv@quotient+2,?___aodiv+2
  6418   002524  C065  F01D         	movff	___aodiv@quotient+3,?___aodiv+3
  6419   002528  C066  F01E         	movff	___aodiv@quotient+4,?___aodiv+4
  6420   00252C  C067  F01F         	movff	___aodiv@quotient+5,?___aodiv+5
  6421   002530  C068  F020         	movff	___aodiv@quotient+6,?___aodiv+6
  6422   002534  C069  F021         	movff	___aodiv@quotient+7,?___aodiv+7
  6423   002538                     
  6424                           ; BSR set to: 0
  6425   002538  0012               	return		;funcret
  6426   00253A                     __end_of___aodiv:
  6427                           	callstack 0
  6428                           
  6429 ;; *************** function _atoi *****************
  6430 ;; Defined at:
  6431 ;;		line 4 in file "C:\Program Files\Microchip\xc8\v2.40\pic\sources\c99\common\atoi.c"
  6432 ;; Parameters:    Size  Location     Type
  6433 ;;  s               2   31[COMRAM] PTR const unsigned char 
  6434 ;;		 -> STR_6(25), STR_5(26), STR_4(21), STR_3(12), 
  6435 ;;		 -> STR_2(13), STR_1(22), 
  6436 ;; Auto vars:     Size  Location     Type
  6437 ;;  n               2   38[COMRAM] int 
  6438 ;;  neg             2   36[COMRAM] int 
  6439 ;; Return value:  Size  Location     Type
  6440 ;;                  2   31[COMRAM] int 
  6441 ;; Registers used:
  6442 ;;		wreg, status,2, status,0, tblptrl, tblptrh, tblptru, prodl, prodh, cstack
  6443 ;; Tracked objects:
  6444 ;;		On entry : 0/0
  6445 ;;		On exit  : 0/0
  6446 ;;		Unchanged: 0/0
  6447 ;; Data sizes:     COMRAM   BANK0   BANK1   BANK2   BANK3   BANK4   BANK5   BANK6   BANK7   BANK8   BANK9  BANK10  BANK1
      +1  BANK12  BANK13  BANK14
  6448 ;;      Params:         2       0       0       0       0       0       0       0       0       0       0       0       
      +0       0       0       0
  6449 ;;      Locals:         4       0       0       0       0       0       0       0       0       0       0       0       
      +0       0       0       0
  6450 ;;      Temps:          3       0       0       0       0       0       0       0       0       0       0       0       
      +0       0       0       0
  6451 ;;      Totals:         9       0       0       0       0       0       0       0       0       0       0       0       
      +0       0       0       0
  6452 ;;Total ram usage:        9 bytes
  6453 ;; Hardware stack levels used: 1
  6454 ;; Hardware stack levels required when called: 8
  6455 ;; This function calls:
  6456 ;;		___wmul
  6457 ;;		_isdigit
  6458 ;;		_isspace
  6459 ;; This function is called by:
  6460 ;;		_vfpfcnvrt
  6461 ;; This function uses a non-reentrant model
  6462 ;;
  6463                           
  6464                           	psect	text31
  6465   00269E                     __ptext31:
  6466                           	callstack 0
  6467   00269E                     _atoi:
  6468                           	callstack 19
  6469   00269E  0E00               	movlw	0
  6470   0026A0  6E28               	movwf	(atoi@n+1)^0,c
  6471   0026A2  0E00               	movlw	0
  6472   0026A4  6E27               	movwf	atoi@n^0,c
  6473   0026A6  0E00               	movlw	0
  6474   0026A8  6E26               	movwf	(atoi@neg+1)^0,c
  6475   0026AA  0E00               	movlw	0
  6476   0026AC  6E25               	movwf	atoi@neg^0,c
  6477   0026AE  EF5B  F013         	goto	l6010
  6478   0026B2                     l6006:
  6479   0026B2  4A20               	infsnz	atoi@s^0,f,c
  6480   0026B4  2A21               	incf	(atoi@s+1)^0,f,c
  6481   0026B6                     l6010:
  6482   0026B6  C020  FFF6         	movff	atoi@s,tblptrl
  6483   0026BA  C021  FFF7         	movff	atoi@s+1,tblptrh
  6484   0026BE                     	if	1	;Program memory is < 0x10000, tblptru is always zero
  6485   0026BE  6AF8               	clrf	tblptru,c
  6486   0026C0                     	endif
  6487   0026C0                     	if	0	;tblptru may be non-zero
  6488   0026C0                     	endif
  6489   0026C0  0008               	tblrd		*
  6490   0026C2  50F5               	movf	tablat,w,c
  6491   0026C4  0A20               	xorlw	32
  6492   0026C6  B4D8               	btfsc	status,2,c
  6493   0026C8  EF68  F013         	goto	u4731
  6494   0026CC  EF6A  F013         	goto	u4730
  6495   0026D0                     u4731:
  6496   0026D0  EF59  F013         	goto	l6006
  6497   0026D4                     u4730:
  6498   0026D4  C020  FFF6         	movff	atoi@s,tblptrl
  6499   0026D8  C021  FFF7         	movff	atoi@s+1,tblptrh
  6500   0026DC                     	if	1	;Program memory is < 0x10000, tblptru is always zero
  6501   0026DC  6AF8               	clrf	tblptru,c
  6502   0026DE                     	endif
  6503   0026DE                     	if	0	;tblptru may be non-zero
  6504   0026DE                     	endif
  6505   0026DE  0008               	tblrd		*
  6506   0026E0  CFF5 F022          	movff	tablat,??_atoi
  6507   0026E4  0EF7               	movlw	247
  6508   0026E6  2422               	addwf	??_atoi^0,w,c
  6509   0026E8  6E23               	movwf	(??_atoi+1)^0,c
  6510   0026EA  6A24               	clrf	(??_atoi+2)^0,c
  6511   0026EC  0EFF               	movlw	255
  6512   0026EE  2224               	addwfc	(??_atoi+2)^0,f,c
  6513   0026F0  5024               	movf	(??_atoi+2)^0,w,c
  6514   0026F2  E109               	bnz	u4740
  6515   0026F4  0E05               	movlw	5
  6516   0026F6  5C23               	subwf	(??_atoi+1)^0,w,c
  6517   0026F8  A0D8               	btfss	status,0,c
  6518   0026FA  EF81  F013         	goto	u4741
  6519   0026FE  EF83  F013         	goto	u4740
  6520   002702                     u4741:
  6521   002702  EF59  F013         	goto	l6006
  6522   002706                     u4740:
  6523   002706  EF8D  F013         	goto	l6018
  6524   00270A                     l6014:
  6525   00270A  0E00               	movlw	0
  6526   00270C  6E26               	movwf	(atoi@neg+1)^0,c
  6527   00270E  0E01               	movlw	1
  6528   002710  6E25               	movwf	atoi@neg^0,c
  6529   002712                     l6016:
  6530   002712  4A20               	infsnz	atoi@s^0,f,c
  6531   002714  2A21               	incf	(atoi@s+1)^0,f,c
  6532   002716  EFC4  F013         	goto	l6026
  6533   00271A                     l6018:
  6534   00271A  C020  FFF6         	movff	atoi@s,tblptrl
  6535   00271E  C021  FFF7         	movff	atoi@s+1,tblptrh
  6536   002722                     	if	1	;Program memory is < 0x10000, tblptru is always zero
  6537   002722  6AF8               	clrf	tblptru,c
  6538   002724                     	endif
  6539   002724                     	if	0	;tblptru may be non-zero
  6540   002724                     	endif
  6541   002724  0008               	tblrd		*
  6542   002726  50F5               	movf	tablat,w,c
  6543   002728  6E22               	movwf	??_atoi^0,c
  6544   00272A  6A23               	clrf	(??_atoi+1)^0,c
  6545                           
  6546                           ; Switch on 2 bytes has been partitioned into a top level switch of size 1, and 1 sub-sw
      +                          itches
  6547                           ; Switch size 1, requested type "simple"
  6548                           ; Number of cases is 1, Range of values is 0 to 0
  6549                           ; switch strategies available:
  6550                           ; Name         Instructions Cycles
  6551                           ; simple_byte            4     3 (average)
  6552                           ;	Chosen strategy is simple_byte
  6553   00272C  5023               	movf	(??_atoi+1)^0,w,c
  6554   00272E  0A00               	xorlw	0	; case 0
  6555   002730  B4D8               	btfsc	status,2,c
  6556   002732  EF9D  F013         	goto	l6998
  6557   002736  EFC4  F013         	goto	l6026
  6558   00273A                     l6998:
  6559                           
  6560                           ; Switch size 1, requested type "simple"
  6561                           ; Number of cases is 2, Range of values is 43 to 45
  6562                           ; switch strategies available:
  6563                           ; Name         Instructions Cycles
  6564                           ; simple_byte            7     4 (average)
  6565                           ;	Chosen strategy is simple_byte
  6566   00273A  5022               	movf	??_atoi^0,w,c
  6567   00273C  0A2B               	xorlw	43	; case 43
  6568   00273E  B4D8               	btfsc	status,2,c
  6569   002740  EF89  F013         	goto	l6016
  6570   002744  0A06               	xorlw	6	; case 45
  6571   002746  B4D8               	btfsc	status,2,c
  6572   002748  EF85  F013         	goto	l6014
  6573   00274C  EFC4  F013         	goto	l6026
  6574   002750                     l6020:
  6575   002750  C027  F01A         	movff	atoi@n,___wmul@multiplier
  6576   002754  C028  F01B         	movff	atoi@n+1,___wmul@multiplier+1
  6577   002758  0E00               	movlw	0
  6578   00275A  6E1D               	movwf	(___wmul@multiplicand+1)^0,c
  6579   00275C  0E0A               	movlw	10
  6580   00275E  6E1C               	movwf	___wmul@multiplicand^0,c
  6581   002760  EC3A  F01C         	call	___wmul	;wreg free
  6582   002764  C020  FFF6         	movff	atoi@s,tblptrl
  6583   002768  C021  FFF7         	movff	atoi@s+1,tblptrh
  6584   00276C                     	if	1	;Program memory is < 0x10000, tblptru is always zero
  6585   00276C  6AF8               	clrf	tblptru,c
  6586   00276E                     	endif
  6587   00276E                     	if	0	;tblptru may be non-zero
  6588   00276E                     	endif
  6589   00276E  0008               	tblrd		*
  6590   002770  50F5               	movf	tablat,w,c
  6591   002772  5E1A               	subwf	?___wmul^0,f,c
  6592   002774  0E00               	movlw	0
  6593   002776  5A1B               	subwfb	(?___wmul+1)^0,f,c
  6594   002778  0E30               	movlw	48
  6595   00277A  241A               	addwf	?___wmul^0,w,c
  6596   00277C  6E27               	movwf	atoi@n^0,c
  6597   00277E  0E00               	movlw	0
  6598   002780  201B               	addwfc	(?___wmul+1)^0,w,c
  6599   002782  6E28               	movwf	(atoi@n+1)^0,c
  6600   002784  EF89  F013         	goto	l6016
  6601   002788                     l6026:
  6602   002788  C020  FFF6         	movff	atoi@s,tblptrl
  6603   00278C  C021  FFF7         	movff	atoi@s+1,tblptrh
  6604   002790                     	if	1	;Program memory is < 0x10000, tblptru is always zero
  6605   002790  6AF8               	clrf	tblptru,c
  6606   002792                     	endif
  6607   002792                     	if	0	;tblptru may be non-zero
  6608   002792                     	endif
  6609   002792  0008               	tblrd		*
  6610   002794  CFF5 F022          	movff	tablat,??_atoi
  6611   002798  0ED0               	movlw	208
  6612   00279A  2422               	addwf	??_atoi^0,w,c
  6613   00279C  6E23               	movwf	(??_atoi+1)^0,c
  6614   00279E  6A24               	clrf	(??_atoi+2)^0,c
  6615   0027A0  0EFF               	movlw	255
  6616   0027A2  2224               	addwfc	(??_atoi+2)^0,f,c
  6617   0027A4  5024               	movf	(??_atoi+2)^0,w,c
  6618   0027A6  E109               	bnz	u4750
  6619   0027A8  0E0A               	movlw	10
  6620   0027AA  5C23               	subwf	(??_atoi+1)^0,w,c
  6621   0027AC  A0D8               	btfss	status,0,c
  6622   0027AE  EFDB  F013         	goto	u4751
  6623   0027B2  EFDD  F013         	goto	u4750
  6624   0027B6                     u4751:
  6625   0027B6  EFA8  F013         	goto	l6020
  6626   0027BA                     u4750:
  6627   0027BA  5025               	movf	atoi@neg^0,w,c
  6628   0027BC  1026               	iorwf	(atoi@neg+1)^0,w,c
  6629   0027BE  A4D8               	btfss	status,2,c
  6630   0027C0  EFE4  F013         	goto	u4761
  6631   0027C4  EFE6  F013         	goto	u4760
  6632   0027C8                     u4761:
  6633   0027C8  EFF4  F013         	goto	l1733
  6634   0027CC                     u4760:
  6635   0027CC  C027  F022         	movff	atoi@n,??_atoi
  6636   0027D0  C028  F023         	movff	atoi@n+1,??_atoi+1
  6637   0027D4  1E22               	comf	??_atoi^0,f,c
  6638   0027D6  1E23               	comf	(??_atoi+1)^0,f,c
  6639   0027D8  4A22               	infsnz	??_atoi^0,f,c
  6640   0027DA  2A23               	incf	(??_atoi+1)^0,f,c
  6641   0027DC  C022  F020         	movff	??_atoi,?_atoi
  6642   0027E0  C023  F021         	movff	??_atoi+1,?_atoi+1
  6643   0027E4  EFF8  F013         	goto	l1736
  6644   0027E8                     l1733:
  6645   0027E8  C027  F020         	movff	atoi@n,?_atoi
  6646   0027EC  C028  F021         	movff	atoi@n+1,?_atoi+1
  6647   0027F0                     l1736:
  6648   0027F0  0012               	return		;funcret
  6649   0027F2                     __end_of_atoi:
  6650                           	callstack 0
  6651                           
  6652 ;; *************** function _isspace *****************
  6653 ;; Defined at:
  6654 ;;		line 5 in file "C:\Program Files\Microchip\xc8\v2.40\pic\sources\c99\common\isspace.c"
  6655 ;; Parameters:    Size  Location     Type
  6656 ;;  c               2   25[COMRAM] int 
  6657 ;; Auto vars:     Size  Location     Type
  6658 ;;		None
  6659 ;; Return value:  Size  Location     Type
  6660 ;;                  2   25[COMRAM] int 
  6661 ;; Registers used:
  6662 ;;		wreg, status,2, status,0
  6663 ;; Tracked objects:
  6664 ;;		On entry : 0/0
  6665 ;;		On exit  : 0/0
  6666 ;;		Unchanged: 0/0
  6667 ;; Data sizes:     COMRAM   BANK0   BANK1   BANK2   BANK3   BANK4   BANK5   BANK6   BANK7   BANK8   BANK9  BANK10  BANK1
      +1  BANK12  BANK13  BANK14
  6668 ;;      Params:         2       0       0       0       0       0       0       0       0       0       0       0       
      +0       0       0       0
  6669 ;;      Locals:         1       0       0       0       0       0       0       0       0       0       0       0       
      +0       0       0       0
  6670 ;;      Temps:          2       0       0       0       0       0       0       0       0       0       0       0       
      +0       0       0       0
  6671 ;;      Totals:         5       0       0       0       0       0       0       0       0       0       0       0       
      +0       0       0       0
  6672 ;;Total ram usage:        5 bytes
  6673 ;; Hardware stack levels used: 1
  6674 ;; Hardware stack levels required when called: 7
  6675 ;; This function calls:
  6676 ;;		Nothing
  6677 ;; This function is called by:
  6678 ;;		_atoi
  6679 ;; This function uses a non-reentrant model
  6680 ;;
  6681                           
  6682                           	psect	text32
  6683   0034B2                     __ptext32:
  6684                           	callstack 0
  6685   0034B2                     _isspace:
  6686                           	callstack 19
  6687   0034B2  0E01               	movlw	1
  6688   0034B4  6E1E               	movwf	_isspace$2752^0,c
  6689   0034B6  0E20               	movlw	32
  6690   0034B8  181A               	xorwf	isspace@c^0,w,c
  6691   0034BA  101B               	iorwf	(isspace@c+1)^0,w,c
  6692   0034BC  B4D8               	btfsc	status,2,c
  6693   0034BE  EF63  F01A         	goto	u4531
  6694   0034C2  EF65  F01A         	goto	u4530
  6695   0034C6                     u4531:
  6696   0034C6  EF78  F01A         	goto	l5882
  6697   0034CA                     u4530:
  6698   0034CA  0EF7               	movlw	247
  6699   0034CC  241A               	addwf	isspace@c^0,w,c
  6700   0034CE  6E1C               	movwf	??_isspace^0,c
  6701   0034D0  0EFF               	movlw	255
  6702   0034D2  201B               	addwfc	(isspace@c+1)^0,w,c
  6703   0034D4  6E1D               	movwf	(??_isspace+1)^0,c
  6704   0034D6  501D               	movf	(??_isspace+1)^0,w,c
  6705   0034D8  E109               	bnz	u4540
  6706   0034DA  0E05               	movlw	5
  6707   0034DC  5C1C               	subwf	??_isspace^0,w,c
  6708   0034DE  A0D8               	btfss	status,0,c
  6709   0034E0  EF74  F01A         	goto	u4541
  6710   0034E4  EF76  F01A         	goto	u4540
  6711   0034E8                     u4541:
  6712   0034E8  EF78  F01A         	goto	l5882
  6713   0034EC                     u4540:
  6714   0034EC  0E00               	movlw	0
  6715   0034EE  6E1E               	movwf	_isspace$2752^0,c
  6716   0034F0                     l5882:
  6717   0034F0  C01E  F01A         	movff	_isspace$2752,?_isspace
  6718   0034F4  6A1B               	clrf	(?_isspace+1)^0,c
  6719   0034F6  0012               	return		;funcret
  6720   0034F8                     __end_of_isspace:
  6721                           	callstack 0
  6722                           
  6723 ;; *************** function _isdigit *****************
  6724 ;; Defined at:
  6725 ;;		line 5 in file "C:\Program Files\Microchip\xc8\v2.40\pic\sources\c99\common\isdigit.c"
  6726 ;; Parameters:    Size  Location     Type
  6727 ;;  c               2   25[COMRAM] int 
  6728 ;; Auto vars:     Size  Location     Type
  6729 ;;		None
  6730 ;; Return value:  Size  Location     Type
  6731 ;;                  2   25[COMRAM] int 
  6732 ;; Registers used:
  6733 ;;		wreg, status,2, status,0
  6734 ;; Tracked objects:
  6735 ;;		On entry : 0/0
  6736 ;;		On exit  : 0/0
  6737 ;;		Unchanged: 0/0
  6738 ;; Data sizes:     COMRAM   BANK0   BANK1   BANK2   BANK3   BANK4   BANK5   BANK6   BANK7   BANK8   BANK9  BANK10  BANK1
      +1  BANK12  BANK13  BANK14
  6739 ;;      Params:         2       0       0       0       0       0       0       0       0       0       0       0       
      +0       0       0       0
  6740 ;;      Locals:         0       0       0       0       0       0       0       0       0       0       0       0       
      +0       0       0       0
  6741 ;;      Temps:          2       0       0       0       0       0       0       0       0       0       0       0       
      +0       0       0       0
  6742 ;;      Totals:         4       0       0       0       0       0       0       0       0       0       0       0       
      +0       0       0       0
  6743 ;;Total ram usage:        4 bytes
  6744 ;; Hardware stack levels used: 1
  6745 ;; Hardware stack levels required when called: 7
  6746 ;; This function calls:
  6747 ;;		Nothing
  6748 ;; This function is called by:
  6749 ;;		_vfpfcnvrt
  6750 ;;		_atoi
  6751 ;; This function uses a non-reentrant model
  6752 ;;
  6753                           
  6754                           	psect	text33
  6755   00369A                     __ptext33:
  6756                           	callstack 0
  6757   00369A                     _isdigit:
  6758                           	callstack 20
  6759   00369A  0ED0               	movlw	208
  6760   00369C  241A               	addwf	isdigit@c^0,w,c
  6761   00369E  6E1C               	movwf	??_isdigit^0,c
  6762   0036A0  0EFF               	movlw	255
  6763   0036A2  201B               	addwfc	(isdigit@c+1)^0,w,c
  6764   0036A4  6E1D               	movwf	(??_isdigit+1)^0,c
  6765   0036A6  501D               	movf	(??_isdigit+1)^0,w,c
  6766   0036A8  E10A               	bnz	u4510
  6767   0036AA  0E0A               	movlw	10
  6768   0036AC  5C1C               	subwf	??_isdigit^0,w,c
  6769   0036AE  A0D8               	btfss	status,0,c
  6770   0036B0  EF5C  F01B         	goto	u4511
  6771   0036B4  EF5F  F01B         	goto	u4510
  6772   0036B8                     u4511:
  6773   0036B8  0E01               	movlw	1
  6774   0036BA  EF60  F01B         	goto	u4520
  6775   0036BE                     u4510:
  6776   0036BE  0E00               	movlw	0
  6777   0036C0                     u4520:
  6778   0036C0  6E1A               	movwf	?_isdigit^0,c
  6779   0036C2  6A1B               	clrf	(?_isdigit+1)^0,c
  6780   0036C4  0012               	return		;funcret
  6781   0036C6                     __end_of_isdigit:
  6782                           	callstack 0
  6783                           
  6784 ;; *************** function ___wmul *****************
  6785 ;; Defined at:
  6786 ;;		line 15 in file "C:\Program Files\Microchip\xc8\v2.40\pic\sources\c99\common\Umul16.c"
  6787 ;; Parameters:    Size  Location     Type
  6788 ;;  multiplier      2   25[COMRAM] unsigned int 
  6789 ;;  multiplicand    2   27[COMRAM] unsigned int 
  6790 ;; Auto vars:     Size  Location     Type
  6791 ;;  product         2   29[COMRAM] unsigned int 
  6792 ;; Return value:  Size  Location     Type
  6793 ;;                  2   25[COMRAM] unsigned int 
  6794 ;; Registers used:
  6795 ;;		wreg, status,2, status,0, prodl, prodh
  6796 ;; Tracked objects:
  6797 ;;		On entry : 0/0
  6798 ;;		On exit  : 0/0
  6799 ;;		Unchanged: 0/0
  6800 ;; Data sizes:     COMRAM   BANK0   BANK1   BANK2   BANK3   BANK4   BANK5   BANK6   BANK7   BANK8   BANK9  BANK10  BANK1
      +1  BANK12  BANK13  BANK14
  6801 ;;      Params:         4       0       0       0       0       0       0       0       0       0       0       0       
      +0       0       0       0
  6802 ;;      Locals:         2       0       0       0       0       0       0       0       0       0       0       0       
      +0       0       0       0
  6803 ;;      Temps:          0       0       0       0       0       0       0       0       0       0       0       0       
      +0       0       0       0
  6804 ;;      Totals:         6       0       0       0       0       0       0       0       0       0       0       0       
      +0       0       0       0
  6805 ;;Total ram usage:        6 bytes
  6806 ;; Hardware stack levels used: 1
  6807 ;; Hardware stack levels required when called: 7
  6808 ;; This function calls:
  6809 ;;		Nothing
  6810 ;; This function is called by:
  6811 ;;		_atoi
  6812 ;; This function uses a non-reentrant model
  6813 ;;
  6814                           
  6815                           	psect	text34
  6816   003874                     __ptext34:
  6817                           	callstack 0
  6818   003874                     ___wmul:
  6819                           	callstack 19
  6820   003874  501A               	movf	___wmul@multiplier^0,w,c
  6821   003876  021C               	mulwf	___wmul@multiplicand^0,c
  6822   003878  CFF3 F01E          	movff	prodl,___wmul@product
  6823   00387C  CFF4 F01F          	movff	prodh,___wmul@product+1
  6824   003880  501A               	movf	___wmul@multiplier^0,w,c
  6825   003882  021D               	mulwf	(___wmul@multiplicand+1)^0,c
  6826   003884  50F3               	movf	243,w,c
  6827   003886  261F               	addwf	(___wmul@product+1)^0,f,c
  6828   003888  501B               	movf	(___wmul@multiplier+1)^0,w,c
  6829   00388A  021C               	mulwf	___wmul@multiplicand^0,c
  6830   00388C  50F3               	movf	243,w,c
  6831   00388E  261F               	addwf	(___wmul@product+1)^0,f,c
  6832   003890  C01E  F01A         	movff	___wmul@product,?___wmul
  6833   003894  C01F  F01B         	movff	___wmul@product+1,?___wmul+1
  6834   003898  0012               	return		;funcret
  6835   00389A                     __end_of___wmul:
  6836                           	callstack 0
  6837                           
  6838 ;; *************** function _motorTrigger *****************
  6839 ;; Defined at:
  6840 ;;		line 29 in file "motor_control.c"
  6841 ;; Parameters:    Size  Location     Type
  6842 ;;		None
  6843 ;; Auto vars:     Size  Location     Type
  6844 ;;		None
  6845 ;; Return value:  Size  Location     Type
  6846 ;;                  1    wreg      void 
  6847 ;; Registers used:
  6848 ;;		wreg, fsr2l, fsr2h, status,2, status,0, prodl, prodh, cstack
  6849 ;; Tracked objects:
  6850 ;;		On entry : 0/0
  6851 ;;		On exit  : 0/0
  6852 ;;		Unchanged: 0/0
  6853 ;; Data sizes:     COMRAM   BANK0   BANK1   BANK2   BANK3   BANK4   BANK5   BANK6   BANK7   BANK8   BANK9  BANK10  BANK1
      +1  BANK12  BANK13  BANK14
  6854 ;;      Params:         0       0       0       0       0       0       0       0       0       0       0       0       
      +0       0       0       0
  6855 ;;      Locals:         0       0       0       0       0       0       0       0       0       0       0       0       
      +0       0       0       0
  6856 ;;      Temps:          0       0       0       0       0       0       0       0       0       0       0       0       
      +0       0       0       0
  6857 ;;      Totals:         0       0       0       0       0       0       0       0       0       0       0       0       
      +0       0       0       0
  6858 ;;Total ram usage:        0 bytes
  6859 ;; Hardware stack levels used: 1
  6860 ;; Hardware stack levels required when called: 13
  6861 ;; This function calls:
  6862 ;;		_motorDeploy
  6863 ;;		_motorStow
  6864 ;; This function is called by:
  6865 ;;		_main
  6866 ;;		_IOCAF0_ISR
  6867 ;; This function uses a non-reentrant model
  6868 ;;
  6869                           
  6870                           	psect	text35
  6871   00389A                     __ptext35:
  6872                           	callstack 0
  6873   00389A                     _motorTrigger:
  6874                           	callstack 17
  6875   00389A                     
  6876                           ;motor_control.c: 30:     if(deployStatus){
  6877   00389A  503E               	movf	_deployStatus^0,w,c
  6878   00389C  B4D8               	btfsc	status,2,c
  6879   00389E  EF53  F01C         	goto	u5451
  6880   0038A2  EF55  F01C         	goto	u5450
  6881   0038A6                     u5451:
  6882   0038A6  EF5B  F01C         	goto	l6664
  6883   0038AA                     u5450:
  6884   0038AA                     
  6885                           ;motor_control.c: 31:         motorDeploy();
  6886   0038AA  EC9D  F019         	call	_motorDeploy	;wreg free
  6887   0038AE                     
  6888                           ;motor_control.c: 32:         deployStatus = 1;
  6889   0038AE  0E01               	movlw	1
  6890   0038B0  6E3E               	movwf	_deployStatus^0,c
  6891                           
  6892                           ;motor_control.c: 33:     }
  6893   0038B2  EF5F  F01C         	goto	l907
  6894   0038B6                     l6664:
  6895                           
  6896                           ;motor_control.c: 35:         motorStow();
  6897   0038B6  EC68  F019         	call	_motorStow	;wreg free
  6898   0038BA                     
  6899                           ;motor_control.c: 36:         deployStatus = 0;
  6900   0038BA  0E00               	movlw	0
  6901   0038BC  6E3E               	movwf	_deployStatus^0,c
  6902   0038BE                     l907:
  6903   0038BE  0012               	return		;funcret
  6904   0038C0                     __end_of_motorTrigger:
  6905                           	callstack 0
  6906                           
  6907 ;; *************** function _motorStow *****************
  6908 ;; Defined at:
  6909 ;;		line 19 in file "motor_control.c"
  6910 ;; Parameters:    Size  Location     Type
  6911 ;;		None
  6912 ;; Auto vars:     Size  Location     Type
  6913 ;;		None
  6914 ;; Return value:  Size  Location     Type
  6915 ;;                  1    wreg      void 
  6916 ;; Registers used:
  6917 ;;		wreg, fsr2l, fsr2h, status,2, status,0, prodl, prodh, cstack
  6918 ;; Tracked objects:
  6919 ;;		On entry : 0/0
  6920 ;;		On exit  : 0/0
  6921 ;;		Unchanged: 0/0
  6922 ;; Data sizes:     COMRAM   BANK0   BANK1   BANK2   BANK3   BANK4   BANK5   BANK6   BANK7   BANK8   BANK9  BANK10  BANK1
      +1  BANK12  BANK13  BANK14
  6923 ;;      Params:         0       0       0       0       0       0       0       0       0       0       0       0       
      +0       0       0       0
  6924 ;;      Locals:         0       0       0       0       0       0       0       0       0       0       0       0       
      +0       0       0       0
  6925 ;;      Temps:          2       0       0       0       0       0       0       0       0       0       0       0       
      +0       0       0       0
  6926 ;;      Totals:         2       0       0       0       0       0       0       0       0       0       0       0       
      +0       0       0       0
  6927 ;;Total ram usage:        2 bytes
  6928 ;; Hardware stack levels used: 1
  6929 ;; Hardware stack levels required when called: 12
  6930 ;; This function calls:
  6931 ;;		_motorController
  6932 ;; This function is called by:
  6933 ;;		_motorTrigger
  6934 ;; This function uses a non-reentrant model
  6935 ;;
  6936                           
  6937                           	psect	text36
  6938   0032D0                     __ptext36:
  6939                           	callstack 0
  6940   0032D0                     _motorStow:
  6941                           	callstack 17
  6942   0032D0                     
  6943                           ;motor_control.c: 20:     motorController(0xC0, 0x3F, 0b10);
  6944   0032D0  0E3F               	movlw	63
  6945   0032D2  6E26               	movwf	motorController@speed^0,c
  6946   0032D4  0E02               	movlw	2
  6947   0032D6  6E27               	movwf	motorController@dir^0,c
  6948   0032D8  0EC0               	movlw	192
  6949   0032DA  ECC4  F01C         	call	_motorController
  6950   0032DE                     
  6951                           ;motor_control.c: 21:     _delay((unsigned long)((2000)*(16000000/4000.0)));
  6952   0032DE  0E29               	movlw	41
  6953   0032E0  6E2B               	movwf	(??_motorStow+1)^0,c
  6954   0032E2  0E96               	movlw	150
  6955   0032E4  6E2A               	movwf	??_motorStow^0,c
  6956   0032E6  0E7F               	movlw	127
  6957   0032E8                     u5737:
  6958   0032E8  2EE8               	decfsz	wreg,f,c
  6959   0032EA  D7FE               	bra	u5737
  6960   0032EC  2E2A               	decfsz	??_motorStow^0,f,c
  6961   0032EE  D7FC               	bra	u5737
  6962   0032F0  2E2B               	decfsz	(??_motorStow+1)^0,f,c
  6963   0032F2  D7FA               	bra	u5737
  6964   0032F4  F000               	nop	
  6965   0032F6                     
  6966                           ;motor_control.c: 22:     motorController(0xD0, 0x3F, 0b10);
  6967   0032F6  0E3F               	movlw	63
  6968   0032F8  6E26               	movwf	motorController@speed^0,c
  6969   0032FA  0E02               	movlw	2
  6970   0032FC  6E27               	movwf	motorController@dir^0,c
  6971   0032FE  0ED0               	movlw	208
  6972   003300  ECC4  F01C         	call	_motorController
  6973   003304                     
  6974                           ;motor_control.c: 23:     motorController(0xD0, 0x3F, 0b00);
  6975   003304  0E3F               	movlw	63
  6976   003306  6E26               	movwf	motorController@speed^0,c
  6977   003308  0E00               	movlw	0
  6978   00330A  6E27               	movwf	motorController@dir^0,c
  6979   00330C  0ED0               	movlw	208
  6980   00330E  ECC4  F01C         	call	_motorController
  6981   003312                     
  6982                           ;motor_control.c: 25:     motorController(0xC0, 0x3F, 0b01);
  6983   003312  0E3F               	movlw	63
  6984   003314  6E26               	movwf	motorController@speed^0,c
  6985   003316  0E01               	movlw	1
  6986   003318  6E27               	movwf	motorController@dir^0,c
  6987   00331A  0EC0               	movlw	192
  6988   00331C  ECC4  F01C         	call	_motorController
  6989                           
  6990                           ;motor_control.c: 26:     _delay((unsigned long)((2000)*(16000000/4000.0)));
  6991   003320  0E29               	movlw	41
  6992   003322  6E2B               	movwf	(??_motorStow+1)^0,c
  6993   003324  0E96               	movlw	150
  6994   003326  6E2A               	movwf	??_motorStow^0,c
  6995   003328  0E7F               	movlw	127
  6996   00332A                     u5747:
  6997   00332A  2EE8               	decfsz	wreg,f,c
  6998   00332C  D7FE               	bra	u5747
  6999   00332E  2E2A               	decfsz	??_motorStow^0,f,c
  7000   003330  D7FC               	bra	u5747
  7001   003332  2E2B               	decfsz	(??_motorStow+1)^0,f,c
  7002   003334  D7FA               	bra	u5747
  7003   003336  F000               	nop	
  7004   003338  0012               	return		;funcret
  7005   00333A                     __end_of_motorStow:
  7006                           	callstack 0
  7007                           
  7008 ;; *************** function _motorDeploy *****************
  7009 ;; Defined at:
  7010 ;;		line 9 in file "motor_control.c"
  7011 ;; Parameters:    Size  Location     Type
  7012 ;;		None
  7013 ;; Auto vars:     Size  Location     Type
  7014 ;;		None
  7015 ;; Return value:  Size  Location     Type
  7016 ;;                  1    wreg      void 
  7017 ;; Registers used:
  7018 ;;		wreg, fsr2l, fsr2h, status,2, status,0, prodl, prodh, cstack
  7019 ;; Tracked objects:
  7020 ;;		On entry : 0/0
  7021 ;;		On exit  : 0/0
  7022 ;;		Unchanged: 0/0
  7023 ;; Data sizes:     COMRAM   BANK0   BANK1   BANK2   BANK3   BANK4   BANK5   BANK6   BANK7   BANK8   BANK9  BANK10  BANK1
      +1  BANK12  BANK13  BANK14
  7024 ;;      Params:         0       0       0       0       0       0       0       0       0       0       0       0       
      +0       0       0       0
  7025 ;;      Locals:         0       0       0       0       0       0       0       0       0       0       0       0       
      +0       0       0       0
  7026 ;;      Temps:          2       0       0       0       0       0       0       0       0       0       0       0       
      +0       0       0       0
  7027 ;;      Totals:         2       0       0       0       0       0       0       0       0       0       0       0       
      +0       0       0       0
  7028 ;;Total ram usage:        2 bytes
  7029 ;; Hardware stack levels used: 1
  7030 ;; Hardware stack levels required when called: 12
  7031 ;; This function calls:
  7032 ;;		_motorController
  7033 ;; This function is called by:
  7034 ;;		_motorTrigger
  7035 ;; This function uses a non-reentrant model
  7036 ;;
  7037                           
  7038                           	psect	text37
  7039   00333A                     __ptext37:
  7040                           	callstack 0
  7041   00333A                     _motorDeploy:
  7042                           	callstack 17
  7043   00333A                     
  7044                           ;motor_control.c: 10:     motorController(0xC0, 0x3F, 0b01);
  7045   00333A  0E3F               	movlw	63
  7046   00333C  6E26               	movwf	motorController@speed^0,c
  7047   00333E  0E01               	movlw	1
  7048   003340  6E27               	movwf	motorController@dir^0,c
  7049   003342  0EC0               	movlw	192
  7050   003344  ECC4  F01C         	call	_motorController
  7051   003348                     
  7052                           ;motor_control.c: 11:     _delay((unsigned long)((2000)*(16000000/4000.0)));
  7053   003348  0E29               	movlw	41
  7054   00334A  6E2B               	movwf	(??_motorDeploy+1)^0,c
  7055   00334C  0E96               	movlw	150
  7056   00334E  6E2A               	movwf	??_motorDeploy^0,c
  7057   003350  0E7F               	movlw	127
  7058   003352                     u5757:
  7059   003352  2EE8               	decfsz	wreg,f,c
  7060   003354  D7FE               	bra	u5757
  7061   003356  2E2A               	decfsz	??_motorDeploy^0,f,c
  7062   003358  D7FC               	bra	u5757
  7063   00335A  2E2B               	decfsz	(??_motorDeploy+1)^0,f,c
  7064   00335C  D7FA               	bra	u5757
  7065   00335E  F000               	nop	
  7066   003360                     
  7067                           ;motor_control.c: 12:     motorController(0xD0, 0x3F, 0b10);
  7068   003360  0E3F               	movlw	63
  7069   003362  6E26               	movwf	motorController@speed^0,c
  7070   003364  0E02               	movlw	2
  7071   003366  6E27               	movwf	motorController@dir^0,c
  7072   003368  0ED0               	movlw	208
  7073   00336A  ECC4  F01C         	call	_motorController
  7074   00336E                     
  7075                           ;motor_control.c: 13:     motorController(0xD0, 0x3F, 0b00);
  7076   00336E  0E3F               	movlw	63
  7077   003370  6E26               	movwf	motorController@speed^0,c
  7078   003372  0E00               	movlw	0
  7079   003374  6E27               	movwf	motorController@dir^0,c
  7080   003376  0ED0               	movlw	208
  7081   003378  ECC4  F01C         	call	_motorController
  7082   00337C                     
  7083                           ;motor_control.c: 15:     motorController(0xC0, 0x3F, 0b10);
  7084   00337C  0E3F               	movlw	63
  7085   00337E  6E26               	movwf	motorController@speed^0,c
  7086   003380  0E02               	movlw	2
  7087   003382  6E27               	movwf	motorController@dir^0,c
  7088   003384  0EC0               	movlw	192
  7089   003386  ECC4  F01C         	call	_motorController
  7090                           
  7091                           ;motor_control.c: 16:     _delay((unsigned long)((2000)*(16000000/4000.0)));
  7092   00338A  0E29               	movlw	41
  7093   00338C  6E2B               	movwf	(??_motorDeploy+1)^0,c
  7094   00338E  0E96               	movlw	150
  7095   003390  6E2A               	movwf	??_motorDeploy^0,c
  7096   003392  0E7F               	movlw	127
  7097   003394                     u5767:
  7098   003394  2EE8               	decfsz	wreg,f,c
  7099   003396  D7FE               	bra	u5767
  7100   003398  2E2A               	decfsz	??_motorDeploy^0,f,c
  7101   00339A  D7FC               	bra	u5767
  7102   00339C  2E2B               	decfsz	(??_motorDeploy+1)^0,f,c
  7103   00339E  D7FA               	bra	u5767
  7104   0033A0  F000               	nop	
  7105   0033A2  0012               	return		;funcret
  7106   0033A4                     __end_of_motorDeploy:
  7107                           	callstack 0
  7108                           
  7109 ;; *************** function _motorController *****************
  7110 ;; Defined at:
  7111 ;;		line 4 in file "motor_control.c"
  7112 ;; Parameters:    Size  Location     Type
  7113 ;;  address         1    wreg     unsigned char 
  7114 ;;  speed           1   37[COMRAM] unsigned char 
  7115 ;;  dir             1   38[COMRAM] unsigned char 
  7116 ;; Auto vars:     Size  Location     Type
  7117 ;;  address         1   39[COMRAM] unsigned char 
  7118 ;;  data            1   40[COMRAM] unsigned char 
  7119 ;; Return value:  Size  Location     Type
  7120 ;;                  1    wreg      void 
  7121 ;; Registers used:
  7122 ;;		wreg, fsr2l, fsr2h, status,2, status,0, prodl, prodh, cstack
  7123 ;; Tracked objects:
  7124 ;;		On entry : 0/0
  7125 ;;		On exit  : 0/0
  7126 ;;		Unchanged: 0/0
  7127 ;; Data sizes:     COMRAM   BANK0   BANK1   BANK2   BANK3   BANK4   BANK5   BANK6   BANK7   BANK8   BANK9  BANK10  BANK1
      +1  BANK12  BANK13  BANK14
  7128 ;;      Params:         2       0       0       0       0       0       0       0       0       0       0       0       
      +0       0       0       0
  7129 ;;      Locals:         2       0       0       0       0       0       0       0       0       0       0       0       
      +0       0       0       0
  7130 ;;      Temps:          0       0       0       0       0       0       0       0       0       0       0       0       
      +0       0       0       0
  7131 ;;      Totals:         4       0       0       0       0       0       0       0       0       0       0       0       
      +0       0       0       0
  7132 ;;Total ram usage:        4 bytes
  7133 ;; Hardware stack levels used: 1
  7134 ;; Hardware stack levels required when called: 11
  7135 ;; This function calls:
  7136 ;;		_I2C1_Write1ByteRegister
  7137 ;; This function is called by:
  7138 ;;		_motorDeploy
  7139 ;;		_motorStow
  7140 ;;		_motorStop
  7141 ;; This function uses a non-reentrant model
  7142 ;;
  7143                           
  7144                           	psect	text38
  7145   003988                     __ptext38:
  7146                           	callstack 0
  7147   003988                     _motorController:
  7148                           	callstack 17
  7149                           
  7150                           ;incstack = 0
  7151                           ;motorController@address stored from wreg
  7152   003988  6E28               	movwf	motorController@address^0,c
  7153   00398A                     
  7154                           ;motor_control.c: 5:     uint8_t data = speed << 2 | dir;
  7155   00398A  4426               	rlncf	motorController@speed^0,w,c
  7156   00398C  46E8               	rlncf	wreg,f,c
  7157   00398E  0BFC               	andlw	252
  7158   003990  1027               	iorwf	motorController@dir^0,w,c
  7159   003992  6E29               	movwf	motorController@data^0,c
  7160   003994                     
  7161                           ;motor_control.c: 6:     I2C1_Write1ByteRegister(address, 0x00, data);
  7162   003994  0E00               	movlw	0
  7163   003996  6E23               	movwf	I2C1_Write1ByteRegister@reg^0,c
  7164   003998  C029  F024         	movff	motorController@data,I2C1_Write1ByteRegister@data
  7165   00399C  5028               	movf	motorController@address^0,w,c
  7166   00399E  EC31  F019         	call	_I2C1_Write1ByteRegister
  7167   0039A2  0012               	return		;funcret
  7168   0039A4                     __end_of_motorController:
  7169                           	callstack 0
  7170                           
  7171 ;; *************** function _I2C1_Write1ByteRegister *****************
  7172 ;; Defined at:
  7173 ;;		line 91 in file "mcc_generated_files/examples/i2c1_master_example.c"
  7174 ;; Parameters:    Size  Location     Type
  7175 ;;  address         1    wreg     unsigned char 
  7176 ;;  reg             1   34[COMRAM] unsigned char 
  7177 ;;  data            1   35[COMRAM] unsigned char 
  7178 ;; Auto vars:     Size  Location     Type
  7179 ;;  address         1   36[COMRAM] unsigned char 
  7180 ;; Return value:  Size  Location     Type
  7181 ;;                  1    wreg      void 
  7182 ;; Registers used:
  7183 ;;		wreg, fsr2l, fsr2h, status,2, status,0, prodl, prodh, cstack
  7184 ;; Tracked objects:
  7185 ;;		On entry : 0/0
  7186 ;;		On exit  : 0/0
  7187 ;;		Unchanged: 0/0
  7188 ;; Data sizes:     COMRAM   BANK0   BANK1   BANK2   BANK3   BANK4   BANK5   BANK6   BANK7   BANK8   BANK9  BANK10  BANK1
      +1  BANK12  BANK13  BANK14
  7189 ;;      Params:         2       0       0       0       0       0       0       0       0       0       0       0       
      +0       0       0       0
  7190 ;;      Locals:         1       0       0       0       0       0       0       0       0       0       0       0       
      +0       0       0       0
  7191 ;;      Temps:          0       0       0       0       0       0       0       0       0       0       0       0       
      +0       0       0       0
  7192 ;;      Totals:         3       0       0       0       0       0       0       0       0       0       0       0       
      +0       0       0       0
  7193 ;;Total ram usage:        3 bytes
  7194 ;; Hardware stack levels used: 1
  7195 ;; Hardware stack levels required when called: 10
  7196 ;; This function calls:
  7197 ;;		_I2C1_Close
  7198 ;;		_I2C1_MasterWrite
  7199 ;;		_I2C1_Open
  7200 ;;		_I2C1_SetAddressNackCallback
  7201 ;;		_I2C1_SetBuffer
  7202 ;;		_I2C1_SetDataCompleteCallback
  7203 ;; This function is called by:
  7204 ;;		_motorController
  7205 ;; This function uses a non-reentrant model
  7206 ;;
  7207                           
  7208                           	psect	text39
  7209   003262                     __ptext39:
  7210                           	callstack 0
  7211   003262                     _I2C1_Write1ByteRegister:
  7212                           	callstack 17
  7213                           
  7214                           ;incstack = 0
  7215                           ;I2C1_Write1ByteRegister@address stored from wreg
  7216   003262  6E25               	movwf	I2C1_Write1ByteRegister@address^0,c
  7217   003264                     l5906:
  7218   003264  5025               	movf	I2C1_Write1ByteRegister@address^0,w,c
  7219   003266  ECF3  F016         	call	_I2C1_Open
  7220   00326A  0900               	iorlw	0
  7221   00326C  B4D8               	btfsc	status,2,c
  7222   00326E  EF3B  F019         	goto	u4571
  7223   003272  EF3D  F019         	goto	u4570
  7224   003276                     u4571:
  7225   003276  EF32  F019         	goto	l5906
  7226   00327A                     u4570:
  7227   00327A                     
  7228                           ;mcc_generated_files/examples/i2c1_master_example.c: 94:     I2C1_SetDataCompleteCallbac
      +                          k(wr1RegCompleteHandler,&data);
  7229   00327A  0E1E               	movlw	low _wr1RegCompleteHandler
  7230   00327C  6E1F               	movwf	I2C1_SetDataCompleteCallback@cb^0,c
  7231   00327E  0E37               	movlw	high _wr1RegCompleteHandler
  7232   003280  6E20               	movwf	(I2C1_SetDataCompleteCallback@cb+1)^0,c
  7233   003282  0E24               	movlw	low I2C1_Write1ByteRegister@data
  7234   003284  6E21               	movwf	I2C1_SetDataCompleteCallback@ptr^0,c
  7235   003286  0E00               	movlw	high I2C1_Write1ByteRegister@data
  7236   003288  6E22               	movwf	(I2C1_SetDataCompleteCallback@ptr+1)^0,c
  7237   00328A  ECEC  F01C         	call	_I2C1_SetDataCompleteCallback	;wreg free
  7238   00328E                     
  7239                           ;mcc_generated_files/examples/i2c1_master_example.c: 95:     I2C1_SetBuffer(&reg,1);
  7240   00328E  0E23               	movlw	low I2C1_Write1ByteRegister@reg
  7241   003290  6E1A               	movwf	I2C1_SetBuffer@buffer^0,c
  7242   003292  0E00               	movlw	high I2C1_Write1ByteRegister@reg
  7243   003294  6E1B               	movwf	(I2C1_SetBuffer@buffer+1)^0,c
  7244   003296  0E00               	movlw	0
  7245   003298  6E1D               	movwf	(I2C1_SetBuffer@bufferSize+1)^0,c
  7246   00329A  0E01               	movlw	1
  7247   00329C  6E1C               	movwf	I2C1_SetBuffer@bufferSize^0,c
  7248   00329E  EC60  F01C         	call	_I2C1_SetBuffer	;wreg free
  7249   0032A2                     
  7250                           ;mcc_generated_files/examples/i2c1_master_example.c: 96:     I2C1_SetAddressNackCallback
      +                          (((void*)0),((void*)0));
  7251   0032A2  0E00               	movlw	0
  7252   0032A4  6E1F               	movwf	I2C1_SetAddressNackCallback@cb^0,c
  7253   0032A6  0E00               	movlw	0
  7254   0032A8  6E20               	movwf	(I2C1_SetAddressNackCallback@cb+1)^0,c
  7255   0032AA  0E00               	movlw	0
  7256   0032AC  6E21               	movwf	I2C1_SetAddressNackCallback@ptr^0,c
  7257   0032AE  0E00               	movlw	0
  7258   0032B0  6E22               	movwf	(I2C1_SetAddressNackCallback@ptr+1)^0,c
  7259   0032B2  ECF8  F01C         	call	_I2C1_SetAddressNackCallback	;wreg free
  7260   0032B6                     
  7261                           ;mcc_generated_files/examples/i2c1_master_example.c: 97:     I2C1_MasterWrite();
  7262   0032B6  EC93  F01D         	call	_I2C1_MasterWrite	;wreg free
  7263   0032BA                     l5916:
  7264   0032BA  EC63  F01B         	call	_I2C1_Close	;wreg free
  7265   0032BE  06E8               	decf	wreg,f,c
  7266   0032C0  B4D8               	btfsc	status,2,c
  7267   0032C2  EF65  F019         	goto	u4581
  7268   0032C6  EF67  F019         	goto	u4580
  7269   0032CA                     u4581:
  7270   0032CA  EF5D  F019         	goto	l5916
  7271   0032CE                     u4580:
  7272   0032CE  0012               	return		;funcret
  7273   0032D0                     __end_of_I2C1_Write1ByteRegister:
  7274                           	callstack 0
  7275                           
  7276 ;; *************** function _motorFaultRead *****************
  7277 ;; Defined at:
  7278 ;;		line 40 in file "motor_control.c"
  7279 ;; Parameters:    Size  Location     Type
  7280 ;;  motor_num       2   37[COMRAM] int 
  7281 ;; Auto vars:     Size  Location     Type
  7282 ;;		None
  7283 ;; Return value:  Size  Location     Type
  7284 ;;                  1    wreg      unsigned char 
  7285 ;; Registers used:
  7286 ;;		wreg, fsr2l, fsr2h, status,2, status,0, prodl, prodh, cstack
  7287 ;; Tracked objects:
  7288 ;;		On entry : 0/0
  7289 ;;		On exit  : 0/0
  7290 ;;		Unchanged: 0/0
  7291 ;; Data sizes:     COMRAM   BANK0   BANK1   BANK2   BANK3   BANK4   BANK5   BANK6   BANK7   BANK8   BANK9  BANK10  BANK1
      +1  BANK12  BANK13  BANK14
  7292 ;;      Params:         2       0       0       0       0       0       0       0       0       0       0       0       
      +0       0       0       0
  7293 ;;      Locals:         0       0       0       0       0       0       0       0       0       0       0       0       
      +0       0       0       0
  7294 ;;      Temps:          2       0       0       0       0       0       0       0       0       0       0       0       
      +0       0       0       0
  7295 ;;      Totals:         4       0       0       0       0       0       0       0       0       0       0       0       
      +0       0       0       0
  7296 ;;Total ram usage:        4 bytes
  7297 ;; Hardware stack levels used: 1
  7298 ;; Hardware stack levels required when called: 11
  7299 ;; This function calls:
  7300 ;;		_I2C1_Read1ByteRegister
  7301 ;; This function is called by:
  7302 ;;		_main
  7303 ;; This function uses a non-reentrant model
  7304 ;;
  7305                           
  7306                           	psect	text40
  7307   00345E                     __ptext40:
  7308                           	callstack 0
  7309   00345E                     _motorFaultRead:
  7310                           	callstack 19
  7311   00345E                     
  7312                           ;motor_control.c: 41:     switch(motor_num){
  7313   00345E  EF42  F01A         	goto	l6652
  7314   003462                     l6638:
  7315                           
  7316                           ;motor_control.c: 43:             return I2C1_Read1ByteRegister(0xD1, 0x01);
  7317   003462  0E01               	movlw	1
  7318   003464  6E23               	movwf	I2C1_Read1ByteRegister@reg^0,c
  7319   003466  0ED1               	movlw	209
  7320   003468  ECBF  F018         	call	_I2C1_Read1ByteRegister
  7321   00346C  EF58  F01A         	goto	l912
  7322   003470                     l6642:
  7323                           
  7324                           ;motor_control.c: 45:             return I2C1_Read1ByteRegister(0xD1, 0x01);
  7325   003470  0E01               	movlw	1
  7326   003472  6E23               	movwf	I2C1_Read1ByteRegister@reg^0,c
  7327   003474  0ED1               	movlw	209
  7328   003476  ECBF  F018         	call	_I2C1_Read1ByteRegister
  7329   00347A  EF58  F01A         	goto	l912
  7330   00347E                     l6646:
  7331                           
  7332                           ;motor_control.c: 47:             return 0x0;
  7333   00347E  0E00               	movlw	0
  7334   003480  EF58  F01A         	goto	l912
  7335   003484                     l6652:
  7336   003484  C026  F028         	movff	motorFaultRead@motor_num,??_motorFaultRead
  7337   003488  C027  F029         	movff	motorFaultRead@motor_num+1,??_motorFaultRead+1
  7338                           
  7339                           ; Switch on 2 bytes has been partitioned into a top level switch of size 1, and 1 sub-sw
      +                          itches
  7340                           ; Switch size 1, requested type "simple"
  7341                           ; Number of cases is 1, Range of values is 0 to 0
  7342                           ; switch strategies available:
  7343                           ; Name         Instructions Cycles
  7344                           ; simple_byte            4     3 (average)
  7345                           ;	Chosen strategy is simple_byte
  7346   00348C  5029               	movf	(??_motorFaultRead+1)^0,w,c
  7347   00348E  0A00               	xorlw	0	; case 0
  7348   003490  B4D8               	btfsc	status,2,c
  7349   003492  EF4D  F01A         	goto	l7000
  7350   003496  EF3F  F01A         	goto	l6646
  7351   00349A                     l7000:
  7352                           
  7353                           ; Switch size 1, requested type "simple"
  7354                           ; Number of cases is 2, Range of values is 1 to 2
  7355                           ; switch strategies available:
  7356                           ; Name         Instructions Cycles
  7357                           ; simple_byte            7     4 (average)
  7358                           ;	Chosen strategy is simple_byte
  7359   00349A  5028               	movf	??_motorFaultRead^0,w,c
  7360   00349C  0A01               	xorlw	1	; case 1
  7361   00349E  B4D8               	btfsc	status,2,c
  7362   0034A0  EF31  F01A         	goto	l6638
  7363   0034A4  0A03               	xorlw	3	; case 2
  7364   0034A6  B4D8               	btfsc	status,2,c
  7365   0034A8  EF38  F01A         	goto	l6642
  7366   0034AC  EF3F  F01A         	goto	l6646
  7367   0034B0                     l912:
  7368   0034B0  0012               	return		;funcret
  7369   0034B2                     __end_of_motorFaultRead:
  7370                           	callstack 0
  7371                           
  7372 ;; *************** function _I2C1_Read1ByteRegister *****************
  7373 ;; Defined at:
  7374 ;;		line 63 in file "mcc_generated_files/examples/i2c1_master_example.c"
  7375 ;; Parameters:    Size  Location     Type
  7376 ;;  address         1    wreg     unsigned char 
  7377 ;;  reg             1   34[COMRAM] unsigned char 
  7378 ;; Auto vars:     Size  Location     Type
  7379 ;;  address         1   35[COMRAM] unsigned char 
  7380 ;;  returnValue     1   36[COMRAM] unsigned char 
  7381 ;; Return value:  Size  Location     Type
  7382 ;;                  1    wreg      unsigned char 
  7383 ;; Registers used:
  7384 ;;		wreg, fsr2l, fsr2h, status,2, status,0, prodl, prodh, cstack
  7385 ;; Tracked objects:
  7386 ;;		On entry : 0/0
  7387 ;;		On exit  : 0/0
  7388 ;;		Unchanged: 0/0
  7389 ;; Data sizes:     COMRAM   BANK0   BANK1   BANK2   BANK3   BANK4   BANK5   BANK6   BANK7   BANK8   BANK9  BANK10  BANK1
      +1  BANK12  BANK13  BANK14
  7390 ;;      Params:         1       0       0       0       0       0       0       0       0       0       0       0       
      +0       0       0       0
  7391 ;;      Locals:         2       0       0       0       0       0       0       0       0       0       0       0       
      +0       0       0       0
  7392 ;;      Temps:          0       0       0       0       0       0       0       0       0       0       0       0       
      +0       0       0       0
  7393 ;;      Totals:         3       0       0       0       0       0       0       0       0       0       0       0       
      +0       0       0       0
  7394 ;;Total ram usage:        3 bytes
  7395 ;; Hardware stack levels used: 1
  7396 ;; Hardware stack levels required when called: 10
  7397 ;; This function calls:
  7398 ;;		_I2C1_Close
  7399 ;;		_I2C1_MasterWrite
  7400 ;;		_I2C1_Open
  7401 ;;		_I2C1_SetAddressNackCallback
  7402 ;;		_I2C1_SetBuffer
  7403 ;;		_I2C1_SetDataCompleteCallback
  7404 ;; This function is called by:
  7405 ;;		_hallRead
  7406 ;;		_motorFaultRead
  7407 ;;		_tempRead
  7408 ;; This function uses a non-reentrant model
  7409 ;;
  7410                           
  7411                           	psect	text41
  7412   00317E                     __ptext41:
  7413                           	callstack 0
  7414   00317E                     _I2C1_Read1ByteRegister:
  7415                           	callstack 17
  7416                           
  7417                           ;incstack = 0
  7418                           ;I2C1_Read1ByteRegister@address stored from wreg
  7419   00317E  6E24               	movwf	I2C1_Read1ByteRegister@address^0,c
  7420   003180                     
  7421                           ;mcc_generated_files/examples/i2c1_master_example.c: 63: uint8_t I2C1_Read1ByteRegister(
      +                          i2c1_address_t address, uint8_t reg);mcc_generated_files/examples/i2c1_master_example.c:
      +                           64: {;mcc_generated_files/examples/i2c1_master_example.c: 65:     uint8_t returnValue =
      +                           0x00;
  7422   003180  0E00               	movlw	0
  7423   003182  6E25               	movwf	I2C1_Read1ByteRegister@returnValue^0,c
  7424   003184                     l5888:
  7425   003184  5024               	movf	I2C1_Read1ByteRegister@address^0,w,c
  7426   003186  ECF3  F016         	call	_I2C1_Open
  7427   00318A  0900               	iorlw	0
  7428   00318C  B4D8               	btfsc	status,2,c
  7429   00318E  EFCB  F018         	goto	u4551
  7430   003192  EFCD  F018         	goto	u4550
  7431   003196                     u4551:
  7432   003196  EFC2  F018         	goto	l5888
  7433   00319A                     u4550:
  7434   00319A                     
  7435                           ;mcc_generated_files/examples/i2c1_master_example.c: 68:     I2C1_SetDataCompleteCallbac
      +                          k(rd1RegCompleteHandler,&returnValue);
  7436   00319A  0E76               	movlw	low _rd1RegCompleteHandler
  7437   00319C  6E1F               	movwf	I2C1_SetDataCompleteCallback@cb^0,c
  7438   00319E  0E37               	movlw	high _rd1RegCompleteHandler
  7439   0031A0  6E20               	movwf	(I2C1_SetDataCompleteCallback@cb+1)^0,c
  7440   0031A2  0E25               	movlw	low I2C1_Read1ByteRegister@returnValue
  7441   0031A4  6E21               	movwf	I2C1_SetDataCompleteCallback@ptr^0,c
  7442   0031A6  0E00               	movlw	high I2C1_Read1ByteRegister@returnValue
  7443   0031A8  6E22               	movwf	(I2C1_SetDataCompleteCallback@ptr+1)^0,c
  7444   0031AA  ECEC  F01C         	call	_I2C1_SetDataCompleteCallback	;wreg free
  7445   0031AE                     
  7446                           ;mcc_generated_files/examples/i2c1_master_example.c: 69:     I2C1_SetBuffer(&reg,1);
  7447   0031AE  0E23               	movlw	low I2C1_Read1ByteRegister@reg
  7448   0031B0  6E1A               	movwf	I2C1_SetBuffer@buffer^0,c
  7449   0031B2  0E00               	movlw	high I2C1_Read1ByteRegister@reg
  7450   0031B4  6E1B               	movwf	(I2C1_SetBuffer@buffer+1)^0,c
  7451   0031B6  0E00               	movlw	0
  7452   0031B8  6E1D               	movwf	(I2C1_SetBuffer@bufferSize+1)^0,c
  7453   0031BA  0E01               	movlw	1
  7454   0031BC  6E1C               	movwf	I2C1_SetBuffer@bufferSize^0,c
  7455   0031BE  EC60  F01C         	call	_I2C1_SetBuffer	;wreg free
  7456   0031C2                     
  7457                           ;mcc_generated_files/examples/i2c1_master_example.c: 70:     I2C1_SetAddressNackCallback
      +                          (((void*)0),((void*)0));
  7458   0031C2  0E00               	movlw	0
  7459   0031C4  6E1F               	movwf	I2C1_SetAddressNackCallback@cb^0,c
  7460   0031C6  0E00               	movlw	0
  7461   0031C8  6E20               	movwf	(I2C1_SetAddressNackCallback@cb+1)^0,c
  7462   0031CA  0E00               	movlw	0
  7463   0031CC  6E21               	movwf	I2C1_SetAddressNackCallback@ptr^0,c
  7464   0031CE  0E00               	movlw	0
  7465   0031D0  6E22               	movwf	(I2C1_SetAddressNackCallback@ptr+1)^0,c
  7466   0031D2  ECF8  F01C         	call	_I2C1_SetAddressNackCallback	;wreg free
  7467   0031D6                     
  7468                           ;mcc_generated_files/examples/i2c1_master_example.c: 71:     I2C1_MasterWrite();
  7469   0031D6  EC93  F01D         	call	_I2C1_MasterWrite	;wreg free
  7470   0031DA                     l5898:
  7471   0031DA  EC63  F01B         	call	_I2C1_Close	;wreg free
  7472   0031DE  06E8               	decf	wreg,f,c
  7473   0031E0  B4D8               	btfsc	status,2,c
  7474   0031E2  EFF5  F018         	goto	u4561
  7475   0031E6  EFF7  F018         	goto	u4560
  7476   0031EA                     u4561:
  7477   0031EA  EFED  F018         	goto	l5898
  7478   0031EE                     u4560:
  7479   0031EE                     
  7480                           ;mcc_generated_files/examples/i2c1_master_example.c: 74:     return returnValue;
  7481   0031EE  5025               	movf	I2C1_Read1ByteRegister@returnValue^0,w,c
  7482   0031F0  0012               	return		;funcret
  7483   0031F2                     __end_of_I2C1_Read1ByteRegister:
  7484                           	callstack 0
  7485                           
  7486 ;; *************** function _I2C1_SetDataCompleteCallback *****************
  7487 ;; Defined at:
  7488 ;;		line 274 in file "mcc_generated_files/i2c1_master.c"
  7489 ;; Parameters:    Size  Location     Type
  7490 ;;  cb              2   30[COMRAM] PTR FTN(PTR void ,)enum 
  7491 ;;		 -> Absolute function(1), rdBlkRegCompleteHandler(1), wr2RegCompleteHandler(1), wr1RegCompleteHandler(1), 
  7492 ;;		 -> rd2RegCompleteHandler(1), rd1RegCompleteHandler(1), 
  7493 ;;  ptr             2   32[COMRAM] PTR void 
  7494 ;;		 -> I2C1_ReadDataBlock@bufferBlock(4), I2C1_Write2ByteRegister@data(2), I2C1_Write1ByteRegister@data(1), I2C1_Read2B
      +yteRegister@returnValue(2), 
  7495 ;;		 -> NULL(0), I2C1_Read1ByteRegister@returnValue(1), 
  7496 ;; Auto vars:     Size  Location     Type
  7497 ;;		None
  7498 ;; Return value:  Size  Location     Type
  7499 ;;                  1    wreg      void 
  7500 ;; Registers used:
  7501 ;;		wreg, fsr2l, fsr2h, status,2, status,0, prodl, prodh, cstack
  7502 ;; Tracked objects:
  7503 ;;		On entry : 0/0
  7504 ;;		On exit  : 0/0
  7505 ;;		Unchanged: 0/0
  7506 ;; Data sizes:     COMRAM   BANK0   BANK1   BANK2   BANK3   BANK4   BANK5   BANK6   BANK7   BANK8   BANK9  BANK10  BANK1
      +1  BANK12  BANK13  BANK14
  7507 ;;      Params:         4       0       0       0       0       0       0       0       0       0       0       0       
      +0       0       0       0
  7508 ;;      Locals:         0       0       0       0       0       0       0       0       0       0       0       0       
      +0       0       0       0
  7509 ;;      Temps:          0       0       0       0       0       0       0       0       0       0       0       0       
      +0       0       0       0
  7510 ;;      Totals:         4       0       0       0       0       0       0       0       0       0       0       0       
      +0       0       0       0
  7511 ;;Total ram usage:        4 bytes
  7512 ;; Hardware stack levels used: 1
  7513 ;; Hardware stack levels required when called: 8
  7514 ;; This function calls:
  7515 ;;		_I2C1_SetCallback
  7516 ;; This function is called by:
  7517 ;;		_I2C1_Read1ByteRegister
  7518 ;;		_I2C1_Write1ByteRegister
  7519 ;;		_I2C1_Read2ByteRegister
  7520 ;;		_I2C1_Write2ByteRegister
  7521 ;;		_I2C1_ReadDataBlock
  7522 ;; This function uses a non-reentrant model
  7523 ;;
  7524                           
  7525                           	psect	text42
  7526   0039D8                     __ptext42:
  7527                           	callstack 0
  7528   0039D8                     _I2C1_SetDataCompleteCallback:
  7529                           	callstack 18
  7530   0039D8                     
  7531                           ;mcc_generated_files/i2c1_master.c: 274: void I2C1_SetDataCompleteCallback(i2c1_callback
      +                          _t cb, void *ptr);mcc_generated_files/i2c1_master.c: 275: {;mcc_generated_files/i2c1_mas
      +                          ter.c: 276:     I2C1_SetCallback(I2C1_DATA_COMPLETE, cb, ptr);
  7532   0039D8  C01F  F01A         	movff	I2C1_SetDataCompleteCallback@cb,I2C1_SetCallback@cb
  7533   0039DC  C020  F01B         	movff	I2C1_SetDataCompleteCallback@cb+1,I2C1_SetCallback@cb+1
  7534   0039E0  C021  F01C         	movff	I2C1_SetDataCompleteCallback@ptr,I2C1_SetCallback@ptr
  7535   0039E4  C022  F01D         	movff	I2C1_SetDataCompleteCallback@ptr+1,I2C1_SetCallback@ptr+1
  7536   0039E8  0E00               	movlw	0
  7537   0039EA  EC0B  F018         	call	_I2C1_SetCallback
  7538   0039EE  0012               	return		;funcret
  7539   0039F0                     __end_of_I2C1_SetDataCompleteCallback:
  7540                           	callstack 0
  7541                           
  7542 ;; *************** function _I2C1_SetBuffer *****************
  7543 ;; Defined at:
  7544 ;;		line 264 in file "mcc_generated_files/i2c1_master.c"
  7545 ;; Parameters:    Size  Location     Type
  7546 ;;  buffer          2   25[COMRAM] PTR void 
  7547 ;;		 -> I2C1_ReadDataBlock@reg(1), I2C1_ReadDataBlock@bufferBlock(4), I2C1_Write2ByteRegister@reg(1), I2C1_Write2ByteReg
      +ister@data(2), 
  7548 ;;		 -> I2C1_Write1ByteRegister@reg(1), I2C1_Write1ByteRegister@data(1), I2C1_Read2ByteRegister@reg(1), I2C1_Read2ByteRe
      +gister@returnValue(2), 
  7549 ;;		 -> NULL(0), I2C1_Read1ByteRegister@reg(1), I2C1_Read1ByteRegister@returnValue(1), 
  7550 ;;  bufferSize      2   27[COMRAM] unsigned int 
  7551 ;; Auto vars:     Size  Location     Type
  7552 ;;		None
  7553 ;; Return value:  Size  Location     Type
  7554 ;;                  1    wreg      void 
  7555 ;; Registers used:
  7556 ;;		wreg, status,2, status,0
  7557 ;; Tracked objects:
  7558 ;;		On entry : 0/0
  7559 ;;		On exit  : 0/0
  7560 ;;		Unchanged: 0/0
  7561 ;; Data sizes:     COMRAM   BANK0   BANK1   BANK2   BANK3   BANK4   BANK5   BANK6   BANK7   BANK8   BANK9  BANK10  BANK1
      +1  BANK12  BANK13  BANK14
  7562 ;;      Params:         4       0       0       0       0       0       0       0       0       0       0       0       
      +0       0       0       0
  7563 ;;      Locals:         0       0       0       0       0       0       0       0       0       0       0       0       
      +0       0       0       0
  7564 ;;      Temps:          0       0       0       0       0       0       0       0       0       0       0       0       
      +0       0       0       0
  7565 ;;      Totals:         4       0       0       0       0       0       0       0       0       0       0       0       
      +0       0       0       0
  7566 ;;Total ram usage:        4 bytes
  7567 ;; Hardware stack levels used: 1
  7568 ;; Hardware stack levels required when called: 7
  7569 ;; This function calls:
  7570 ;;		Nothing
  7571 ;; This function is called by:
  7572 ;;		_I2C1_Read1ByteRegister
  7573 ;;		_I2C1_Write1ByteRegister
  7574 ;;		_I2C1_Read2ByteRegister
  7575 ;;		_I2C1_Write2ByteRegister
  7576 ;;		_I2C1_WriteNBytes
  7577 ;;		_I2C1_ReadNBytes
  7578 ;;		_I2C1_ReadDataBlock
  7579 ;; This function uses a non-reentrant model
  7580 ;;
  7581                           
  7582                           	psect	text43
  7583   0038C0                     __ptext43:
  7584                           	callstack 0
  7585   0038C0                     _I2C1_SetBuffer:
  7586                           	callstack 19
  7587   0038C0                     
  7588                           ;mcc_generated_files/i2c1_master.c: 264: void I2C1_SetBuffer(void *buffer, size_t buffer
      +                          Size);mcc_generated_files/i2c1_master.c: 265: {;mcc_generated_files/i2c1_master.c: 266: 
      +                              if(I2C1_Status.bufferFree)
  7589   0038C0  0100               	movlb	0	; () banked
  7590   0038C2  A7D5               	btfss	(_I2C1_Status+35)& (0+255),3,b
  7591   0038C4  EF66  F01C         	goto	u4241
  7592   0038C8  EF68  F01C         	goto	u4240
  7593   0038CC                     u4241:
  7594   0038CC  EF71  F01C         	goto	l327
  7595   0038D0                     u4240:
  7596   0038D0                     
  7597                           ; BSR set to: 0
  7598                           ;mcc_generated_files/i2c1_master.c: 267:     {;mcc_generated_files/i2c1_master.c: 268:  
      +                                 I2C1_Status.data_ptr = buffer;
  7599   0038D0  C01A  F0CF         	movff	I2C1_SetBuffer@buffer,_I2C1_Status+29
  7600   0038D4  C01B  F0D0         	movff	I2C1_SetBuffer@buffer+1,_I2C1_Status+30
  7601   0038D8                     
  7602                           ; BSR set to: 0
  7603                           ;mcc_generated_files/i2c1_master.c: 269:         I2C1_Status.data_length = bufferSize;
  7604   0038D8  C01C  F0D1         	movff	I2C1_SetBuffer@bufferSize,_I2C1_Status+31
  7605   0038DC  C01D  F0D2         	movff	I2C1_SetBuffer@bufferSize+1,_I2C1_Status+32
  7606   0038E0                     
  7607                           ; BSR set to: 0
  7608                           ;mcc_generated_files/i2c1_master.c: 270:         I2C1_Status.bufferFree = 0;
  7609   0038E0  97D5               	bcf	(_I2C1_Status+35)& (0+255),3,b
  7610   0038E2                     l327:
  7611                           
  7612                           ; BSR set to: 0
  7613   0038E2  0012               	return		;funcret
  7614   0038E4                     __end_of_I2C1_SetBuffer:
  7615                           	callstack 0
  7616                           
  7617 ;; *************** function _I2C1_SetAddressNackCallback *****************
  7618 ;; Defined at:
  7619 ;;		line 284 in file "mcc_generated_files/i2c1_master.c"
  7620 ;; Parameters:    Size  Location     Type
  7621 ;;  cb              2   30[COMRAM] PTR FTN(PTR void ,)enum 
  7622 ;;		 -> Absolute function(1), 
  7623 ;;  ptr             2   32[COMRAM] PTR void 
  7624 ;;		 -> NULL(0), 
  7625 ;; Auto vars:     Size  Location     Type
  7626 ;;		None
  7627 ;; Return value:  Size  Location     Type
  7628 ;;                  1    wreg      void 
  7629 ;; Registers used:
  7630 ;;		wreg, fsr2l, fsr2h, status,2, status,0, prodl, prodh, cstack
  7631 ;; Tracked objects:
  7632 ;;		On entry : 0/0
  7633 ;;		On exit  : 0/0
  7634 ;;		Unchanged: 0/0
  7635 ;; Data sizes:     COMRAM   BANK0   BANK1   BANK2   BANK3   BANK4   BANK5   BANK6   BANK7   BANK8   BANK9  BANK10  BANK1
      +1  BANK12  BANK13  BANK14
  7636 ;;      Params:         4       0       0       0       0       0       0       0       0       0       0       0       
      +0       0       0       0
  7637 ;;      Locals:         0       0       0       0       0       0       0       0       0       0       0       0       
      +0       0       0       0
  7638 ;;      Temps:          0       0       0       0       0       0       0       0       0       0       0       0       
      +0       0       0       0
  7639 ;;      Totals:         4       0       0       0       0       0       0       0       0       0       0       0       
      +0       0       0       0
  7640 ;;Total ram usage:        4 bytes
  7641 ;; Hardware stack levels used: 1
  7642 ;; Hardware stack levels required when called: 8
  7643 ;; This function calls:
  7644 ;;		_I2C1_SetCallback
  7645 ;; This function is called by:
  7646 ;;		_I2C1_Read1ByteRegister
  7647 ;;		_I2C1_Write1ByteRegister
  7648 ;;		_I2C1_Read2ByteRegister
  7649 ;;		_I2C1_Write2ByteRegister
  7650 ;;		_I2C1_WriteNBytes
  7651 ;;		_I2C1_ReadDataBlock
  7652 ;; This function uses a non-reentrant model
  7653 ;;
  7654                           
  7655                           	psect	text44
  7656   0039F0                     __ptext44:
  7657                           	callstack 0
  7658   0039F0                     _I2C1_SetAddressNackCallback:
  7659                           	callstack 18
  7660   0039F0                     
  7661                           ;mcc_generated_files/i2c1_master.c: 284: void I2C1_SetAddressNackCallback(i2c1_callback_
      +                          t cb, void *ptr);mcc_generated_files/i2c1_master.c: 285: {;mcc_generated_files/i2c1_mast
      +                          er.c: 286:     I2C1_SetCallback(I2C1_ADDR_NACK, cb, ptr);
  7662   0039F0  C01F  F01A         	movff	I2C1_SetAddressNackCallback@cb,I2C1_SetCallback@cb
  7663   0039F4  C020  F01B         	movff	I2C1_SetAddressNackCallback@cb+1,I2C1_SetCallback@cb+1
  7664   0039F8  C021  F01C         	movff	I2C1_SetAddressNackCallback@ptr,I2C1_SetCallback@ptr
  7665   0039FC  C022  F01D         	movff	I2C1_SetAddressNackCallback@ptr+1,I2C1_SetCallback@ptr+1
  7666   003A00  0E02               	movlw	2
  7667   003A02  EC0B  F018         	call	_I2C1_SetCallback
  7668   003A06  0012               	return		;funcret
  7669   003A08                     __end_of_I2C1_SetAddressNackCallback:
  7670                           	callstack 0
  7671                           
  7672 ;; *************** function _I2C1_SetCallback *****************
  7673 ;; Defined at:
  7674 ;;		line 304 in file "mcc_generated_files/i2c1_master.c"
  7675 ;; Parameters:    Size  Location     Type
  7676 ;;  idx             1    wreg     enum E10047
  7677 ;;  cb              2   25[COMRAM] PTR FTN(PTR void ,)enum 
  7678 ;;		 -> Absolute function(1), rdBlkRegCompleteHandler(1), wr2RegCompleteHandler(1), wr1RegCompleteHandler(1), 
  7679 ;;		 -> rd2RegCompleteHandler(1), rd1RegCompleteHandler(1), 
  7680 ;;  ptr             2   27[COMRAM] PTR void 
  7681 ;;		 -> I2C1_ReadDataBlock@bufferBlock(4), I2C1_Write2ByteRegister@data(2), I2C1_Write1ByteRegister@data(1), I2C1_Read2B
      +yteRegister@returnValue(2), 
  7682 ;;		 -> NULL(0), I2C1_Read1ByteRegister@returnValue(1), 
  7683 ;; Auto vars:     Size  Location     Type
  7684 ;;  idx             1   29[COMRAM] enum E10047
  7685 ;; Return value:  Size  Location     Type
  7686 ;;                  1    wreg      void 
  7687 ;; Registers used:
  7688 ;;		wreg, fsr2l, fsr2h, status,2, status,0, prodl, prodh
  7689 ;; Tracked objects:
  7690 ;;		On entry : 0/0
  7691 ;;		On exit  : 0/0
  7692 ;;		Unchanged: 0/0
  7693 ;; Data sizes:     COMRAM   BANK0   BANK1   BANK2   BANK3   BANK4   BANK5   BANK6   BANK7   BANK8   BANK9  BANK10  BANK1
      +1  BANK12  BANK13  BANK14
  7694 ;;      Params:         4       0       0       0       0       0       0       0       0       0       0       0       
      +0       0       0       0
  7695 ;;      Locals:         1       0       0       0       0       0       0       0       0       0       0       0       
      +0       0       0       0
  7696 ;;      Temps:          0       0       0       0       0       0       0       0       0       0       0       0       
      +0       0       0       0
  7697 ;;      Totals:         5       0       0       0       0       0       0       0       0       0       0       0       
      +0       0       0       0
  7698 ;;Total ram usage:        5 bytes
  7699 ;; Hardware stack levels used: 1
  7700 ;; Hardware stack levels required when called: 7
  7701 ;; This function calls:
  7702 ;;		Nothing
  7703 ;; This function is called by:
  7704 ;;		_I2C1_SetDataCompleteCallback
  7705 ;;		_I2C1_SetAddressNackCallback
  7706 ;;		_I2C1_SetWriteCollisionCallback
  7707 ;;		_I2C1_SetDataNackCallback
  7708 ;;		_I2C1_SetTimeoutCallback
  7709 ;; This function uses a non-reentrant model
  7710 ;;
  7711                           
  7712                           	psect	text45
  7713   003016                     __ptext45:
  7714                           	callstack 0
  7715   003016                     _I2C1_SetCallback:
  7716                           	callstack 18
  7717                           
  7718                           ;incstack = 0
  7719                           ;I2C1_SetCallback@idx stored from wreg
  7720   003016  6E1E               	movwf	I2C1_SetCallback@idx^0,c
  7721   003018                     
  7722                           ;mcc_generated_files/i2c1_master.c: 304: static void I2C1_SetCallback(i2c1_callbackIndex
      +                          _t idx, i2c1_callback_t cb, void *ptr);mcc_generated_files/i2c1_master.c: 305: {;mcc_gen
      +                          erated_files/i2c1_master.c: 306:     if(cb)
  7723   003018  501A               	movf	I2C1_SetCallback@cb^0,w,c
  7724   00301A  101B               	iorwf	(I2C1_SetCallback@cb+1)^0,w,c
  7725   00301C  B4D8               	btfsc	status,2,c
  7726   00301E  EF13  F018         	goto	u4211
  7727   003022  EF15  F018         	goto	u4210
  7728   003026                     u4211:
  7729   003026  EF2F  F018         	goto	l5632
  7730   00302A                     u4210:
  7731   00302A                     
  7732                           ;mcc_generated_files/i2c1_master.c: 307:     {;mcc_generated_files/i2c1_master.c: 308:  
      +                                 I2C1_Status.callbackTable[idx] = cb;
  7733   00302A  501E               	movf	I2C1_SetCallback@idx^0,w,c
  7734   00302C  0D02               	mullw	2
  7735   00302E  0EB2               	movlw	low _I2C1_Status
  7736   003030  24F3               	addwf	243,w,c
  7737   003032  6ED9               	movwf	fsr2l,c
  7738   003034  0E00               	movlw	high _I2C1_Status
  7739   003036  20F4               	addwfc	prodh,w,c
  7740   003038  6EDA               	movwf	fsr2h,c
  7741   00303A  C01A  FFDE         	movff	I2C1_SetCallback@cb,postinc2
  7742   00303E  C01B  FFDD         	movff	I2C1_SetCallback@cb+1,postdec2
  7743                           
  7744                           ;mcc_generated_files/i2c1_master.c: 309:         I2C1_Status.callbackPayload[idx] = ptr;
  7745   003042  501E               	movf	I2C1_SetCallback@idx^0,w,c
  7746   003044  0D02               	mullw	2
  7747   003046  0EBE               	movlw	low (_I2C1_Status+12)
  7748   003048  24F3               	addwf	243,w,c
  7749   00304A  6ED9               	movwf	fsr2l,c
  7750   00304C  0E00               	movlw	high (_I2C1_Status+12)
  7751   00304E  20F4               	addwfc	prodh,w,c
  7752   003050  6EDA               	movwf	fsr2h,c
  7753   003052  C01C  FFDE         	movff	I2C1_SetCallback@ptr,postinc2
  7754   003056  C01D  FFDD         	movff	I2C1_SetCallback@ptr+1,postdec2
  7755                           
  7756                           ;mcc_generated_files/i2c1_master.c: 310:     }
  7757   00305A  EF47  F018         	goto	l350
  7758   00305E                     l5632:
  7759                           
  7760                           ;mcc_generated_files/i2c1_master.c: 312:     {;mcc_generated_files/i2c1_master.c: 313:  
      +                                 I2C1_Status.callbackTable[idx] = I2C1_CallbackReturnStop;
  7761   00305E  501E               	movf	I2C1_SetCallback@idx^0,w,c
  7762   003060  0D02               	mullw	2
  7763   003062  0EB2               	movlw	low _I2C1_Status
  7764   003064  24F3               	addwf	243,w,c
  7765   003066  6ED9               	movwf	fsr2l,c
  7766   003068  0E00               	movlw	high _I2C1_Status
  7767   00306A  20F4               	addwfc	prodh,w,c
  7768   00306C  6EDA               	movwf	fsr2h,c
  7769   00306E  0EC6               	movlw	low _I2C1_CallbackReturnStop
  7770   003070  6EDE               	movwf	postinc2,c
  7771   003072  0E3B               	movlw	high _I2C1_CallbackReturnStop
  7772   003074  6EDD               	movwf	postdec2,c
  7773                           
  7774                           ;mcc_generated_files/i2c1_master.c: 314:         I2C1_Status.callbackPayload[idx] = ((vo
      +                          id*)0);
  7775   003076  501E               	movf	I2C1_SetCallback@idx^0,w,c
  7776   003078  0D02               	mullw	2
  7777   00307A  0EBE               	movlw	low (_I2C1_Status+12)
  7778   00307C  24F3               	addwf	243,w,c
  7779   00307E  6ED9               	movwf	fsr2l,c
  7780   003080  0E00               	movlw	high (_I2C1_Status+12)
  7781   003082  20F4               	addwfc	prodh,w,c
  7782   003084  6EDA               	movwf	fsr2h,c
  7783   003086  0E00               	movlw	0
  7784   003088  6EDE               	movwf	postinc2,c
  7785   00308A  0E00               	movlw	0
  7786   00308C  6EDD               	movwf	postdec2,c
  7787   00308E                     l350:
  7788   00308E  0012               	return		;funcret
  7789   003090                     __end_of_I2C1_SetCallback:
  7790                           	callstack 0
  7791                           
  7792 ;; *************** function _I2C1_Open *****************
  7793 ;; Defined at:
  7794 ;;		line 176 in file "mcc_generated_files/i2c1_master.c"
  7795 ;; Parameters:    Size  Location     Type
  7796 ;;  address         1    wreg     unsigned char 
  7797 ;; Auto vars:     Size  Location     Type
  7798 ;;  address         1   27[COMRAM] unsigned char 
  7799 ;;  returnValue     1   28[COMRAM] enum E355
  7800 ;; Return value:  Size  Location     Type
  7801 ;;                  1    wreg      enum E355
  7802 ;; Registers used:
  7803 ;;		wreg, status,2, status,0, cstack
  7804 ;; Tracked objects:
  7805 ;;		On entry : 0/0
  7806 ;;		On exit  : 0/0
  7807 ;;		Unchanged: 0/0
  7808 ;; Data sizes:     COMRAM   BANK0   BANK1   BANK2   BANK3   BANK4   BANK5   BANK6   BANK7   BANK8   BANK9  BANK10  BANK1
      +1  BANK12  BANK13  BANK14
  7809 ;;      Params:         0       0       0       0       0       0       0       0       0       0       0       0       
      +0       0       0       0
  7810 ;;      Locals:         2       0       0       0       0       0       0       0       0       0       0       0       
      +0       0       0       0
  7811 ;;      Temps:          0       0       0       0       0       0       0       0       0       0       0       0       
      +0       0       0       0
  7812 ;;      Totals:         2       0       0       0       0       0       0       0       0       0       0       0       
      +0       0       0       0
  7813 ;;Total ram usage:        2 bytes
  7814 ;; Hardware stack levels used: 1
  7815 ;; Hardware stack levels required when called: 8
  7816 ;; This function calls:
  7817 ;;		_I2C1_MasterClearIrq
  7818 ;;		_I2C1_MasterEnableIrq
  7819 ;;		_I2C1_MasterOpen
  7820 ;;		_I2C1_SetInterruptHandler
  7821 ;; This function is called by:
  7822 ;;		_I2C1_Read1ByteRegister
  7823 ;;		_I2C1_Write1ByteRegister
  7824 ;;		_I2C1_Read2ByteRegister
  7825 ;;		_I2C1_Write2ByteRegister
  7826 ;;		_I2C1_WriteNBytes
  7827 ;;		_I2C1_ReadNBytes
  7828 ;;		_I2C1_ReadDataBlock
  7829 ;; This function uses a non-reentrant model
  7830 ;;
  7831                           
  7832                           	psect	text46
  7833   002DE6                     __ptext46:
  7834                           	callstack 0
  7835   002DE6                     _I2C1_Open:
  7836                           	callstack 18
  7837                           
  7838                           ;incstack = 0
  7839                           ;I2C1_Open@address stored from wreg
  7840   002DE6  6E1C               	movwf	I2C1_Open@address^0,c
  7841   002DE8                     
  7842                           ;mcc_generated_files/i2c1_master.c: 176: i2c1_error_t I2C1_Open(i2c1_address_t address);
      +                          mcc_generated_files/i2c1_master.c: 177: {;mcc_generated_files/i2c1_master.c: 178:     i2
      +                          c1_error_t returnValue = I2C1_BUSY;
  7843   002DE8  0E01               	movlw	1
  7844   002DEA  6E1D               	movwf	I2C1_Open@returnValue^0,c
  7845   002DEC                     
  7846                           ;mcc_generated_files/i2c1_master.c: 180:     if(!I2C1_Status.inUse)
  7847   002DEC  0100               	movlb	0	; () banked
  7848   002DEE  B5D5               	btfsc	(_I2C1_Status+35)& (0+255),2,b
  7849   002DF0  EFFC  F016         	goto	u4231
  7850   002DF4  EFFE  F016         	goto	u4230
  7851   002DF8                     u4231:
  7852   002DF8  EF40  F017         	goto	l5690
  7853   002DFC                     u4230:
  7854   002DFC                     
  7855                           ; BSR set to: 0
  7856                           ;mcc_generated_files/i2c1_master.c: 181:     {;mcc_generated_files/i2c1_master.c: 182:  
      +                                 I2C1_Status.address = address;
  7857   002DFC  C01C  F0CE         	movff	I2C1_Open@address,_I2C1_Status+28
  7858   002E00                     
  7859                           ; BSR set to: 0
  7860                           ;mcc_generated_files/i2c1_master.c: 183:         I2C1_Status.busy = 0;
  7861   002E00  93D5               	bcf	(_I2C1_Status+35)& (0+255),1,b
  7862   002E02                     
  7863                           ; BSR set to: 0
  7864                           ;mcc_generated_files/i2c1_master.c: 184:         I2C1_Status.inUse = 1;
  7865   002E02  85D5               	bsf	(_I2C1_Status+35)& (0+255),2,b
  7866   002E04                     
  7867                           ; BSR set to: 0
  7868                           ;mcc_generated_files/i2c1_master.c: 185:         I2C1_Status.addressNackCheck = 0;
  7869   002E04  91D5               	bcf	(_I2C1_Status+35)& (0+255),0,b
  7870   002E06                     
  7871                           ; BSR set to: 0
  7872                           ;mcc_generated_files/i2c1_master.c: 186:         I2C1_Status.state = I2C1_RESET;
  7873   002E06  0E0E               	movlw	14
  7874   002E08  6FD3               	movwf	(_I2C1_Status+33)& (0+255),b
  7875   002E0A                     
  7876                           ; BSR set to: 0
  7877                           ;mcc_generated_files/i2c1_master.c: 187:         I2C1_Status.time_out_value = 500;
  7878   002E0A  0E01               	movlw	1
  7879   002E0C  6FCD               	movwf	(_I2C1_Status+27)& (0+255),b
  7880   002E0E  0EF4               	movlw	244
  7881   002E10  6FCC               	movwf	(_I2C1_Status+26)& (0+255),b
  7882   002E12                     
  7883                           ; BSR set to: 0
  7884                           ;mcc_generated_files/i2c1_master.c: 188:         I2C1_Status.bufferFree = 1;
  7885   002E12  87D5               	bsf	(_I2C1_Status+35)& (0+255),3,b
  7886   002E14                     
  7887                           ; BSR set to: 0
  7888                           ;mcc_generated_files/i2c1_master.c: 191:         I2C1_Status.callbackTable[I2C1_DATA_COM
      +                          PLETE]=I2C1_CallbackReturnStop;
  7889   002E14  0EC6               	movlw	low _I2C1_CallbackReturnStop
  7890   002E16  6FB2               	movwf	_I2C1_Status& (0+255),b
  7891   002E18  0E3B               	movlw	high _I2C1_CallbackReturnStop
  7892   002E1A  6FB3               	movwf	(_I2C1_Status+1)& (0+255),b
  7893   002E1C                     
  7894                           ; BSR set to: 0
  7895                           ;mcc_generated_files/i2c1_master.c: 192:         I2C1_Status.callbackPayload[I2C1_DATA_C
      +                          OMPLETE] = ((void*)0);
  7896   002E1C  0E00               	movlw	0
  7897   002E1E  6FBE               	movwf	(_I2C1_Status+12)& (0+255),b
  7898   002E20  0E00               	movlw	0
  7899   002E22  6FBF               	movwf	(_I2C1_Status+13)& (0+255),b
  7900   002E24                     
  7901                           ; BSR set to: 0
  7902                           ;mcc_generated_files/i2c1_master.c: 193:         I2C1_Status.callbackTable[I2C1_WRITE_CO
      +                          LLISION]=I2C1_CallbackReturnStop;
  7903   002E24  0EC6               	movlw	low _I2C1_CallbackReturnStop
  7904   002E26  6FB4               	movwf	(_I2C1_Status+2)& (0+255),b
  7905   002E28  0E3B               	movlw	high _I2C1_CallbackReturnStop
  7906   002E2A  6FB5               	movwf	(_I2C1_Status+3)& (0+255),b
  7907   002E2C                     
  7908                           ; BSR set to: 0
  7909                           ;mcc_generated_files/i2c1_master.c: 194:         I2C1_Status.callbackPayload[I2C1_WRITE_
      +                          COLLISION] = ((void*)0);
  7910   002E2C  0E00               	movlw	0
  7911   002E2E  6FC0               	movwf	(_I2C1_Status+14)& (0+255),b
  7912   002E30  0E00               	movlw	0
  7913   002E32  6FC1               	movwf	(_I2C1_Status+15)& (0+255),b
  7914   002E34                     
  7915                           ; BSR set to: 0
  7916                           ;mcc_generated_files/i2c1_master.c: 195:         I2C1_Status.callbackTable[I2C1_ADDR_NAC
      +                          K]=I2C1_CallbackReturnStop;
  7917   002E34  0EC6               	movlw	low _I2C1_CallbackReturnStop
  7918   002E36  6FB6               	movwf	(_I2C1_Status+4)& (0+255),b
  7919   002E38  0E3B               	movlw	high _I2C1_CallbackReturnStop
  7920   002E3A  6FB7               	movwf	(_I2C1_Status+5)& (0+255),b
  7921   002E3C                     
  7922                           ; BSR set to: 0
  7923                           ;mcc_generated_files/i2c1_master.c: 196:         I2C1_Status.callbackPayload[I2C1_ADDR_N
      +                          ACK] = ((void*)0);
  7924   002E3C  0E00               	movlw	0
  7925   002E3E  6FC2               	movwf	(_I2C1_Status+16)& (0+255),b
  7926   002E40  0E00               	movlw	0
  7927   002E42  6FC3               	movwf	(_I2C1_Status+17)& (0+255),b
  7928   002E44                     
  7929                           ; BSR set to: 0
  7930                           ;mcc_generated_files/i2c1_master.c: 197:         I2C1_Status.callbackTable[I2C1_DATA_NAC
      +                          K]=I2C1_CallbackReturnStop;
  7931   002E44  0EC6               	movlw	low _I2C1_CallbackReturnStop
  7932   002E46  6FB8               	movwf	(_I2C1_Status+6)& (0+255),b
  7933   002E48  0E3B               	movlw	high _I2C1_CallbackReturnStop
  7934   002E4A  6FB9               	movwf	(_I2C1_Status+7)& (0+255),b
  7935   002E4C                     
  7936                           ; BSR set to: 0
  7937                           ;mcc_generated_files/i2c1_master.c: 198:         I2C1_Status.callbackPayload[I2C1_DATA_N
      +                          ACK] = ((void*)0);
  7938   002E4C  0E00               	movlw	0
  7939   002E4E  6FC4               	movwf	(_I2C1_Status+18)& (0+255),b
  7940   002E50  0E00               	movlw	0
  7941   002E52  6FC5               	movwf	(_I2C1_Status+19)& (0+255),b
  7942   002E54                     
  7943                           ; BSR set to: 0
  7944                           ;mcc_generated_files/i2c1_master.c: 199:         I2C1_Status.callbackTable[I2C1_TIMEOUT]
      +                          =I2C1_CallbackReturnReset;
  7945   002E54  0EC2               	movlw	low _I2C1_CallbackReturnReset
  7946   002E56  6FBA               	movwf	(_I2C1_Status+8)& (0+255),b
  7947   002E58  0E3B               	movlw	high _I2C1_CallbackReturnReset
  7948   002E5A  6FBB               	movwf	(_I2C1_Status+9)& (0+255),b
  7949   002E5C                     
  7950                           ; BSR set to: 0
  7951                           ;mcc_generated_files/i2c1_master.c: 200:         I2C1_Status.callbackPayload[I2C1_TIMEOU
      +                          T] = ((void*)0);
  7952   002E5C  0E00               	movlw	0
  7953   002E5E  6FC6               	movwf	(_I2C1_Status+20)& (0+255),b
  7954   002E60  0E00               	movlw	0
  7955   002E62  6FC7               	movwf	(_I2C1_Status+21)& (0+255),b
  7956   002E64                     
  7957                           ; BSR set to: 0
  7958                           ;mcc_generated_files/i2c1_master.c: 202:         I2C1_SetInterruptHandler(I2C1_MasterIsr
      +                          );
  7959   002E64  0E8C               	movlw	low _I2C1_MasterIsr
  7960   002E66  6E1A               	movwf	I2C1_SetInterruptHandler@InterruptHandler^0,c
  7961   002E68  0E3B               	movlw	high _I2C1_MasterIsr
  7962   002E6A  6E1B               	movwf	(I2C1_SetInterruptHandler@InterruptHandler+1)^0,c
  7963   002E6C  EC71  F01D         	call	_I2C1_SetInterruptHandler	;wreg free
  7964   002E70                     
  7965                           ;mcc_generated_files/i2c1_master.c: 203:         I2C1_MasterClearIrq();
  7966   002E70  ECC3  F01D         	call	_I2C1_MasterClearIrq	;wreg free
  7967   002E74                     
  7968                           ;mcc_generated_files/i2c1_master.c: 204:         I2C1_MasterOpen();
  7969   002E74  EC95  F01C         	call	_I2C1_MasterOpen	;wreg free
  7970   002E78                     
  7971                           ;mcc_generated_files/i2c1_master.c: 205:         I2C1_MasterEnableIrq();
  7972   002E78  ECBD  F01D         	call	_I2C1_MasterEnableIrq	;wreg free
  7973   002E7C                     
  7974                           ;mcc_generated_files/i2c1_master.c: 206:         returnValue = I2C1_NOERR;
  7975   002E7C  0E00               	movlw	0
  7976   002E7E  6E1D               	movwf	I2C1_Open@returnValue^0,c
  7977   002E80                     l5690:
  7978                           
  7979                           ;mcc_generated_files/i2c1_master.c: 208:     return returnValue;
  7980   002E80  501D               	movf	I2C1_Open@returnValue^0,w,c
  7981   002E82  0012               	return		;funcret
  7982   002E84                     __end_of_I2C1_Open:
  7983                           	callstack 0
  7984                           
  7985 ;; *************** function _I2C1_SetInterruptHandler *****************
  7986 ;; Defined at:
  7987 ;;		line 299 in file "mcc_generated_files/i2c1_master.c"
  7988 ;; Parameters:    Size  Location     Type
  7989 ;;  InterruptHan    2   25[COMRAM] PTR FTN()void 
  7990 ;;		 -> I2C1_MasterIsr(1), 
  7991 ;; Auto vars:     Size  Location     Type
  7992 ;;		None
  7993 ;; Return value:  Size  Location     Type
  7994 ;;                  1    wreg      void 
  7995 ;; Registers used:
  7996 ;;		wreg, status,2, status,0
  7997 ;; Tracked objects:
  7998 ;;		On entry : 0/0
  7999 ;;		On exit  : 0/0
  8000 ;;		Unchanged: 0/0
  8001 ;; Data sizes:     COMRAM   BANK0   BANK1   BANK2   BANK3   BANK4   BANK5   BANK6   BANK7   BANK8   BANK9  BANK10  BANK1
      +1  BANK12  BANK13  BANK14
  8002 ;;      Params:         2       0       0       0       0       0       0       0       0       0       0       0       
      +0       0       0       0
  8003 ;;      Locals:         0       0       0       0       0       0       0       0       0       0       0       0       
      +0       0       0       0
  8004 ;;      Temps:          0       0       0       0       0       0       0       0       0       0       0       0       
      +0       0       0       0
  8005 ;;      Totals:         2       0       0       0       0       0       0       0       0       0       0       0       
      +0       0       0       0
  8006 ;;Total ram usage:        2 bytes
  8007 ;; Hardware stack levels used: 1
  8008 ;; Hardware stack levels required when called: 7
  8009 ;; This function calls:
  8010 ;;		Nothing
  8011 ;; This function is called by:
  8012 ;;		_I2C1_Open
  8013 ;; This function uses a non-reentrant model
  8014 ;;
  8015                           
  8016                           	psect	text47
  8017   003AE2                     __ptext47:
  8018                           	callstack 0
  8019   003AE2                     _I2C1_SetInterruptHandler:
  8020                           	callstack 18
  8021   003AE2                     
  8022                           ;mcc_generated_files/i2c1_master.c: 299: void I2C1_SetInterruptHandler(void (* Interrupt
      +                          Handler)(void));mcc_generated_files/i2c1_master.c: 300: {;mcc_generated_files/i2c1_maste
      +                          r.c: 301:     MSSP1_InterruptHandler = InterruptHandler;
  8023   003AE2  C01A  F03B         	movff	I2C1_SetInterruptHandler@InterruptHandler,_MSSP1_InterruptHandler
  8024   003AE6  C01B  F03C         	movff	I2C1_SetInterruptHandler@InterruptHandler+1,_MSSP1_InterruptHandler+1
  8025   003AEA  0012               	return		;funcret
  8026   003AEC                     __end_of_I2C1_SetInterruptHandler:
  8027                           	callstack 0
  8028                           
  8029 ;; *************** function _I2C1_MasterOpen *****************
  8030 ;; Defined at:
  8031 ;;		line 544 in file "mcc_generated_files/i2c1_master.c"
  8032 ;; Parameters:    Size  Location     Type
  8033 ;;		None
  8034 ;; Auto vars:     Size  Location     Type
  8035 ;;		None
  8036 ;; Return value:  Size  Location     Type
  8037 ;;                  1    wreg      _Bool 
  8038 ;; Registers used:
  8039 ;;		wreg, status,2
  8040 ;; Tracked objects:
  8041 ;;		On entry : 0/0
  8042 ;;		On exit  : 0/0
  8043 ;;		Unchanged: 0/0
  8044 ;; Data sizes:     COMRAM   BANK0   BANK1   BANK2   BANK3   BANK4   BANK5   BANK6   BANK7   BANK8   BANK9  BANK10  BANK1
      +1  BANK12  BANK13  BANK14
  8045 ;;      Params:         0       0       0       0       0       0       0       0       0       0       0       0       
      +0       0       0       0
  8046 ;;      Locals:         0       0       0       0       0       0       0       0       0       0       0       0       
      +0       0       0       0
  8047 ;;      Temps:          0       0       0       0       0       0       0       0       0       0       0       0       
      +0       0       0       0
  8048 ;;      Totals:         0       0       0       0       0       0       0       0       0       0       0       0       
      +0       0       0       0
  8049 ;;Total ram usage:        0 bytes
  8050 ;; Hardware stack levels used: 1
  8051 ;; Hardware stack levels required when called: 7
  8052 ;; This function calls:
  8053 ;;		Nothing
  8054 ;; This function is called by:
  8055 ;;		_I2C1_Open
  8056 ;; This function uses a non-reentrant model
  8057 ;;
  8058                           
  8059                           	psect	text48
  8060   00392A                     __ptext48:
  8061                           	callstack 0
  8062   00392A                     _I2C1_MasterOpen:
  8063                           	callstack 18
  8064   00392A                     
  8065                           ;mcc_generated_files/i2c1_master.c: 546:     if(!SSP1CON1bits.SSPEN)
  8066   00392A  BA96               	btfsc	150,5,c	;volatile
  8067   00392C  EF9A  F01C         	goto	u4181
  8068   003930  EF9C  F01C         	goto	u4180
  8069   003934                     u4181:
  8070   003934  EFA5  F01C         	goto	l469
  8071   003938                     u4180:
  8072   003938                     
  8073                           ;mcc_generated_files/i2c1_master.c: 547:     {;mcc_generated_files/i2c1_master.c: 548:  
      +                                 SSP1STAT = 0x00;
  8074   003938  0E00               	movlw	0
  8075   00393A  6E95               	movwf	149,c	;volatile
  8076                           
  8077                           ;mcc_generated_files/i2c1_master.c: 549:         SSP1CON1 = 0x08;
  8078   00393C  0E08               	movlw	8
  8079   00393E  6E96               	movwf	150,c	;volatile
  8080                           
  8081                           ;mcc_generated_files/i2c1_master.c: 550:         SSP1CON2 = 0x00;
  8082   003940  0E00               	movlw	0
  8083   003942  6E97               	movwf	151,c	;volatile
  8084                           
  8085                           ;mcc_generated_files/i2c1_master.c: 551:         SSP1ADD = 0x27;
  8086   003944  0E27               	movlw	39
  8087   003946  6E93               	movwf	147,c	;volatile
  8088   003948                     
  8089                           ;mcc_generated_files/i2c1_master.c: 552:         SSP1CON1bits.SSPEN = 1;
  8090   003948  8A96               	bsf	150,5,c	;volatile
  8091   00394A                     l469:
  8092   00394A  0012               	return		;funcret
  8093   00394C                     __end_of_I2C1_MasterOpen:
  8094                           	callstack 0
  8095                           
  8096 ;; *************** function _I2C1_MasterEnableIrq *****************
  8097 ;; Defined at:
  8098 ;;		line 627 in file "mcc_generated_files/i2c1_master.c"
  8099 ;; Parameters:    Size  Location     Type
  8100 ;;		None
  8101 ;; Auto vars:     Size  Location     Type
  8102 ;;		None
  8103 ;; Return value:  Size  Location     Type
  8104 ;;                  1    wreg      void 
  8105 ;; Registers used:
  8106 ;;		None
  8107 ;; Tracked objects:
  8108 ;;		On entry : 0/0
  8109 ;;		On exit  : 0/0
  8110 ;;		Unchanged: 0/0
  8111 ;; Data sizes:     COMRAM   BANK0   BANK1   BANK2   BANK3   BANK4   BANK5   BANK6   BANK7   BANK8   BANK9  BANK10  BANK1
      +1  BANK12  BANK13  BANK14
  8112 ;;      Params:         0       0       0       0       0       0       0       0       0       0       0       0       
      +0       0       0       0
  8113 ;;      Locals:         0       0       0       0       0       0       0       0       0       0       0       0       
      +0       0       0       0
  8114 ;;      Temps:          0       0       0       0       0       0       0       0       0       0       0       0       
      +0       0       0       0
  8115 ;;      Totals:         0       0       0       0       0       0       0       0       0       0       0       0       
      +0       0       0       0
  8116 ;;Total ram usage:        0 bytes
  8117 ;; Hardware stack levels used: 1
  8118 ;; Hardware stack levels required when called: 7
  8119 ;; This function calls:
  8120 ;;		Nothing
  8121 ;; This function is called by:
  8122 ;;		_I2C1_Open
  8123 ;;		_I2C1_SetTimeOut
  8124 ;; This function uses a non-reentrant model
  8125 ;;
  8126                           
  8127                           	psect	text49
  8128   003B7A                     __ptext49:
  8129                           	callstack 0
  8130   003B7A                     _I2C1_MasterEnableIrq:
  8131                           	callstack 18
  8132   003B7A                     
  8133                           ;mcc_generated_files/i2c1_master.c: 629:     PIE3bits.SSP1IE = 1;
  8134   003B7A  010E               	movlb	14	; () banked
  8135   003B7C  81C5               	bsf	197,0,b	;volatile
  8136   003B7E                     
  8137                           ; BSR set to: 14
  8138   003B7E  0012               	return		;funcret
  8139   003B80                     __end_of_I2C1_MasterEnableIrq:
  8140                           	callstack 0
  8141                           
  8142 ;; *************** function _I2C1_MasterWrite *****************
  8143 ;; Defined at:
  8144 ;;		line 252 in file "mcc_generated_files/i2c1_master.c"
  8145 ;; Parameters:    Size  Location     Type
  8146 ;;		None
  8147 ;; Auto vars:     Size  Location     Type
  8148 ;;		None
  8149 ;; Return value:  Size  Location     Type
  8150 ;;                  1    wreg      enum E355
  8151 ;; Registers used:
  8152 ;;		wreg, status,2, cstack
  8153 ;; Tracked objects:
  8154 ;;		On entry : 0/0
  8155 ;;		On exit  : 0/0
  8156 ;;		Unchanged: 0/0
  8157 ;; Data sizes:     COMRAM   BANK0   BANK1   BANK2   BANK3   BANK4   BANK5   BANK6   BANK7   BANK8   BANK9  BANK10  BANK1
      +1  BANK12  BANK13  BANK14
  8158 ;;      Params:         0       0       0       0       0       0       0       0       0       0       0       0       
      +0       0       0       0
  8159 ;;      Locals:         0       0       0       0       0       0       0       0       0       0       0       0       
      +0       0       0       0
  8160 ;;      Temps:          0       0       0       0       0       0       0       0       0       0       0       0       
      +0       0       0       0
  8161 ;;      Totals:         0       0       0       0       0       0       0       0       0       0       0       0       
      +0       0       0       0
  8162 ;;Total ram usage:        0 bytes
  8163 ;; Hardware stack levels used: 1
  8164 ;; Hardware stack levels required when called: 9
  8165 ;; This function calls:
  8166 ;;		_I2C1_MasterOperation
  8167 ;; This function is called by:
  8168 ;;		_I2C1_Read1ByteRegister
  8169 ;;		_I2C1_Write1ByteRegister
  8170 ;;		_I2C1_Read2ByteRegister
  8171 ;;		_I2C1_Write2ByteRegister
  8172 ;;		_I2C1_WriteNBytes
  8173 ;;		_I2C1_ReadDataBlock
  8174 ;; This function uses a non-reentrant model
  8175 ;;
  8176                           
  8177                           	psect	text50
  8178   003B26                     __ptext50:
  8179                           	callstack 0
  8180   003B26                     _I2C1_MasterWrite:
  8181                           	callstack 17
  8182   003B26                     
  8183                           ;mcc_generated_files/i2c1_master.c: 254:     return I2C1_MasterOperation(0);;	Return val
      +                          ue of _I2C1_MasterWrite is never used
  8184   003B26  0E00               	movlw	0
  8185   003B28  ECBF  F01A         	call	_I2C1_MasterOperation
  8186   003B2C  0012               	return		;funcret
  8187   003B2E                     __end_of_I2C1_MasterWrite:
  8188                           	callstack 0
  8189                           
  8190 ;; *************** function _I2C1_MasterOperation *****************
  8191 ;; Defined at:
  8192 ;;		line 226 in file "mcc_generated_files/i2c1_master.c"
  8193 ;; Parameters:    Size  Location     Type
  8194 ;;  read            1    wreg     _Bool 
  8195 ;; Auto vars:     Size  Location     Type
  8196 ;;  read            1   25[COMRAM] _Bool 
  8197 ;;  returnValue     1   26[COMRAM] enum E355
  8198 ;; Return value:  Size  Location     Type
  8199 ;;                  1    wreg      enum E355
  8200 ;; Registers used:
  8201 ;;		wreg, status,2, cstack
  8202 ;; Tracked objects:
  8203 ;;		On entry : 0/0
  8204 ;;		On exit  : 0/0
  8205 ;;		Unchanged: 0/0
  8206 ;; Data sizes:     COMRAM   BANK0   BANK1   BANK2   BANK3   BANK4   BANK5   BANK6   BANK7   BANK8   BANK9  BANK10  BANK1
      +1  BANK12  BANK13  BANK14
  8207 ;;      Params:         0       0       0       0       0       0       0       0       0       0       0       0       
      +0       0       0       0
  8208 ;;      Locals:         2       0       0       0       0       0       0       0       0       0       0       0       
      +0       0       0       0
  8209 ;;      Temps:          0       0       0       0       0       0       0       0       0       0       0       0       
      +0       0       0       0
  8210 ;;      Totals:         2       0       0       0       0       0       0       0       0       0       0       0       
      +0       0       0       0
  8211 ;;Total ram usage:        2 bytes
  8212 ;; Hardware stack levels used: 1
  8213 ;; Hardware stack levels required when called: 8
  8214 ;; This function calls:
  8215 ;;		_I2C1_MasterStart
  8216 ;; This function is called by:
  8217 ;;		_I2C1_MasterWrite
  8218 ;;		_I2C1_MasterRead
  8219 ;; This function uses a non-reentrant model
  8220 ;;
  8221                           
  8222                           	psect	text51
  8223   00357E                     __ptext51:
  8224                           	callstack 0
  8225   00357E                     _I2C1_MasterOperation:
  8226                           	callstack 17
  8227                           
  8228                           ;incstack = 0
  8229                           ;I2C1_MasterOperation@read stored from wreg
  8230   00357E  6E1A               	movwf	I2C1_MasterOperation@read^0,c
  8231   003580                     
  8232                           ;mcc_generated_files/i2c1_master.c: 226: i2c1_error_t I2C1_MasterOperation(_Bool read);m
      +                          cc_generated_files/i2c1_master.c: 227: {;mcc_generated_files/i2c1_master.c: 228:     i2c
      +                          1_error_t returnValue = I2C1_BUSY;
  8233   003580  0E01               	movlw	1
  8234   003582  6E1B               	movwf	I2C1_MasterOperation@returnValue^0,c
  8235   003584                     
  8236                           ;mcc_generated_files/i2c1_master.c: 229:     if(!I2C1_Status.busy)
  8237   003584  0100               	movlb	0	; () banked
  8238   003586  B3D5               	btfsc	(_I2C1_Status+35)& (0+255),1,b
  8239   003588  EFC8  F01A         	goto	u4191
  8240   00358C  EFCA  F01A         	goto	u4190
  8241   003590                     u4191:
  8242   003590  EFDD  F01A         	goto	l5624
  8243   003594                     u4190:
  8244   003594                     
  8245                           ; BSR set to: 0
  8246                           ;mcc_generated_files/i2c1_master.c: 230:     {;mcc_generated_files/i2c1_master.c: 231:  
      +                                 I2C1_Status.busy = 1;
  8247   003594  83D5               	bsf	(_I2C1_Status+35)& (0+255),1,b
  8248   003596                     
  8249                           ; BSR set to: 0
  8250                           ;mcc_generated_files/i2c1_master.c: 232:         returnValue = I2C1_NOERR;
  8251   003596  0E00               	movlw	0
  8252   003598  6E1B               	movwf	I2C1_MasterOperation@returnValue^0,c
  8253   00359A                     
  8254                           ; BSR set to: 0
  8255                           ;mcc_generated_files/i2c1_master.c: 234:         if(read)
  8256   00359A  501A               	movf	I2C1_MasterOperation@read^0,w,c
  8257   00359C  B4D8               	btfsc	status,2,c
  8258   00359E  EFD3  F01A         	goto	u4201
  8259   0035A2  EFD5  F01A         	goto	u4200
  8260   0035A6                     u4201:
  8261   0035A6  EFD9  F01A         	goto	l5620
  8262   0035AA                     u4200:
  8263   0035AA                     
  8264                           ; BSR set to: 0
  8265                           ;mcc_generated_files/i2c1_master.c: 235:         {;mcc_generated_files/i2c1_master.c: 23
      +                          6:             I2C1_Status.state = I2C1_SEND_ADR_READ;
  8266   0035AA  0E01               	movlw	1
  8267   0035AC  6FD3               	movwf	(_I2C1_Status+33)& (0+255),b
  8268                           
  8269                           ;mcc_generated_files/i2c1_master.c: 237:         }
  8270   0035AE  EFDB  F01A         	goto	l5622
  8271   0035B2                     l5620:
  8272                           
  8273                           ; BSR set to: 0
  8274                           ;mcc_generated_files/i2c1_master.c: 239:         {;mcc_generated_files/i2c1_master.c: 24
      +                          0:             I2C1_Status.state = I2C1_SEND_ADR_WRITE;
  8275   0035B2  0E02               	movlw	2
  8276   0035B4  6FD3               	movwf	(_I2C1_Status+33)& (0+255),b
  8277   0035B6                     l5622:
  8278                           
  8279                           ; BSR set to: 0
  8280                           ;mcc_generated_files/i2c1_master.c: 242:         I2C1_MasterStart();
  8281   0035B6  ECD7  F01D         	call	_I2C1_MasterStart	;wreg free
  8282   0035BA                     l5624:
  8283                           
  8284                           ;mcc_generated_files/i2c1_master.c: 244:     return returnValue;
  8285   0035BA  501B               	movf	I2C1_MasterOperation@returnValue^0,w,c
  8286   0035BC  0012               	return		;funcret
  8287   0035BE                     __end_of_I2C1_MasterOperation:
  8288                           	callstack 0
  8289                           
  8290 ;; *************** function _I2C1_MasterStart *****************
  8291 ;; Defined at:
  8292 ;;		line 589 in file "mcc_generated_files/i2c1_master.c"
  8293 ;; Parameters:    Size  Location     Type
  8294 ;;		None
  8295 ;; Auto vars:     Size  Location     Type
  8296 ;;		None
  8297 ;; Return value:  Size  Location     Type
  8298 ;;                  1    wreg      void 
  8299 ;; Registers used:
  8300 ;;		None
  8301 ;; Tracked objects:
  8302 ;;		On entry : 0/0
  8303 ;;		On exit  : 0/0
  8304 ;;		Unchanged: 0/0
  8305 ;; Data sizes:     COMRAM   BANK0   BANK1   BANK2   BANK3   BANK4   BANK5   BANK6   BANK7   BANK8   BANK9  BANK10  BANK1
      +1  BANK12  BANK13  BANK14
  8306 ;;      Params:         0       0       0       0       0       0       0       0       0       0       0       0       
      +0       0       0       0
  8307 ;;      Locals:         0       0       0       0       0       0       0       0       0       0       0       0       
      +0       0       0       0
  8308 ;;      Temps:          0       0       0       0       0       0       0       0       0       0       0       0       
      +0       0       0       0
  8309 ;;      Totals:         0       0       0       0       0       0       0       0       0       0       0       0       
      +0       0       0       0
  8310 ;;Total ram usage:        0 bytes
  8311 ;; Hardware stack levels used: 1
  8312 ;; Hardware stack levels required when called: 7
  8313 ;; This function calls:
  8314 ;;		Nothing
  8315 ;; This function is called by:
  8316 ;;		_I2C1_MasterOperation
  8317 ;; This function uses a non-reentrant model
  8318 ;;
  8319                           
  8320                           	psect	text52
  8321   003BAE                     __ptext52:
  8322                           	callstack 0
  8323   003BAE                     _I2C1_MasterStart:
  8324                           	callstack 17
  8325   003BAE                     
  8326                           ;mcc_generated_files/i2c1_master.c: 591:     SSP1CON2bits.SEN = 1;
  8327   003BAE  8097               	bsf	151,0,c	;volatile
  8328   003BB0  0012               	return		;funcret
  8329   003BB2                     __end_of_I2C1_MasterStart:
  8330                           	callstack 0
  8331                           
  8332 ;; *************** function _I2C1_Close *****************
  8333 ;; Defined at:
  8334 ;;		line 211 in file "mcc_generated_files/i2c1_master.c"
  8335 ;; Parameters:    Size  Location     Type
  8336 ;;		None
  8337 ;; Auto vars:     Size  Location     Type
  8338 ;;  returnValue     1   25[COMRAM] enum E355
  8339 ;; Return value:  Size  Location     Type
  8340 ;;                  1    wreg      enum E355
  8341 ;; Registers used:
  8342 ;;		wreg, status,2, cstack
  8343 ;; Tracked objects:
  8344 ;;		On entry : 0/0
  8345 ;;		On exit  : 0/0
  8346 ;;		Unchanged: 0/0
  8347 ;; Data sizes:     COMRAM   BANK0   BANK1   BANK2   BANK3   BANK4   BANK5   BANK6   BANK7   BANK8   BANK9  BANK10  BANK1
      +1  BANK12  BANK13  BANK14
  8348 ;;      Params:         0       0       0       0       0       0       0       0       0       0       0       0       
      +0       0       0       0
  8349 ;;      Locals:         1       0       0       0       0       0       0       0       0       0       0       0       
      +0       0       0       0
  8350 ;;      Temps:          0       0       0       0       0       0       0       0       0       0       0       0       
      +0       0       0       0
  8351 ;;      Totals:         1       0       0       0       0       0       0       0       0       0       0       0       
      +0       0       0       0
  8352 ;;Total ram usage:        1 bytes
  8353 ;; Hardware stack levels used: 1
  8354 ;; Hardware stack levels required when called: 8
  8355 ;; This function calls:
  8356 ;;		_I2C1_MasterClearIrq
  8357 ;;		_I2C1_MasterClose
  8358 ;;		_I2C1_MasterDisableIrq
  8359 ;; This function is called by:
  8360 ;;		_I2C1_Read1ByteRegister
  8361 ;;		_I2C1_Write1ByteRegister
  8362 ;;		_I2C1_Read2ByteRegister
  8363 ;;		_I2C1_Write2ByteRegister
  8364 ;;		_I2C1_WriteNBytes
  8365 ;;		_I2C1_ReadNBytes
  8366 ;;		_I2C1_ReadDataBlock
  8367 ;; This function uses a non-reentrant model
  8368 ;;
  8369                           
  8370                           	psect	text53
  8371   0036C6                     __ptext53:
  8372                           	callstack 0
  8373   0036C6                     _I2C1_Close:
  8374                           	callstack 18
  8375   0036C6                     
  8376                           ;mcc_generated_files/i2c1_master.c: 213:     i2c1_error_t returnValue = I2C1_BUSY;
  8377   0036C6  0E01               	movlw	1
  8378   0036C8  6E1A               	movwf	I2C1_Close@returnValue^0,c
  8379   0036CA                     
  8380                           ;mcc_generated_files/i2c1_master.c: 214:     if(!I2C1_Status.busy)
  8381   0036CA  0100               	movlb	0	; () banked
  8382   0036CC  B3D5               	btfsc	(_I2C1_Status+35)& (0+255),1,b
  8383   0036CE  EF6B  F01B         	goto	u4251
  8384   0036D2  EF6D  F01B         	goto	u4250
  8385   0036D6                     u4251:
  8386   0036D6  EF77  F01B         	goto	l5720
  8387   0036DA                     u4250:
  8388   0036DA                     
  8389                           ; BSR set to: 0
  8390                           ;mcc_generated_files/i2c1_master.c: 215:     {;mcc_generated_files/i2c1_master.c: 216:  
      +                                 I2C1_Status.inUse = 0;
  8391   0036DA  95D5               	bcf	(_I2C1_Status+35)& (0+255),2,b
  8392                           
  8393                           ;mcc_generated_files/i2c1_master.c: 217:         I2C1_Status.address = 0xff;
  8394   0036DC  69CE               	setf	(_I2C1_Status+28)& (0+255),b
  8395   0036DE                     
  8396                           ; BSR set to: 0
  8397                           ;mcc_generated_files/i2c1_master.c: 218:         I2C1_MasterClearIrq();
  8398   0036DE  ECC3  F01D         	call	_I2C1_MasterClearIrq	;wreg free
  8399                           
  8400                           ;mcc_generated_files/i2c1_master.c: 219:         I2C1_MasterDisableIrq();
  8401   0036E2  ECC0  F01D         	call	_I2C1_MasterDisableIrq	;wreg free
  8402                           
  8403                           ;mcc_generated_files/i2c1_master.c: 220:         I2C1_MasterClose();
  8404   0036E6  ECD9  F01D         	call	_I2C1_MasterClose	;wreg free
  8405   0036EA                     
  8406                           ;mcc_generated_files/i2c1_master.c: 221:         returnValue = I2C1_Status.error;
  8407   0036EA  C0D4  F01A         	movff	_I2C1_Status+34,I2C1_Close@returnValue
  8408   0036EE                     l5720:
  8409                           
  8410                           ;mcc_generated_files/i2c1_master.c: 223:     return returnValue;
  8411   0036EE  501A               	movf	I2C1_Close@returnValue^0,w,c
  8412   0036F0  0012               	return		;funcret
  8413   0036F2                     __end_of_I2C1_Close:
  8414                           	callstack 0
  8415                           
  8416 ;; *************** function _I2C1_MasterDisableIrq *****************
  8417 ;; Defined at:
  8418 ;;		line 637 in file "mcc_generated_files/i2c1_master.c"
  8419 ;; Parameters:    Size  Location     Type
  8420 ;;		None
  8421 ;; Auto vars:     Size  Location     Type
  8422 ;;		None
  8423 ;; Return value:  Size  Location     Type
  8424 ;;                  1    wreg      void 
  8425 ;; Registers used:
  8426 ;;		None
  8427 ;; Tracked objects:
  8428 ;;		On entry : 0/0
  8429 ;;		On exit  : 0/0
  8430 ;;		Unchanged: 0/0
  8431 ;; Data sizes:     COMRAM   BANK0   BANK1   BANK2   BANK3   BANK4   BANK5   BANK6   BANK7   BANK8   BANK9  BANK10  BANK1
      +1  BANK12  BANK13  BANK14
  8432 ;;      Params:         0       0       0       0       0       0       0       0       0       0       0       0       
      +0       0       0       0
  8433 ;;      Locals:         0       0       0       0       0       0       0       0       0       0       0       0       
      +0       0       0       0
  8434 ;;      Temps:          0       0       0       0       0       0       0       0       0       0       0       0       
      +0       0       0       0
  8435 ;;      Totals:         0       0       0       0       0       0       0       0       0       0       0       0       
      +0       0       0       0
  8436 ;;Total ram usage:        0 bytes
  8437 ;; Hardware stack levels used: 1
  8438 ;; Hardware stack levels required when called: 7
  8439 ;; This function calls:
  8440 ;;		Nothing
  8441 ;; This function is called by:
  8442 ;;		_I2C1_Close
  8443 ;;		_I2C1_SetTimeOut
  8444 ;; This function uses a non-reentrant model
  8445 ;;
  8446                           
  8447                           	psect	text54
  8448   003B80                     __ptext54:
  8449                           	callstack 0
  8450   003B80                     _I2C1_MasterDisableIrq:
  8451                           	callstack 18
  8452   003B80                     
  8453                           ;mcc_generated_files/i2c1_master.c: 639:     PIE3bits.SSP1IE = 0;
  8454   003B80  010E               	movlb	14	; () banked
  8455   003B82  91C5               	bcf	197,0,b	;volatile
  8456   003B84                     
  8457                           ; BSR set to: 14
  8458   003B84  0012               	return		;funcret
  8459   003B86                     __end_of_I2C1_MasterDisableIrq:
  8460                           	callstack 0
  8461                           
  8462 ;; *************** function _I2C1_MasterClose *****************
  8463 ;; Defined at:
  8464 ;;		line 558 in file "mcc_generated_files/i2c1_master.c"
  8465 ;; Parameters:    Size  Location     Type
  8466 ;;		None
  8467 ;; Auto vars:     Size  Location     Type
  8468 ;;		None
  8469 ;; Return value:  Size  Location     Type
  8470 ;;                  1    wreg      void 
  8471 ;; Registers used:
  8472 ;;		None
  8473 ;; Tracked objects:
  8474 ;;		On entry : 0/0
  8475 ;;		On exit  : 0/0
  8476 ;;		Unchanged: 0/0
  8477 ;; Data sizes:     COMRAM   BANK0   BANK1   BANK2   BANK3   BANK4   BANK5   BANK6   BANK7   BANK8   BANK9  BANK10  BANK1
      +1  BANK12  BANK13  BANK14
  8478 ;;      Params:         0       0       0       0       0       0       0       0       0       0       0       0       
      +0       0       0       0
  8479 ;;      Locals:         0       0       0       0       0       0       0       0       0       0       0       0       
      +0       0       0       0
  8480 ;;      Temps:          0       0       0       0       0       0       0       0       0       0       0       0       
      +0       0       0       0
  8481 ;;      Totals:         0       0       0       0       0       0       0       0       0       0       0       0       
      +0       0       0       0
  8482 ;;Total ram usage:        0 bytes
  8483 ;; Hardware stack levels used: 1
  8484 ;; Hardware stack levels required when called: 7
  8485 ;; This function calls:
  8486 ;;		Nothing
  8487 ;; This function is called by:
  8488 ;;		_I2C1_Close
  8489 ;; This function uses a non-reentrant model
  8490 ;;
  8491                           
  8492                           	psect	text55
  8493   003BB2                     __ptext55:
  8494                           	callstack 0
  8495   003BB2                     _I2C1_MasterClose:
  8496                           	callstack 18
  8497   003BB2                     
  8498                           ;mcc_generated_files/i2c1_master.c: 561:     SSP1CON1bits.SSPEN = 0;
  8499   003BB2  9A96               	bcf	150,5,c	;volatile
  8500   003BB4  0012               	return		;funcret
  8501   003BB6                     __end_of_I2C1_MasterClose:
  8502                           	callstack 0
  8503                           
  8504 ;; *************** function _I2C1_MasterClearIrq *****************
  8505 ;; Defined at:
  8506 ;;		line 642 in file "mcc_generated_files/i2c1_master.c"
  8507 ;; Parameters:    Size  Location     Type
  8508 ;;		None
  8509 ;; Auto vars:     Size  Location     Type
  8510 ;;		None
  8511 ;; Return value:  Size  Location     Type
  8512 ;;                  1    wreg      void 
  8513 ;; Registers used:
  8514 ;;		None
  8515 ;; Tracked objects:
  8516 ;;		On entry : 0/0
  8517 ;;		On exit  : 0/0
  8518 ;;		Unchanged: 0/0
  8519 ;; Data sizes:     COMRAM   BANK0   BANK1   BANK2   BANK3   BANK4   BANK5   BANK6   BANK7   BANK8   BANK9  BANK10  BANK1
      +1  BANK12  BANK13  BANK14
  8520 ;;      Params:         0       0       0       0       0       0       0       0       0       0       0       0       
      +0       0       0       0
  8521 ;;      Locals:         0       0       0       0       0       0       0       0       0       0       0       0       
      +0       0       0       0
  8522 ;;      Temps:          0       0       0       0       0       0       0       0       0       0       0       0       
      +0       0       0       0
  8523 ;;      Totals:         0       0       0       0       0       0       0       0       0       0       0       0       
      +0       0       0       0
  8524 ;;Total ram usage:        0 bytes
  8525 ;; Hardware stack levels used: 1
  8526 ;; Hardware stack levels required when called: 7
  8527 ;; This function calls:
  8528 ;;		Nothing
  8529 ;; This function is called by:
  8530 ;;		_I2C1_Open
  8531 ;;		_I2C1_Close
  8532 ;; This function uses a non-reentrant model
  8533 ;;
  8534                           
  8535                           	psect	text56
  8536   003B86                     __ptext56:
  8537                           	callstack 0
  8538   003B86                     _I2C1_MasterClearIrq:
  8539                           	callstack 18
  8540   003B86                     
  8541                           ;mcc_generated_files/i2c1_master.c: 644:     PIR3bits.SSP1IF = 0;
  8542   003B86  010E               	movlb	14	; () banked
  8543   003B88  91CD               	bcf	205,0,b	;volatile
  8544   003B8A                     
  8545                           ; BSR set to: 14
  8546   003B8A  0012               	return		;funcret
  8547   003B8C                     __end_of_I2C1_MasterClearIrq:
  8548                           	callstack 0
  8549                           
  8550 ;; *************** function ___flge *****************
  8551 ;; Defined at:
  8552 ;;		line 4 in file "C:\Program Files\Microchip\xc8\v2.40\pic\sources\c99\common\flge.c"
  8553 ;; Parameters:    Size  Location     Type
  8554 ;;  ff1             4   25[COMRAM] void 
  8555 ;;  ff2             4   29[COMRAM] void 
  8556 ;; Auto vars:     Size  Location     Type
  8557 ;;		None
  8558 ;; Return value:  Size  Location     Type
  8559 ;;		None               void
  8560 ;; Registers used:
  8561 ;;		wreg, status,2, status,0
  8562 ;; Tracked objects:
  8563 ;;		On entry : 0/0
  8564 ;;		On exit  : 0/0
  8565 ;;		Unchanged: 0/0
  8566 ;; Data sizes:     COMRAM   BANK0   BANK1   BANK2   BANK3   BANK4   BANK5   BANK6   BANK7   BANK8   BANK9  BANK10  BANK1
      +1  BANK12  BANK13  BANK14
  8567 ;;      Params:         8       0       0       0       0       0       0       0       0       0       0       0       
      +0       0       0       0
  8568 ;;      Locals:         0       0       0       0       0       0       0       0       0       0       0       0       
      +0       0       0       0
  8569 ;;      Temps:          4       0       0       0       0       0       0       0       0       0       0       0       
      +0       0       0       0
  8570 ;;      Totals:        12       0       0       0       0       0       0       0       0       0       0       0       
      +0       0       0       0
  8571 ;;Total ram usage:       12 bytes
  8572 ;; Hardware stack levels used: 1
  8573 ;; Hardware stack levels required when called: 7
  8574 ;; This function calls:
  8575 ;;		Nothing
  8576 ;; This function is called by:
  8577 ;;		_main
  8578 ;; This function uses a non-reentrant model
  8579 ;;
  8580                           
  8581                           	psect	text57
  8582   002908                     __ptext57:
  8583                           	callstack 0
  8584   002908                     ___flge:
  8585                           	callstack 23
  8586   002908  0E00               	movlw	0
  8587   00290A  141A               	andwf	___flge@ff1^0,w,c
  8588   00290C  6E22               	movwf	??___flge^0,c
  8589   00290E  0E00               	movlw	0
  8590   002910  141B               	andwf	(___flge@ff1+1)^0,w,c
  8591   002912  6E23               	movwf	(??___flge+1)^0,c
  8592   002914  0E80               	movlw	128
  8593   002916  141C               	andwf	(___flge@ff1+2)^0,w,c
  8594   002918  6E24               	movwf	(??___flge+2)^0,c
  8595   00291A  0E7F               	movlw	127
  8596   00291C  141D               	andwf	(___flge@ff1+3)^0,w,c
  8597   00291E  6E25               	movwf	(??___flge+3)^0,c
  8598   002920  5022               	movf	??___flge^0,w,c
  8599   002922  1023               	iorwf	(??___flge+1)^0,w,c
  8600   002924  1024               	iorwf	(??___flge+2)^0,w,c
  8601   002926  1025               	iorwf	(??___flge+3)^0,w,c
  8602   002928  A4D8               	btfss	status,2,c
  8603   00292A  EF99  F014         	goto	u5461
  8604   00292E  EF9B  F014         	goto	u5460
  8605   002932                     u5461:
  8606   002932  EFA3  F014         	goto	l6678
  8607   002936                     u5460:
  8608   002936  0E00               	movlw	0
  8609   002938  6E1A               	movwf	___flge@ff1^0,c
  8610   00293A  0E00               	movlw	0
  8611   00293C  6E1B               	movwf	(___flge@ff1+1)^0,c
  8612   00293E  0E00               	movlw	0
  8613   002940  6E1C               	movwf	(___flge@ff1+2)^0,c
  8614   002942  0E00               	movlw	0
  8615   002944  6E1D               	movwf	(___flge@ff1+3)^0,c
  8616   002946                     l6678:
  8617   002946  0E00               	movlw	0
  8618   002948  141E               	andwf	___flge@ff2^0,w,c
  8619   00294A  6E22               	movwf	??___flge^0,c
  8620   00294C  0E00               	movlw	0
  8621   00294E  141F               	andwf	(___flge@ff2+1)^0,w,c
  8622   002950  6E23               	movwf	(??___flge+1)^0,c
  8623   002952  0E80               	movlw	128
  8624   002954  1420               	andwf	(___flge@ff2+2)^0,w,c
  8625   002956  6E24               	movwf	(??___flge+2)^0,c
  8626   002958  0E7F               	movlw	127
  8627   00295A  1421               	andwf	(___flge@ff2+3)^0,w,c
  8628   00295C  6E25               	movwf	(??___flge+3)^0,c
  8629   00295E  5022               	movf	??___flge^0,w,c
  8630   002960  1023               	iorwf	(??___flge+1)^0,w,c
  8631   002962  1024               	iorwf	(??___flge+2)^0,w,c
  8632   002964  1025               	iorwf	(??___flge+3)^0,w,c
  8633   002966  A4D8               	btfss	status,2,c
  8634   002968  EFB8  F014         	goto	u5471
  8635   00296C  EFBA  F014         	goto	u5470
  8636   002970                     u5471:
  8637   002970  EFC2  F014         	goto	l6682
  8638   002974                     u5470:
  8639   002974  0E00               	movlw	0
  8640   002976  6E1E               	movwf	___flge@ff2^0,c
  8641   002978  0E00               	movlw	0
  8642   00297A  6E1F               	movwf	(___flge@ff2+1)^0,c
  8643   00297C  0E00               	movlw	0
  8644   00297E  6E20               	movwf	(___flge@ff2+2)^0,c
  8645   002980  0E00               	movlw	0
  8646   002982  6E21               	movwf	(___flge@ff2+3)^0,c
  8647   002984                     l6682:
  8648   002984  AE1D               	btfss	(___flge@ff1+3)^0,7,c
  8649   002986  EFC7  F014         	goto	u5481
  8650   00298A  EFC9  F014         	goto	u5480
  8651   00298E                     u5481:
  8652   00298E  EFD2  F014         	goto	l6686
  8653   002992                     u5480:
  8654   002992  6C1A               	negf	___flge@ff1^0,c
  8655   002994  1E1B               	comf	(___flge@ff1+1)^0,f,c
  8656   002996  B0D8               	btfsc	status,0,c
  8657   002998  2A1B               	incf	(___flge@ff1+1)^0,f,c
  8658   00299A  1E1C               	comf	(___flge@ff1+2)^0,f,c
  8659   00299C  B0D8               	btfsc	status,0,c
  8660   00299E  2A1C               	incf	(___flge@ff1+2)^0,f,c
  8661   0029A0  0E80               	movlw	128
  8662   0029A2  561D               	subfwb	(___flge@ff1+3)^0,f,c
  8663   0029A4                     l6686:
  8664   0029A4  AE21               	btfss	(___flge@ff2+3)^0,7,c
  8665   0029A6  EFD7  F014         	goto	u5491
  8666   0029AA  EFD9  F014         	goto	u5490
  8667   0029AE                     u5491:
  8668   0029AE  EFE2  F014         	goto	l1193
  8669   0029B2                     u5490:
  8670   0029B2  6C1E               	negf	___flge@ff2^0,c
  8671   0029B4  1E1F               	comf	(___flge@ff2+1)^0,f,c
  8672   0029B6  B0D8               	btfsc	status,0,c
  8673   0029B8  2A1F               	incf	(___flge@ff2+1)^0,f,c
  8674   0029BA  1E20               	comf	(___flge@ff2+2)^0,f,c
  8675   0029BC  B0D8               	btfsc	status,0,c
  8676   0029BE  2A20               	incf	(___flge@ff2+2)^0,f,c
  8677   0029C0  0E80               	movlw	128
  8678   0029C2  5621               	subfwb	(___flge@ff2+3)^0,f,c
  8679   0029C4                     l1193:
  8680   0029C4  0E00               	movlw	0
  8681   0029C6  1A1A               	xorwf	___flge@ff1^0,f,c
  8682   0029C8  0E00               	movlw	0
  8683   0029CA  1A1B               	xorwf	(___flge@ff1+1)^0,f,c
  8684   0029CC  0E00               	movlw	0
  8685   0029CE  1A1C               	xorwf	(___flge@ff1+2)^0,f,c
  8686   0029D0  0E80               	movlw	128
  8687   0029D2  1A1D               	xorwf	(___flge@ff1+3)^0,f,c
  8688   0029D4  0E00               	movlw	0
  8689   0029D6  1A1E               	xorwf	___flge@ff2^0,f,c
  8690   0029D8  0E00               	movlw	0
  8691   0029DA  1A1F               	xorwf	(___flge@ff2+1)^0,f,c
  8692   0029DC  0E00               	movlw	0
  8693   0029DE  1A20               	xorwf	(___flge@ff2+2)^0,f,c
  8694   0029E0  0E80               	movlw	128
  8695   0029E2  1A21               	xorwf	(___flge@ff2+3)^0,f,c
  8696   0029E4  501E               	movf	___flge@ff2^0,w,c
  8697   0029E6  5C1A               	subwf	___flge@ff1^0,w,c
  8698   0029E8  501F               	movf	(___flge@ff2+1)^0,w,c
  8699   0029EA  581B               	subwfb	(___flge@ff1+1)^0,w,c
  8700   0029EC  5020               	movf	(___flge@ff2+2)^0,w,c
  8701   0029EE  581C               	subwfb	(___flge@ff1+2)^0,w,c
  8702   0029F0  5021               	movf	(___flge@ff2+3)^0,w,c
  8703   0029F2  581D               	subwfb	(___flge@ff1+3)^0,w,c
  8704   0029F4  B0D8               	btfsc	status,0,c
  8705   0029F6  EFFF  F014         	goto	u5501
  8706   0029FA  EF01  F015         	goto	u5500
  8707   0029FE                     u5501:
  8708   0029FE  EF04  F015         	goto	l6692
  8709   002A02                     u5500:
  8710   002A02  90D8               	bcf	status,0,c
  8711   002A04  EF05  F015         	goto	l1198
  8712   002A08                     l6692:
  8713   002A08  80D8               	bsf	status,0,c
  8714   002A0A                     l1198:
  8715   002A0A  0012               	return		;funcret
  8716   002A0C                     __end_of___flge:
  8717                           	callstack 0
  8718                           
  8719 ;; *************** function _SYSTEM_Initialize *****************
  8720 ;; Defined at:
  8721 ;;		line 50 in file "mcc_generated_files/mcc.c"
  8722 ;; Parameters:    Size  Location     Type
  8723 ;;		None
  8724 ;; Auto vars:     Size  Location     Type
  8725 ;;		None
  8726 ;; Return value:  Size  Location     Type
  8727 ;;                  1    wreg      void 
  8728 ;; Registers used:
  8729 ;;		wreg, status,2, status,0, cstack
  8730 ;; Tracked objects:
  8731 ;;		On entry : 0/0
  8732 ;;		On exit  : 0/0
  8733 ;;		Unchanged: 0/0
  8734 ;; Data sizes:     COMRAM   BANK0   BANK1   BANK2   BANK3   BANK4   BANK5   BANK6   BANK7   BANK8   BANK9  BANK10  BANK1
      +1  BANK12  BANK13  BANK14
  8735 ;;      Params:         0       0       0       0       0       0       0       0       0       0       0       0       
      +0       0       0       0
  8736 ;;      Locals:         0       0       0       0       0       0       0       0       0       0       0       0       
      +0       0       0       0
  8737 ;;      Temps:          0       0       0       0       0       0       0       0       0       0       0       0       
      +0       0       0       0
  8738 ;;      Totals:         0       0       0       0       0       0       0       0       0       0       0       0       
      +0       0       0       0
  8739 ;;Total ram usage:        0 bytes
  8740 ;; Hardware stack levels used: 1
  8741 ;; Hardware stack levels required when called: 9
  8742 ;; This function calls:
  8743 ;;		_EUSART1_Initialize
  8744 ;;		_I2C1_Initialize
  8745 ;;		_INTERRUPT_Initialize
  8746 ;;		_OSCILLATOR_Initialize
  8747 ;;		_PIN_MANAGER_Initialize
  8748 ;;		_PMD_Initialize
  8749 ;;		_TMR2_Initialize
  8750 ;; This function is called by:
  8751 ;;		_main
  8752 ;; This function uses a non-reentrant model
  8753 ;;
  8754                           
  8755                           	psect	text58
  8756   00396A                     __ptext58:
  8757                           	callstack 0
  8758   00396A                     _SYSTEM_Initialize:
  8759                           	callstack 21
  8760   00396A                     
  8761                           ;mcc_generated_files/mcc.c: 52:     INTERRUPT_Initialize();
  8762   00396A  ECDB  F01D         	call	_INTERRUPT_Initialize	;wreg free
  8763   00396E                     
  8764                           ;mcc_generated_files/mcc.c: 53:     PMD_Initialize();
  8765   00396E  ECD2  F01C         	call	_PMD_Initialize	;wreg free
  8766   003972                     
  8767                           ;mcc_generated_files/mcc.c: 54:     I2C1_Initialize();
  8768   003972  EC27  F01D         	call	_I2C1_Initialize	;wreg free
  8769   003976                     
  8770                           ;mcc_generated_files/mcc.c: 55:     PIN_MANAGER_Initialize();
  8771   003976  EC8D  F017         	call	_PIN_MANAGER_Initialize	;wreg free
  8772   00397A                     
  8773                           ;mcc_generated_files/mcc.c: 56:     OSCILLATOR_Initialize();
  8774   00397A  EC04  F01D         	call	_OSCILLATOR_Initialize	;wreg free
  8775   00397E                     
  8776                           ;mcc_generated_files/mcc.c: 57:     TMR2_Initialize();
  8777   00397E  EC79  F01B         	call	_TMR2_Initialize	;wreg free
  8778   003982                     
  8779                           ;mcc_generated_files/mcc.c: 58:     EUSART1_Initialize();
  8780   003982  ECFF  F01A         	call	_EUSART1_Initialize	;wreg free
  8781   003986  0012               	return		;funcret
  8782   003988                     __end_of_SYSTEM_Initialize:
  8783                           	callstack 0
  8784                           
  8785 ;; *************** function _TMR2_Initialize *****************
  8786 ;; Defined at:
  8787 ;;		line 64 in file "mcc_generated_files/tmr2.c"
  8788 ;; Parameters:    Size  Location     Type
  8789 ;;		None
  8790 ;; Auto vars:     Size  Location     Type
  8791 ;;		None
  8792 ;; Return value:  Size  Location     Type
  8793 ;;                  1    wreg      void 
  8794 ;; Registers used:
  8795 ;;		wreg, status,2, status,0, cstack
  8796 ;; Tracked objects:
  8797 ;;		On entry : 0/0
  8798 ;;		On exit  : 0/0
  8799 ;;		Unchanged: 0/0
  8800 ;; Data sizes:     COMRAM   BANK0   BANK1   BANK2   BANK3   BANK4   BANK5   BANK6   BANK7   BANK8   BANK9  BANK10  BANK1
      +1  BANK12  BANK13  BANK14
  8801 ;;      Params:         0       0       0       0       0       0       0       0       0       0       0       0       
      +0       0       0       0
  8802 ;;      Locals:         0       0       0       0       0       0       0       0       0       0       0       0       
      +0       0       0       0
  8803 ;;      Temps:          0       0       0       0       0       0       0       0       0       0       0       0       
      +0       0       0       0
  8804 ;;      Totals:         0       0       0       0       0       0       0       0       0       0       0       0       
      +0       0       0       0
  8805 ;;Total ram usage:        0 bytes
  8806 ;; Hardware stack levels used: 1
  8807 ;; Hardware stack levels required when called: 8
  8808 ;; This function calls:
  8809 ;;		_TMR2_SetInterruptHandler
  8810 ;; This function is called by:
  8811 ;;		_SYSTEM_Initialize
  8812 ;; This function uses a non-reentrant model
  8813 ;;
  8814                           
  8815                           	psect	text59
  8816   0036F2                     __ptext59:
  8817                           	callstack 0
  8818   0036F2                     _TMR2_Initialize:
  8819                           	callstack 21
  8820   0036F2                     
  8821                           ;mcc_generated_files/tmr2.c: 69:     T2CLKCON = 0x03;
  8822   0036F2  0E03               	movlw	3
  8823   0036F4  6EBF               	movwf	191,c	;volatile
  8824                           
  8825                           ;mcc_generated_files/tmr2.c: 72:     T2HLT = 0x00;
  8826   0036F6  0E00               	movlw	0
  8827   0036F8  6EBE               	movwf	190,c	;volatile
  8828                           
  8829                           ;mcc_generated_files/tmr2.c: 75:     T2RST = 0x00;
  8830   0036FA  0E00               	movlw	0
  8831   0036FC  6EC0               	movwf	192,c	;volatile
  8832                           
  8833                           ;mcc_generated_files/tmr2.c: 78:     T2PR = 0x00;
  8834   0036FE  0E00               	movlw	0
  8835   003700  6EBC               	movwf	188,c	;volatile
  8836                           
  8837                           ;mcc_generated_files/tmr2.c: 81:     T2TMR = 0x00;
  8838   003702  0E00               	movlw	0
  8839   003704  6EBB               	movwf	187,c	;volatile
  8840   003706                     
  8841                           ;mcc_generated_files/tmr2.c: 84:     PIR4bits.TMR2IF = 0;
  8842   003706  010E               	movlb	14	; () banked
  8843   003708  93CE               	bcf	206,1,b	;volatile
  8844   00370A                     
  8845                           ; BSR set to: 14
  8846                           ;mcc_generated_files/tmr2.c: 87:     PIE4bits.TMR2IE = 1;
  8847   00370A  83C6               	bsf	198,1,b	;volatile
  8848   00370C                     
  8849                           ; BSR set to: 14
  8850                           ;mcc_generated_files/tmr2.c: 90:     TMR2_SetInterruptHandler(TMR2_DefaultInterruptHandl
      +                          er);
  8851   00370C  0ED2               	movlw	low _TMR2_DefaultInterruptHandler
  8852   00370E  6E1A               	movwf	TMR2_SetInterruptHandler@InterruptHandler^0,c
  8853   003710  0E3B               	movlw	high _TMR2_DefaultInterruptHandler
  8854   003712  6E1B               	movwf	(TMR2_SetInterruptHandler@InterruptHandler+1)^0,c
  8855   003714  EC76  F01D         	call	_TMR2_SetInterruptHandler	;wreg free
  8856   003718                     
  8857                           ;mcc_generated_files/tmr2.c: 93:     T2CON = 0xA3;
  8858   003718  0EA3               	movlw	163
  8859   00371A  6EBD               	movwf	189,c	;volatile
  8860   00371C  0012               	return		;funcret
  8861   00371E                     __end_of_TMR2_Initialize:
  8862                           	callstack 0
  8863                           
  8864 ;; *************** function _TMR2_SetInterruptHandler *****************
  8865 ;; Defined at:
  8866 ;;		line 178 in file "mcc_generated_files/tmr2.c"
  8867 ;; Parameters:    Size  Location     Type
  8868 ;;  InterruptHan    2   25[COMRAM] PTR FTN()void 
  8869 ;;		 -> timer_callback(1), TMR2_DefaultInterruptHandler(1), 
  8870 ;; Auto vars:     Size  Location     Type
  8871 ;;		None
  8872 ;; Return value:  Size  Location     Type
  8873 ;;                  1    wreg      void 
  8874 ;; Registers used:
  8875 ;;		wreg, status,2, status,0
  8876 ;; Tracked objects:
  8877 ;;		On entry : 0/0
  8878 ;;		On exit  : 0/0
  8879 ;;		Unchanged: 0/0
  8880 ;; Data sizes:     COMRAM   BANK0   BANK1   BANK2   BANK3   BANK4   BANK5   BANK6   BANK7   BANK8   BANK9  BANK10  BANK1
      +1  BANK12  BANK13  BANK14
  8881 ;;      Params:         2       0       0       0       0       0       0       0       0       0       0       0       
      +0       0       0       0
  8882 ;;      Locals:         0       0       0       0       0       0       0       0       0       0       0       0       
      +0       0       0       0
  8883 ;;      Temps:          0       0       0       0       0       0       0       0       0       0       0       0       
      +0       0       0       0
  8884 ;;      Totals:         2       0       0       0       0       0       0       0       0       0       0       0       
      +0       0       0       0
  8885 ;;Total ram usage:        2 bytes
  8886 ;; Hardware stack levels used: 1
  8887 ;; Hardware stack levels required when called: 7
  8888 ;; This function calls:
  8889 ;;		Nothing
  8890 ;; This function is called by:
  8891 ;;		_TMR2_Initialize
  8892 ;;		_main
  8893 ;; This function uses a non-reentrant model
  8894 ;;
  8895                           
  8896                           	psect	text60
  8897   003AEC                     __ptext60:
  8898                           	callstack 0
  8899   003AEC                     _TMR2_SetInterruptHandler:
  8900                           	callstack 23
  8901   003AEC                     
  8902                           ;mcc_generated_files/tmr2.c: 179:     TMR2_InterruptHandler = InterruptHandler;
  8903   003AEC  C01A  F040         	movff	TMR2_SetInterruptHandler@InterruptHandler,_TMR2_InterruptHandler
  8904   003AF0  C01B  F041         	movff	TMR2_SetInterruptHandler@InterruptHandler+1,_TMR2_InterruptHandler+1
  8905   003AF4  0012               	return		;funcret
  8906   003AF6                     __end_of_TMR2_SetInterruptHandler:
  8907                           	callstack 0
  8908                           
  8909 ;; *************** function _PMD_Initialize *****************
  8910 ;; Defined at:
  8911 ;;		line 75 in file "mcc_generated_files/mcc.c"
  8912 ;; Parameters:    Size  Location     Type
  8913 ;;		None
  8914 ;; Auto vars:     Size  Location     Type
  8915 ;;		None
  8916 ;; Return value:  Size  Location     Type
  8917 ;;                  1    wreg      void 
  8918 ;; Registers used:
  8919 ;;		wreg, status,2
  8920 ;; Tracked objects:
  8921 ;;		On entry : 0/0
  8922 ;;		On exit  : 0/0
  8923 ;;		Unchanged: 0/0
  8924 ;; Data sizes:     COMRAM   BANK0   BANK1   BANK2   BANK3   BANK4   BANK5   BANK6   BANK7   BANK8   BANK9  BANK10  BANK1
      +1  BANK12  BANK13  BANK14
  8925 ;;      Params:         0       0       0       0       0       0       0       0       0       0       0       0       
      +0       0       0       0
  8926 ;;      Locals:         0       0       0       0       0       0       0       0       0       0       0       0       
      +0       0       0       0
  8927 ;;      Temps:          0       0       0       0       0       0       0       0       0       0       0       0       
      +0       0       0       0
  8928 ;;      Totals:         0       0       0       0       0       0       0       0       0       0       0       0       
      +0       0       0       0
  8929 ;;Total ram usage:        0 bytes
  8930 ;; Hardware stack levels used: 1
  8931 ;; Hardware stack levels required when called: 7
  8932 ;; This function calls:
  8933 ;;		Nothing
  8934 ;; This function is called by:
  8935 ;;		_SYSTEM_Initialize
  8936 ;; This function uses a non-reentrant model
  8937 ;;
  8938                           
  8939                           	psect	text61
  8940   0039A4                     __ptext61:
  8941                           	callstack 0
  8942   0039A4                     _PMD_Initialize:
  8943                           	callstack 22
  8944   0039A4                     
  8945                           ;mcc_generated_files/mcc.c: 78:     PMD0 = 0x00;
  8946   0039A4  0E00               	movlw	0
  8947   0039A6  010E               	movlb	14	; () banked
  8948   0039A8  6FE1               	movwf	225,b	;volatile
  8949                           
  8950                           ;mcc_generated_files/mcc.c: 80:     PMD1 = 0x00;
  8951   0039AA  0E00               	movlw	0
  8952   0039AC  6FE2               	movwf	226,b	;volatile
  8953                           
  8954                           ;mcc_generated_files/mcc.c: 82:     PMD2 = 0x00;
  8955   0039AE  0E00               	movlw	0
  8956   0039B0  6FE3               	movwf	227,b	;volatile
  8957                           
  8958                           ;mcc_generated_files/mcc.c: 84:     PMD3 = 0x00;
  8959   0039B2  0E00               	movlw	0
  8960   0039B4  6FE4               	movwf	228,b	;volatile
  8961                           
  8962                           ;mcc_generated_files/mcc.c: 86:     PMD4 = 0x00;
  8963   0039B6  0E00               	movlw	0
  8964   0039B8  6FE5               	movwf	229,b	;volatile
  8965                           
  8966                           ;mcc_generated_files/mcc.c: 88:     PMD5 = 0x00;
  8967   0039BA  0E00               	movlw	0
  8968   0039BC  6FE6               	movwf	230,b	;volatile
  8969   0039BE                     
  8970                           ; BSR set to: 14
  8971   0039BE  0012               	return		;funcret
  8972   0039C0                     __end_of_PMD_Initialize:
  8973                           	callstack 0
  8974                           
  8975 ;; *************** function _PIN_MANAGER_Initialize *****************
  8976 ;; Defined at:
  8977 ;;		line 57 in file "mcc_generated_files/pin_manager.c"
  8978 ;; Parameters:    Size  Location     Type
  8979 ;;		None
  8980 ;; Auto vars:     Size  Location     Type
  8981 ;;		None
  8982 ;; Return value:  Size  Location     Type
  8983 ;;                  1    wreg      void 
  8984 ;; Registers used:
  8985 ;;		wreg, status,2, status,0, cstack
  8986 ;; Tracked objects:
  8987 ;;		On entry : 0/0
  8988 ;;		On exit  : 0/0
  8989 ;;		Unchanged: 0/0
  8990 ;; Data sizes:     COMRAM   BANK0   BANK1   BANK2   BANK3   BANK4   BANK5   BANK6   BANK7   BANK8   BANK9  BANK10  BANK1
      +1  BANK12  BANK13  BANK14
  8991 ;;      Params:         0       0       0       0       0       0       0       0       0       0       0       0       
      +0       0       0       0
  8992 ;;      Locals:         0       0       0       0       0       0       0       0       0       0       0       0       
      +0       0       0       0
  8993 ;;      Temps:          0       0       0       0       0       0       0       0       0       0       0       0       
      +0       0       0       0
  8994 ;;      Totals:         0       0       0       0       0       0       0       0       0       0       0       0       
      +0       0       0       0
  8995 ;;Total ram usage:        0 bytes
  8996 ;; Hardware stack levels used: 1
  8997 ;; Hardware stack levels required when called: 8
  8998 ;; This function calls:
  8999 ;;		_IOCAF0_SetInterruptHandler
  9000 ;; This function is called by:
  9001 ;;		_SYSTEM_Initialize
  9002 ;; This function uses a non-reentrant model
  9003 ;;
  9004                           
  9005                           	psect	text62
  9006   002F1A                     __ptext62:
  9007                           	callstack 0
  9008   002F1A                     _PIN_MANAGER_Initialize:
  9009                           	callstack 21
  9010   002F1A                     
  9011                           ;mcc_generated_files/pin_manager.c: 62:     LATA = 0x00;
  9012   002F1A  0E00               	movlw	0
  9013   002F1C  6E83               	movwf	131,c	;volatile
  9014                           
  9015                           ;mcc_generated_files/pin_manager.c: 63:     LATB = 0x00;
  9016   002F1E  0E00               	movlw	0
  9017   002F20  6E84               	movwf	132,c	;volatile
  9018                           
  9019                           ;mcc_generated_files/pin_manager.c: 64:     LATC = 0x00;
  9020   002F22  0E00               	movlw	0
  9021   002F24  6E85               	movwf	133,c	;volatile
  9022                           
  9023                           ;mcc_generated_files/pin_manager.c: 69:     TRISA = 0xE7;
  9024   002F26  0EE7               	movlw	231
  9025   002F28  6E88               	movwf	136,c	;volatile
  9026                           
  9027                           ;mcc_generated_files/pin_manager.c: 70:     TRISB = 0xC0;
  9028   002F2A  0EC0               	movlw	192
  9029   002F2C  6E89               	movwf	137,c	;volatile
  9030                           
  9031                           ;mcc_generated_files/pin_manager.c: 71:     TRISC = 0xBF;
  9032   002F2E  0EBF               	movlw	191
  9033   002F30  6E8A               	movwf	138,c	;volatile
  9034                           
  9035                           ;mcc_generated_files/pin_manager.c: 76:     ANSELC = 0x27;
  9036   002F32  0E27               	movlw	39
  9037   002F34  010F               	movlb	15	; () banked
  9038   002F36  6F21               	movwf	33,b	;volatile
  9039                           
  9040                           ;mcc_generated_files/pin_manager.c: 77:     ANSELB = 0xC0;
  9041   002F38  0EC0               	movlw	192
  9042   002F3A  6F19               	movwf	25,b	;volatile
  9043                           
  9044                           ;mcc_generated_files/pin_manager.c: 78:     ANSELA = 0xF8;
  9045   002F3C  0EF8               	movlw	248
  9046   002F3E  6F11               	movwf	17,b	;volatile
  9047                           
  9048                           ;mcc_generated_files/pin_manager.c: 83:     WPUE = 0x00;
  9049   002F40  0E00               	movlw	0
  9050   002F42  6F2D               	movwf	45,b	;volatile
  9051                           
  9052                           ;mcc_generated_files/pin_manager.c: 84:     WPUB = 0x00;
  9053   002F44  0E00               	movlw	0
  9054   002F46  6F18               	movwf	24,b	;volatile
  9055                           
  9056                           ;mcc_generated_files/pin_manager.c: 85:     WPUA = 0x00;
  9057   002F48  0E00               	movlw	0
  9058   002F4A  6F10               	movwf	16,b	;volatile
  9059                           
  9060                           ;mcc_generated_files/pin_manager.c: 86:     WPUC = 0x00;
  9061   002F4C  0E00               	movlw	0
  9062   002F4E  6F20               	movwf	32,b	;volatile
  9063                           
  9064                           ;mcc_generated_files/pin_manager.c: 91:     ODCONA = 0x00;
  9065   002F50  0E00               	movlw	0
  9066   002F52  6F0F               	movwf	15,b	;volatile
  9067                           
  9068                           ;mcc_generated_files/pin_manager.c: 92:     ODCONB = 0x00;
  9069   002F54  0E00               	movlw	0
  9070   002F56  6F17               	movwf	23,b	;volatile
  9071                           
  9072                           ;mcc_generated_files/pin_manager.c: 93:     ODCONC = 0x00;
  9073   002F58  0E00               	movlw	0
  9074   002F5A  6F1F               	movwf	31,b	;volatile
  9075   002F5C                     
  9076                           ; BSR set to: 15
  9077                           ;mcc_generated_files/pin_manager.c: 98:     SLRCONA = 0xFF;
  9078   002F5C  690E               	setf	14,b	;volatile
  9079   002F5E                     
  9080                           ; BSR set to: 15
  9081                           ;mcc_generated_files/pin_manager.c: 99:     SLRCONB = 0xFF;
  9082   002F5E  6916               	setf	22,b	;volatile
  9083   002F60                     
  9084                           ; BSR set to: 15
  9085                           ;mcc_generated_files/pin_manager.c: 100:     SLRCONC = 0xFF;
  9086   002F60  691E               	setf	30,b	;volatile
  9087   002F62                     
  9088                           ; BSR set to: 15
  9089                           ;mcc_generated_files/pin_manager.c: 105:     INLVLA = 0xFF;
  9090   002F62  690D               	setf	13,b	;volatile
  9091   002F64                     
  9092                           ; BSR set to: 15
  9093                           ;mcc_generated_files/pin_manager.c: 106:     INLVLB = 0xFF;
  9094   002F64  6915               	setf	21,b	;volatile
  9095   002F66                     
  9096                           ; BSR set to: 15
  9097                           ;mcc_generated_files/pin_manager.c: 107:     INLVLC = 0xFF;
  9098   002F66  691D               	setf	29,b	;volatile
  9099                           
  9100                           ;mcc_generated_files/pin_manager.c: 108:     INLVLE = 0x08;
  9101   002F68  0E08               	movlw	8
  9102   002F6A  6F2A               	movwf	42,b	;volatile
  9103   002F6C                     
  9104                           ; BSR set to: 15
  9105                           ;mcc_generated_files/pin_manager.c: 115:     IOCAFbits.IOCAF0 = 0;
  9106   002F6C  910A               	bcf	10,0,b	;volatile
  9107   002F6E                     
  9108                           ; BSR set to: 15
  9109                           ;mcc_generated_files/pin_manager.c: 117:     IOCANbits.IOCAN0 = 1;
  9110   002F6E  810B               	bsf	11,0,b	;volatile
  9111   002F70                     
  9112                           ; BSR set to: 15
  9113                           ;mcc_generated_files/pin_manager.c: 119:     IOCAPbits.IOCAP0 = 0;
  9114   002F70  910C               	bcf	12,0,b	;volatile
  9115   002F72                     
  9116                           ; BSR set to: 15
  9117                           ;mcc_generated_files/pin_manager.c: 124:     IOCAF0_SetInterruptHandler(IOCAF0_DefaultIn
      +                          terruptHandler);
  9118   002F72  0E00               	movlw	0
  9119   002F74  6E1A               	movwf	IOCAF0_SetInterruptHandler@InterruptHandler^0,c
  9120   002F76  0E00               	movlw	0
  9121   002F78  6E1B               	movwf	(IOCAF0_SetInterruptHandler@InterruptHandler+1)^0,c
  9122   002F7A  EC7B  F01D         	call	_IOCAF0_SetInterruptHandler	;wreg free
  9123   002F7E                     
  9124                           ;mcc_generated_files/pin_manager.c: 128:     SSP1CLKPPS = 0x13;
  9125   002F7E  0E13               	movlw	19
  9126   002F80  010E               	movlb	14	; () banked
  9127   002F82  6FB7               	movwf	183,b	;volatile
  9128   002F84                     
  9129                           ; BSR set to: 14
  9130                           ;mcc_generated_files/pin_manager.c: 129:     RX1PPS = 0x17;
  9131   002F84  0E17               	movlw	23
  9132   002F86  6FB5               	movwf	181,b	;volatile
  9133   002F88                     
  9134                           ; BSR set to: 14
  9135                           ;mcc_generated_files/pin_manager.c: 130:     RC3PPS = 0x0F;
  9136   002F88  0E0F               	movlw	15
  9137   002F8A  6FFA               	movwf	250,b	;volatile
  9138   002F8C                     
  9139                           ; BSR set to: 14
  9140                           ;mcc_generated_files/pin_manager.c: 131:     RC4PPS = 0x10;
  9141   002F8C  0E10               	movlw	16
  9142   002F8E  6FFB               	movwf	251,b	;volatile
  9143   002F90                     
  9144                           ; BSR set to: 14
  9145                           ;mcc_generated_files/pin_manager.c: 132:     RC6PPS = 0x09;
  9146   002F90  0E09               	movlw	9
  9147   002F92  6FFD               	movwf	253,b	;volatile
  9148   002F94                     
  9149                           ; BSR set to: 14
  9150                           ;mcc_generated_files/pin_manager.c: 133:     SSP1DATPPS = 0x14;
  9151   002F94  0E14               	movlw	20
  9152   002F96  6FB8               	movwf	184,b	;volatile
  9153   002F98                     
  9154                           ; BSR set to: 14
  9155   002F98  0012               	return		;funcret
  9156   002F9A                     __end_of_PIN_MANAGER_Initialize:
  9157                           	callstack 0
  9158                           
  9159 ;; *************** function _IOCAF0_SetInterruptHandler *****************
  9160 ;; Defined at:
  9161 ;;		line 163 in file "mcc_generated_files/pin_manager.c"
  9162 ;; Parameters:    Size  Location     Type
  9163 ;;  InterruptHan    2   25[COMRAM] PTR FTN()void 
  9164 ;;		 -> motorTrigger(1), IOCAF0_DefaultInterruptHandler(1), 
  9165 ;; Auto vars:     Size  Location     Type
  9166 ;;		None
  9167 ;; Return value:  Size  Location     Type
  9168 ;;                  1    wreg      void 
  9169 ;; Registers used:
  9170 ;;		wreg, status,2, status,0
  9171 ;; Tracked objects:
  9172 ;;		On entry : 0/0
  9173 ;;		On exit  : 0/0
  9174 ;;		Unchanged: 0/0
  9175 ;; Data sizes:     COMRAM   BANK0   BANK1   BANK2   BANK3   BANK4   BANK5   BANK6   BANK7   BANK8   BANK9  BANK10  BANK1
      +1  BANK12  BANK13  BANK14
  9176 ;;      Params:         2       0       0       0       0       0       0       0       0       0       0       0       
      +0       0       0       0
  9177 ;;      Locals:         0       0       0       0       0       0       0       0       0       0       0       0       
      +0       0       0       0
  9178 ;;      Temps:          0       0       0       0       0       0       0       0       0       0       0       0       
      +0       0       0       0
  9179 ;;      Totals:         2       0       0       0       0       0       0       0       0       0       0       0       
      +0       0       0       0
  9180 ;;Total ram usage:        2 bytes
  9181 ;; Hardware stack levels used: 1
  9182 ;; Hardware stack levels required when called: 7
  9183 ;; This function calls:
  9184 ;;		Nothing
  9185 ;; This function is called by:
  9186 ;;		_PIN_MANAGER_Initialize
  9187 ;;		_main
  9188 ;; This function uses a non-reentrant model
  9189 ;;
  9190                           
  9191                           	psect	text63
  9192   003AF6                     __ptext63:
  9193                           	callstack 0
  9194   003AF6                     _IOCAF0_SetInterruptHandler:
  9195                           	callstack 21
  9196   003AF6                     
  9197                           ;mcc_generated_files/pin_manager.c: 164:     IOCAF0_InterruptHandler = InterruptHandler;
  9198   003AF6  C01A  F044         	movff	IOCAF0_SetInterruptHandler@InterruptHandler,_IOCAF0_InterruptHandler
  9199   003AFA  C01B  F045         	movff	IOCAF0_SetInterruptHandler@InterruptHandler+1,_IOCAF0_InterruptHandler+1
  9200   003AFE  0012               	return		;funcret
  9201   003B00                     __end_of_IOCAF0_SetInterruptHandler:
  9202                           	callstack 0
  9203                           
  9204 ;; *************** function _OSCILLATOR_Initialize *****************
  9205 ;; Defined at:
  9206 ;;		line 61 in file "mcc_generated_files/mcc.c"
  9207 ;; Parameters:    Size  Location     Type
  9208 ;;		None
  9209 ;; Auto vars:     Size  Location     Type
  9210 ;;		None
  9211 ;; Return value:  Size  Location     Type
  9212 ;;                  1    wreg      void 
  9213 ;; Registers used:
  9214 ;;		wreg, status,2
  9215 ;; Tracked objects:
  9216 ;;		On entry : 0/0
  9217 ;;		On exit  : 0/0
  9218 ;;		Unchanged: 0/0
  9219 ;; Data sizes:     COMRAM   BANK0   BANK1   BANK2   BANK3   BANK4   BANK5   BANK6   BANK7   BANK8   BANK9  BANK10  BANK1
      +1  BANK12  BANK13  BANK14
  9220 ;;      Params:         0       0       0       0       0       0       0       0       0       0       0       0       
      +0       0       0       0
  9221 ;;      Locals:         0       0       0       0       0       0       0       0       0       0       0       0       
      +0       0       0       0
  9222 ;;      Temps:          0       0       0       0       0       0       0       0       0       0       0       0       
      +0       0       0       0
  9223 ;;      Totals:         0       0       0       0       0       0       0       0       0       0       0       0       
      +0       0       0       0
  9224 ;;Total ram usage:        0 bytes
  9225 ;; Hardware stack levels used: 1
  9226 ;; Hardware stack levels required when called: 7
  9227 ;; This function calls:
  9228 ;;		Nothing
  9229 ;; This function is called by:
  9230 ;;		_SYSTEM_Initialize
  9231 ;; This function uses a non-reentrant model
  9232 ;;
  9233                           
  9234                           	psect	text64
  9235   003A08                     __ptext64:
  9236                           	callstack 0
  9237   003A08                     _OSCILLATOR_Initialize:
  9238                           	callstack 22
  9239   003A08                     
  9240                           ;mcc_generated_files/mcc.c: 64:     OSCCON1 = 0x60;
  9241   003A08  0E60               	movlw	96
  9242   003A0A  010E               	movlb	14	; () banked
  9243   003A0C  6FD8               	movwf	216,b	;volatile
  9244                           
  9245                           ;mcc_generated_files/mcc.c: 66:     OSCCON3 = 0x00;
  9246   003A0E  0E00               	movlw	0
  9247   003A10  6FDA               	movwf	218,b	;volatile
  9248                           
  9249                           ;mcc_generated_files/mcc.c: 68:     OSCEN = 0x00;
  9250   003A12  0E00               	movlw	0
  9251   003A14  6FDC               	movwf	220,b	;volatile
  9252                           
  9253                           ;mcc_generated_files/mcc.c: 70:     OSCFRQ = 0x05;
  9254   003A16  0E05               	movlw	5
  9255   003A18  6FDE               	movwf	222,b	;volatile
  9256                           
  9257                           ;mcc_generated_files/mcc.c: 72:     OSCTUNE = 0x00;
  9258   003A1A  0E00               	movlw	0
  9259   003A1C  6FDD               	movwf	221,b	;volatile
  9260   003A1E                     
  9261                           ; BSR set to: 14
  9262   003A1E  0012               	return		;funcret
  9263   003A20                     __end_of_OSCILLATOR_Initialize:
  9264                           	callstack 0
  9265                           
  9266 ;; *************** function _INTERRUPT_Initialize *****************
  9267 ;; Defined at:
  9268 ;;		line 52 in file "mcc_generated_files/interrupt_manager.c"
  9269 ;; Parameters:    Size  Location     Type
  9270 ;;		None
  9271 ;; Auto vars:     Size  Location     Type
  9272 ;;		None
  9273 ;; Return value:  Size  Location     Type
  9274 ;;                  1    wreg      void 
  9275 ;; Registers used:
  9276 ;;		None
  9277 ;; Tracked objects:
  9278 ;;		On entry : 0/0
  9279 ;;		On exit  : 0/0
  9280 ;;		Unchanged: 0/0
  9281 ;; Data sizes:     COMRAM   BANK0   BANK1   BANK2   BANK3   BANK4   BANK5   BANK6   BANK7   BANK8   BANK9  BANK10  BANK1
      +1  BANK12  BANK13  BANK14
  9282 ;;      Params:         0       0       0       0       0       0       0       0       0       0       0       0       
      +0       0       0       0
  9283 ;;      Locals:         0       0       0       0       0       0       0       0       0       0       0       0       
      +0       0       0       0
  9284 ;;      Temps:          0       0       0       0       0       0       0       0       0       0       0       0       
      +0       0       0       0
  9285 ;;      Totals:         0       0       0       0       0       0       0       0       0       0       0       0       
      +0       0       0       0
  9286 ;;Total ram usage:        0 bytes
  9287 ;; Hardware stack levels used: 1
  9288 ;; Hardware stack levels required when called: 7
  9289 ;; This function calls:
  9290 ;;		Nothing
  9291 ;; This function is called by:
  9292 ;;		_SYSTEM_Initialize
  9293 ;; This function uses a non-reentrant model
  9294 ;;
  9295                           
  9296                           	psect	text65
  9297   003BB6                     __ptext65:
  9298                           	callstack 0
  9299   003BB6                     _INTERRUPT_Initialize:
  9300                           	callstack 22
  9301   003BB6                     
  9302                           ;mcc_generated_files/interrupt_manager.c: 55:     INTCONbits.IPEN = 0;
  9303   003BB6  9AF2               	bcf	242,5,c	;volatile
  9304   003BB8  0012               	return		;funcret
  9305   003BBA                     __end_of_INTERRUPT_Initialize:
  9306                           	callstack 0
  9307                           
  9308 ;; *************** function _I2C1_Initialize *****************
  9309 ;; Defined at:
  9310 ;;		line 167 in file "mcc_generated_files/i2c1_master.c"
  9311 ;; Parameters:    Size  Location     Type
  9312 ;;		None
  9313 ;; Auto vars:     Size  Location     Type
  9314 ;;		None
  9315 ;; Return value:  Size  Location     Type
  9316 ;;                  1    wreg      void 
  9317 ;; Registers used:
  9318 ;;		wreg, status,2
  9319 ;; Tracked objects:
  9320 ;;		On entry : 0/0
  9321 ;;		On exit  : 0/0
  9322 ;;		Unchanged: 0/0
  9323 ;; Data sizes:     COMRAM   BANK0   BANK1   BANK2   BANK3   BANK4   BANK5   BANK6   BANK7   BANK8   BANK9  BANK10  BANK1
      +1  BANK12  BANK13  BANK14
  9324 ;;      Params:         0       0       0       0       0       0       0       0       0       0       0       0       
      +0       0       0       0
  9325 ;;      Locals:         0       0       0       0       0       0       0       0       0       0       0       0       
      +0       0       0       0
  9326 ;;      Temps:          0       0       0       0       0       0       0       0       0       0       0       0       
      +0       0       0       0
  9327 ;;      Totals:         0       0       0       0       0       0       0       0       0       0       0       0       
      +0       0       0       0
  9328 ;;Total ram usage:        0 bytes
  9329 ;; Hardware stack levels used: 1
  9330 ;; Hardware stack levels required when called: 7
  9331 ;; This function calls:
  9332 ;;		Nothing
  9333 ;; This function is called by:
  9334 ;;		_SYSTEM_Initialize
  9335 ;; This function uses a non-reentrant model
  9336 ;;
  9337                           
  9338                           	psect	text66
  9339   003A4E                     __ptext66:
  9340                           	callstack 0
  9341   003A4E                     _I2C1_Initialize:
  9342                           	callstack 22
  9343   003A4E                     
  9344                           ;mcc_generated_files/i2c1_master.c: 169:     SSP1STAT = 0x00;
  9345   003A4E  0E00               	movlw	0
  9346   003A50  6E95               	movwf	149,c	;volatile
  9347                           
  9348                           ;mcc_generated_files/i2c1_master.c: 170:     SSP1CON1 = 0x08;
  9349   003A52  0E08               	movlw	8
  9350   003A54  6E96               	movwf	150,c	;volatile
  9351                           
  9352                           ;mcc_generated_files/i2c1_master.c: 171:     SSP1CON2 = 0x00;
  9353   003A56  0E00               	movlw	0
  9354   003A58  6E97               	movwf	151,c	;volatile
  9355                           
  9356                           ;mcc_generated_files/i2c1_master.c: 172:     SSP1ADD = 0x27;
  9357   003A5A  0E27               	movlw	39
  9358   003A5C  6E93               	movwf	147,c	;volatile
  9359   003A5E                     
  9360                           ;mcc_generated_files/i2c1_master.c: 173:     SSP1CON1bits.SSPEN = 0;
  9361   003A5E  9A96               	bcf	150,5,c	;volatile
  9362   003A60  0012               	return		;funcret
  9363   003A62                     __end_of_I2C1_Initialize:
  9364                           	callstack 0
  9365                           
  9366 ;; *************** function _EUSART1_Initialize *****************
  9367 ;; Defined at:
  9368 ;;		line 66 in file "mcc_generated_files/eusart1.c"
  9369 ;; Parameters:    Size  Location     Type
  9370 ;;		None
  9371 ;; Auto vars:     Size  Location     Type
  9372 ;;		None
  9373 ;; Return value:  Size  Location     Type
  9374 ;;                  1    wreg      void 
  9375 ;; Registers used:
  9376 ;;		wreg, status,2, status,0, cstack
  9377 ;; Tracked objects:
  9378 ;;		On entry : 0/0
  9379 ;;		On exit  : 0/0
  9380 ;;		Unchanged: 0/0
  9381 ;; Data sizes:     COMRAM   BANK0   BANK1   BANK2   BANK3   BANK4   BANK5   BANK6   BANK7   BANK8   BANK9  BANK10  BANK1
      +1  BANK12  BANK13  BANK14
  9382 ;;      Params:         0       0       0       0       0       0       0       0       0       0       0       0       
      +0       0       0       0
  9383 ;;      Locals:         0       0       0       0       0       0       0       0       0       0       0       0       
      +0       0       0       0
  9384 ;;      Temps:          0       0       0       0       0       0       0       0       0       0       0       0       
      +0       0       0       0
  9385 ;;      Totals:         0       0       0       0       0       0       0       0       0       0       0       0       
      +0       0       0       0
  9386 ;;Total ram usage:        0 bytes
  9387 ;; Hardware stack levels used: 1
  9388 ;; Hardware stack levels required when called: 8
  9389 ;; This function calls:
  9390 ;;		_EUSART1_SetErrorHandler
  9391 ;;		_EUSART1_SetFramingErrorHandler
  9392 ;;		_EUSART1_SetOverrunErrorHandler
  9393 ;; This function is called by:
  9394 ;;		_SYSTEM_Initialize
  9395 ;; This function uses a non-reentrant model
  9396 ;;
  9397                           
  9398                           	psect	text67
  9399   0035FE                     __ptext67:
  9400                           	callstack 0
  9401   0035FE                     _EUSART1_Initialize:
  9402                           	callstack 21
  9403   0035FE                     
  9404                           ;mcc_generated_files/eusart1.c: 71:     BAUD1CON = 0x08;
  9405   0035FE  0E08               	movlw	8
  9406   003600  6E9F               	movwf	159,c	;volatile
  9407                           
  9408                           ;mcc_generated_files/eusart1.c: 74:     RC1STA = 0x90;
  9409   003602  0E90               	movlw	144
  9410   003604  6E9D               	movwf	157,c	;volatile
  9411                           
  9412                           ;mcc_generated_files/eusart1.c: 77:     TX1STA = 0x24;
  9413   003606  0E24               	movlw	36
  9414   003608  6E9E               	movwf	158,c	;volatile
  9415                           
  9416                           ;mcc_generated_files/eusart1.c: 80:     SP1BRGL = 0xA0;
  9417   00360A  0EA0               	movlw	160
  9418   00360C  6E9B               	movwf	155,c	;volatile
  9419                           
  9420                           ;mcc_generated_files/eusart1.c: 83:     SP1BRGH = 0x01;
  9421   00360E  0E01               	movlw	1
  9422   003610  6E9C               	movwf	156,c	;volatile
  9423   003612                     
  9424                           ;mcc_generated_files/eusart1.c: 86:     EUSART1_SetFramingErrorHandler(EUSART1_DefaultFr
      +                          amingErrorHandler);
  9425   003612  0E00               	movlw	0
  9426   003614  6E1A               	movwf	EUSART1_SetFramingErrorHandler@interruptHandler^0,c
  9427   003616  0E00               	movlw	0
  9428   003618  6E1B               	movwf	(EUSART1_SetFramingErrorHandler@interruptHandler+1)^0,c
  9429   00361A  EC85  F01D         	call	_EUSART1_SetFramingErrorHandler	;wreg free
  9430   00361E                     
  9431                           ;mcc_generated_files/eusart1.c: 87:     EUSART1_SetOverrunErrorHandler(EUSART1_DefaultOv
      +                          errunErrorHandler);
  9432   00361E  0E00               	movlw	0
  9433   003620  6E1A               	movwf	EUSART1_SetOverrunErrorHandler@interruptHandler^0,c
  9434   003622  0E00               	movlw	0
  9435   003624  6E1B               	movwf	(EUSART1_SetOverrunErrorHandler@interruptHandler+1)^0,c
  9436   003626  EC80  F01D         	call	_EUSART1_SetOverrunErrorHandler	;wreg free
  9437   00362A                     
  9438                           ;mcc_generated_files/eusart1.c: 88:     EUSART1_SetErrorHandler(EUSART1_DefaultErrorHand
      +                          ler);
  9439   00362A  0E00               	movlw	0
  9440   00362C  6E1A               	movwf	EUSART1_SetErrorHandler@interruptHandler^0,c
  9441   00362E  0E00               	movlw	0
  9442   003630  6E1B               	movwf	(EUSART1_SetErrorHandler@interruptHandler+1)^0,c
  9443   003632  EC8A  F01D         	call	_EUSART1_SetErrorHandler	;wreg free
  9444   003636                     
  9445                           ;mcc_generated_files/eusart1.c: 90:     eusart1RxLastError.status = 0;
  9446   003636  0E00               	movlw	0
  9447   003638  6E3F               	movwf	_eusart1RxLastError^0,c	;volatile
  9448   00363A  0012               	return		;funcret
  9449   00363C                     __end_of_EUSART1_Initialize:
  9450                           	callstack 0
  9451                           
  9452 ;; *************** function _EUSART1_SetOverrunErrorHandler *****************
  9453 ;; Defined at:
  9454 ;;		line 170 in file "mcc_generated_files/eusart1.c"
  9455 ;; Parameters:    Size  Location     Type
  9456 ;;  interruptHan    2   25[COMRAM] PTR FTN()void 
  9457 ;;		 -> EUSART1_DefaultOverrunErrorHandler(1), 
  9458 ;; Auto vars:     Size  Location     Type
  9459 ;;		None
  9460 ;; Return value:  Size  Location     Type
  9461 ;;                  1    wreg      void 
  9462 ;; Registers used:
  9463 ;;		wreg, status,2, status,0
  9464 ;; Tracked objects:
  9465 ;;		On entry : 0/0
  9466 ;;		On exit  : 0/0
  9467 ;;		Unchanged: 0/0
  9468 ;; Data sizes:     COMRAM   BANK0   BANK1   BANK2   BANK3   BANK4   BANK5   BANK6   BANK7   BANK8   BANK9  BANK10  BANK1
      +1  BANK12  BANK13  BANK14
  9469 ;;      Params:         2       0       0       0       0       0       0       0       0       0       0       0       
      +0       0       0       0
  9470 ;;      Locals:         0       0       0       0       0       0       0       0       0       0       0       0       
      +0       0       0       0
  9471 ;;      Temps:          0       0       0       0       0       0       0       0       0       0       0       0       
      +0       0       0       0
  9472 ;;      Totals:         2       0       0       0       0       0       0       0       0       0       0       0       
      +0       0       0       0
  9473 ;;Total ram usage:        2 bytes
  9474 ;; Hardware stack levels used: 1
  9475 ;; Hardware stack levels required when called: 7
  9476 ;; This function calls:
  9477 ;;		Nothing
  9478 ;; This function is called by:
  9479 ;;		_EUSART1_Initialize
  9480 ;; This function uses a non-reentrant model
  9481 ;;
  9482                           
  9483                           	psect	text68
  9484   003B00                     __ptext68:
  9485                           	callstack 0
  9486   003B00                     _EUSART1_SetOverrunErrorHandler:
  9487                           	callstack 21
  9488   003B00                     
  9489                           ;mcc_generated_files/eusart1.c: 171:     EUSART1_OverrunErrorHandler = interruptHandler;
  9490   003B00  C01A  F0FA         	movff	EUSART1_SetOverrunErrorHandler@interruptHandler,_EUSART1_OverrunErrorHandler
  9491   003B04  C01B  F0FB         	movff	EUSART1_SetOverrunErrorHandler@interruptHandler+1,_EUSART1_OverrunErrorHandler+1
  9492   003B08  0012               	return		;funcret
  9493   003B0A                     __end_of_EUSART1_SetOverrunErrorHandler:
  9494                           	callstack 0
  9495                           
  9496 ;; *************** function _EUSART1_SetFramingErrorHandler *****************
  9497 ;; Defined at:
  9498 ;;		line 166 in file "mcc_generated_files/eusart1.c"
  9499 ;; Parameters:    Size  Location     Type
  9500 ;;  interruptHan    2   25[COMRAM] PTR FTN()void 
  9501 ;;		 -> EUSART1_DefaultFramingErrorHandler(1), 
  9502 ;; Auto vars:     Size  Location     Type
  9503 ;;		None
  9504 ;; Return value:  Size  Location     Type
  9505 ;;                  1    wreg      void 
  9506 ;; Registers used:
  9507 ;;		wreg, status,2, status,0
  9508 ;; Tracked objects:
  9509 ;;		On entry : 0/0
  9510 ;;		On exit  : 0/0
  9511 ;;		Unchanged: 0/0
  9512 ;; Data sizes:     COMRAM   BANK0   BANK1   BANK2   BANK3   BANK4   BANK5   BANK6   BANK7   BANK8   BANK9  BANK10  BANK1
      +1  BANK12  BANK13  BANK14
  9513 ;;      Params:         2       0       0       0       0       0       0       0       0       0       0       0       
      +0       0       0       0
  9514 ;;      Locals:         0       0       0       0       0       0       0       0       0       0       0       0       
      +0       0       0       0
  9515 ;;      Temps:          0       0       0       0       0       0       0       0       0       0       0       0       
      +0       0       0       0
  9516 ;;      Totals:         2       0       0       0       0       0       0       0       0       0       0       0       
      +0       0       0       0
  9517 ;;Total ram usage:        2 bytes
  9518 ;; Hardware stack levels used: 1
  9519 ;; Hardware stack levels required when called: 7
  9520 ;; This function calls:
  9521 ;;		Nothing
  9522 ;; This function is called by:
  9523 ;;		_EUSART1_Initialize
  9524 ;; This function uses a non-reentrant model
  9525 ;;
  9526                           
  9527                           	psect	text69
  9528   003B0A                     __ptext69:
  9529                           	callstack 0
  9530   003B0A                     _EUSART1_SetFramingErrorHandler:
  9531                           	callstack 21
  9532   003B0A                     
  9533                           ;mcc_generated_files/eusart1.c: 167:     EUSART1_FramingErrorHandler = interruptHandler;
  9534   003B0A  C01A  F042         	movff	EUSART1_SetFramingErrorHandler@interruptHandler,_EUSART1_FramingErrorHandler
  9535   003B0E  C01B  F043         	movff	EUSART1_SetFramingErrorHandler@interruptHandler+1,_EUSART1_FramingErrorHandler+1
  9536   003B12  0012               	return		;funcret
  9537   003B14                     __end_of_EUSART1_SetFramingErrorHandler:
  9538                           	callstack 0
  9539                           
  9540 ;; *************** function _EUSART1_SetErrorHandler *****************
  9541 ;; Defined at:
  9542 ;;		line 174 in file "mcc_generated_files/eusart1.c"
  9543 ;; Parameters:    Size  Location     Type
  9544 ;;  interruptHan    2   25[COMRAM] PTR FTN()void 
  9545 ;;		 -> EUSART1_DefaultErrorHandler(1), 
  9546 ;; Auto vars:     Size  Location     Type
  9547 ;;		None
  9548 ;; Return value:  Size  Location     Type
  9549 ;;                  1    wreg      void 
  9550 ;; Registers used:
  9551 ;;		wreg, status,2, status,0
  9552 ;; Tracked objects:
  9553 ;;		On entry : 0/0
  9554 ;;		On exit  : 0/0
  9555 ;;		Unchanged: 0/0
  9556 ;; Data sizes:     COMRAM   BANK0   BANK1   BANK2   BANK3   BANK4   BANK5   BANK6   BANK7   BANK8   BANK9  BANK10  BANK1
      +1  BANK12  BANK13  BANK14
  9557 ;;      Params:         2       0       0       0       0       0       0       0       0       0       0       0       
      +0       0       0       0
  9558 ;;      Locals:         0       0       0       0       0       0       0       0       0       0       0       0       
      +0       0       0       0
  9559 ;;      Temps:          0       0       0       0       0       0       0       0       0       0       0       0       
      +0       0       0       0
  9560 ;;      Totals:         2       0       0       0       0       0       0       0       0       0       0       0       
      +0       0       0       0
  9561 ;;Total ram usage:        2 bytes
  9562 ;; Hardware stack levels used: 1
  9563 ;; Hardware stack levels required when called: 7
  9564 ;; This function calls:
  9565 ;;		Nothing
  9566 ;; This function is called by:
  9567 ;;		_EUSART1_Initialize
  9568 ;; This function uses a non-reentrant model
  9569 ;;
  9570                           
  9571                           	psect	text70
  9572   003B14                     __ptext70:
  9573                           	callstack 0
  9574   003B14                     _EUSART1_SetErrorHandler:
  9575                           	callstack 21
  9576   003B14                     
  9577                           ;mcc_generated_files/eusart1.c: 175:     EUSART1_ErrorHandler = interruptHandler;
  9578   003B14  C01A  F0F8         	movff	EUSART1_SetErrorHandler@interruptHandler,_EUSART1_ErrorHandler
  9579   003B18  C01B  F0F9         	movff	EUSART1_SetErrorHandler@interruptHandler+1,_EUSART1_ErrorHandler+1
  9580   003B1C  0012               	return		;funcret
  9581   003B1E                     __end_of_EUSART1_SetErrorHandler:
  9582                           	callstack 0
  9583                           
  9584 ;; *************** function _EUSART1_is_tx_ready *****************
  9585 ;; Defined at:
  9586 ;;		line 94 in file "mcc_generated_files/eusart1.c"
  9587 ;; Parameters:    Size  Location     Type
  9588 ;;		None
  9589 ;; Auto vars:     Size  Location     Type
  9590 ;;		None
  9591 ;; Return value:  Size  Location     Type
  9592 ;;                  1    wreg      _Bool 
  9593 ;; Registers used:
  9594 ;;		wreg, status,2
  9595 ;; Tracked objects:
  9596 ;;		On entry : 0/0
  9597 ;;		On exit  : 0/0
  9598 ;;		Unchanged: 0/0
  9599 ;; Data sizes:     COMRAM   BANK0   BANK1   BANK2   BANK3   BANK4   BANK5   BANK6   BANK7   BANK8   BANK9  BANK10  BANK1
      +1  BANK12  BANK13  BANK14
  9600 ;;      Params:         0       0       0       0       0       0       0       0       0       0       0       0       
      +0       0       0       0
  9601 ;;      Locals:         1       0       0       0       0       0       0       0       0       0       0       0       
      +0       0       0       0
  9602 ;;      Temps:          0       0       0       0       0       0       0       0       0       0       0       0       
      +0       0       0       0
  9603 ;;      Totals:         1       0       0       0       0       0       0       0       0       0       0       0       
      +0       0       0       0
  9604 ;;Total ram usage:        1 bytes
  9605 ;; Hardware stack levels used: 1
  9606 ;; Hardware stack levels required when called: 7
  9607 ;; This function calls:
  9608 ;;		Nothing
  9609 ;; This function is called by:
  9610 ;;		_main
  9611 ;; This function uses a non-reentrant model
  9612 ;;
  9613                           
  9614                           	psect	text71
  9615   003822                     __ptext71:
  9616                           	callstack 0
  9617   003822                     _EUSART1_is_tx_ready:
  9618                           	callstack 23
  9619   003822                     
  9620                           ;mcc_generated_files/eusart1.c: 96:     return (_Bool)(PIR3bits.TX1IF && TX1STAbits.TXEN
      +                          );
  9621   003822  0E00               	movlw	0
  9622   003824  6E1A               	movwf	_EUSART1_is_tx_ready$1627^0,c
  9623   003826  010E               	movlb	14	; () banked
  9624   003828  A9CD               	btfss	205,4,b	;volatile
  9625   00382A  EF19  F01C         	goto	u5431
  9626   00382E  EF1B  F01C         	goto	u5430
  9627   003832                     u5431:
  9628   003832  EF24  F01C         	goto	l654
  9629   003836                     u5430:
  9630   003836                     
  9631                           ; BSR set to: 14
  9632   003836  AA9E               	btfss	158,5,c	;volatile
  9633   003838  EF20  F01C         	goto	u5441
  9634   00383C  EF22  F01C         	goto	u5440
  9635   003840                     u5441:
  9636   003840  EF24  F01C         	goto	l654
  9637   003844                     u5440:
  9638   003844                     
  9639                           ; BSR set to: 14
  9640   003844  0E01               	movlw	1
  9641   003846  6E1A               	movwf	_EUSART1_is_tx_ready$1627^0,c
  9642   003848                     l654:
  9643                           
  9644                           ; BSR set to: 14
  9645   003848  501A               	movf	_EUSART1_is_tx_ready$1627^0,w,c
  9646   00384A                     
  9647                           ; BSR set to: 14
  9648   00384A  0012               	return		;funcret
  9649   00384C                     __end_of_EUSART1_is_tx_ready:
  9650                           	callstack 0
  9651                           
  9652 ;; *************** function _INTERRUPT_InterruptManager *****************
  9653 ;; Defined at:
  9654 ;;		line 58 in file "mcc_generated_files/interrupt_manager.c"
  9655 ;; Parameters:    Size  Location     Type
  9656 ;;		None
  9657 ;; Auto vars:     Size  Location     Type
  9658 ;;		None
  9659 ;; Return value:  Size  Location     Type
  9660 ;;                  1    wreg      void 
  9661 ;; Registers used:
  9662 ;;		wreg, fsr2l, fsr2h, status,2, status,0, pcl, pclath, pclatu, tosl, tblptrl, tblptrh, tblptru, prodl, prodh, cstack
  9663 ;; Tracked objects:
  9664 ;;		On entry : 0/0
  9665 ;;		On exit  : 0/0
  9666 ;;		Unchanged: 0/0
  9667 ;; Data sizes:     COMRAM   BANK0   BANK1   BANK2   BANK3   BANK4   BANK5   BANK6   BANK7   BANK8   BANK9  BANK10  BANK1
      +1  BANK12  BANK13  BANK14
  9668 ;;      Params:         0       0       0       0       0       0       0       0       0       0       0       0       
      +0       0       0       0
  9669 ;;      Locals:         0       0       0       0       0       0       0       0       0       0       0       0       
      +0       0       0       0
  9670 ;;      Temps:         10       0       0       0       0       0       0       0       0       0       0       0       
      +0       0       0       0
  9671 ;;      Totals:        10       0       0       0       0       0       0       0       0       0       0       0       
      +0       0       0       0
  9672 ;;Total ram usage:       10 bytes
  9673 ;; Hardware stack levels used: 1
  9674 ;; Hardware stack levels required when called: 6
  9675 ;; This function calls:
  9676 ;;		Absolute function
  9677 ;;		_I2C1_MasterIsr
  9678 ;;		_TMR2_ISR
  9679 ;; This function is called by:
  9680 ;;		Interrupt level 2
  9681 ;; This function uses a non-reentrant model
  9682 ;;
  9683                           
  9684                           	psect	intcode
  9685   000008                     __pintcode:
  9686                           	callstack 0
  9687   000008                     _INTERRUPT_InterruptManager:
  9688                           	callstack 15
  9689                           
  9690                           ; BSR set to: 14
  9691                           ;incstack = 0
  9692   000008  8246               	bsf	int$flags,1,c	;set compiler interrupt flag (level 2)
  9693   00000A  CFFA F010          	movff	pclath,??_INTERRUPT_InterruptManager
  9694   00000E  CFFB F011          	movff	pclatu,??_INTERRUPT_InterruptManager+1
  9695   000012  CFD9 F012          	movff	fsr2l,??_INTERRUPT_InterruptManager+2
  9696   000016  CFDA F013          	movff	fsr2h,??_INTERRUPT_InterruptManager+3
  9697   00001A  CFF3 F014          	movff	prodl,??_INTERRUPT_InterruptManager+4
  9698   00001E  CFF4 F015          	movff	prodh,??_INTERRUPT_InterruptManager+5
  9699   000022  CFF6 F016          	movff	tblptrl,??_INTERRUPT_InterruptManager+6
  9700   000026  CFF7 F017          	movff	tblptrh,??_INTERRUPT_InterruptManager+7
  9701   00002A  CFF8 F018          	movff	tblptru,??_INTERRUPT_InterruptManager+8
  9702   00002E  CFF5 F019          	movff	tablat,??_INTERRUPT_InterruptManager+9
  9703   000032                     
  9704                           ;mcc_generated_files/interrupt_manager.c: 61:     if(INTCONbits.PEIE == 1)
  9705   000032  ACF2               	btfss	242,6,c	;volatile
  9706   000034  EF1E  F000         	goto	i2u397_41
  9707   000038  EF20  F000         	goto	i2u397_40
  9708   00003C                     i2u397_41:
  9709   00003C  EF5F  F000         	goto	i2l607
  9710   000040                     i2u397_40:
  9711   000040                     
  9712                           ;mcc_generated_files/interrupt_manager.c: 62:     {;mcc_generated_files/interrupt_manage
      +                          r.c: 63:         if(PIE4bits.TMR2IE == 1 && PIR4bits.TMR2IF == 1)
  9713   000040  010E               	movlb	14	; () banked
  9714   000042  A3C6               	btfss	198,1,b	;volatile
  9715   000044  EF26  F000         	goto	i2u398_41
  9716   000048  EF28  F000         	goto	i2u398_40
  9717   00004C                     i2u398_41:
  9718   00004C  EF33  F000         	goto	i2l600
  9719   000050                     i2u398_40:
  9720   000050                     
  9721                           ; BSR set to: 14
  9722   000050  A3CE               	btfss	206,1,b	;volatile
  9723   000052  EF2D  F000         	goto	i2u399_41
  9724   000056  EF2F  F000         	goto	i2u399_40
  9725   00005A                     i2u399_41:
  9726   00005A  EF33  F000         	goto	i2l600
  9727   00005E                     i2u399_40:
  9728   00005E                     
  9729                           ; BSR set to: 14
  9730                           ;mcc_generated_files/interrupt_manager.c: 64:         {;mcc_generated_files/interrupt_ma
      +                          nager.c: 65:             TMR2_ISR();
  9731   00005E  EC1E  F01B         	call	_TMR2_ISR	;wreg free
  9732                           
  9733                           ;mcc_generated_files/interrupt_manager.c: 66:         }
  9734   000062  EF5F  F000         	goto	i2l607
  9735   000066                     i2l600:
  9736                           
  9737                           ; BSR set to: 14
  9738   000066  A1C5               	btfss	197,0,b	;volatile
  9739   000068  EF38  F000         	goto	i2u400_41
  9740   00006C  EF3A  F000         	goto	i2u400_40
  9741   000070                     i2u400_41:
  9742   000070  EF4F  F000         	goto	i2l602
  9743   000074                     i2u400_40:
  9744   000074                     
  9745                           ; BSR set to: 14
  9746   000074  A1CD               	btfss	205,0,b	;volatile
  9747   000076  EF3F  F000         	goto	i2u401_41
  9748   00007A  EF41  F000         	goto	i2u401_40
  9749   00007E                     i2u401_41:
  9750   00007E  EF4F  F000         	goto	i2l602
  9751   000082                     i2u401_40:
  9752   000082                     i2l5362:
  9753                           
  9754                           ; BSR set to: 14
  9755                           ;mcc_generated_files/interrupt_manager.c: 68:         {;mcc_generated_files/interrupt_ma
      +                          nager.c: 69:             MSSP1_InterruptHandler();
  9756   000082  D802               	call	i2u402_48
  9757   000084  EF4D  F000         	goto	i2u402_49
  9758   000088                     i2u402_48:
  9759   000088  0005               	push	
  9760   00008A  6EFA               	movwf	pclath,c
  9761   00008C  503B               	movf	_MSSP1_InterruptHandler^0,w,c
  9762   00008E  6EFD               	movwf	tosl,c
  9763   000090  503C               	movf	(_MSSP1_InterruptHandler+1)^0,w,c
  9764   000092  6EFE               	movwf	tosh,c
  9765   000094  6AFF               	clrf	tosu,c
  9766   000096  50FA               	movf	pclath,w,c
  9767   000098  0012               	return		;indir
  9768   00009A                     i2u402_49:
  9769                           
  9770                           ;mcc_generated_files/interrupt_manager.c: 70:         }
  9771   00009A  EF5F  F000         	goto	i2l607
  9772   00009E                     i2l602:
  9773                           
  9774                           ; BSR set to: 14
  9775   00009E  A3C5               	btfss	197,1,b	;volatile
  9776   0000A0  EF54  F000         	goto	i2u403_41
  9777   0000A4  EF56  F000         	goto	i2u403_40
  9778   0000A8                     i2u403_41:
  9779   0000A8  EF5F  F000         	goto	i2l601
  9780   0000AC                     i2u403_40:
  9781   0000AC                     
  9782                           ; BSR set to: 14
  9783   0000AC  A3CD               	btfss	205,1,b	;volatile
  9784   0000AE  EF5B  F000         	goto	i2u404_41
  9785   0000B2  EF5D  F000         	goto	i2u404_40
  9786   0000B6                     i2u404_41:
  9787   0000B6  EF5F  F000         	goto	i2l601
  9788   0000BA                     i2u404_40:
  9789   0000BA  EF41  F000         	goto	i2l5362
  9790   0000BE                     i2l601:
  9791   0000BE                     i2l607:
  9792   0000BE  C019  FFF5         	movff	??_INTERRUPT_InterruptManager+9,tablat
  9793   0000C2  C018  FFF8         	movff	??_INTERRUPT_InterruptManager+8,tblptru
  9794   0000C6  C017  FFF7         	movff	??_INTERRUPT_InterruptManager+7,tblptrh
  9795   0000CA  C016  FFF6         	movff	??_INTERRUPT_InterruptManager+6,tblptrl
  9796   0000CE  C015  FFF4         	movff	??_INTERRUPT_InterruptManager+5,prodh
  9797   0000D2  C014  FFF3         	movff	??_INTERRUPT_InterruptManager+4,prodl
  9798   0000D6  C013  FFDA         	movff	??_INTERRUPT_InterruptManager+3,fsr2h
  9799   0000DA  C012  FFD9         	movff	??_INTERRUPT_InterruptManager+2,fsr2l
  9800   0000DE  C011  FFFB         	movff	??_INTERRUPT_InterruptManager+1,pclatu
  9801   0000E2  C010  FFFA         	movff	??_INTERRUPT_InterruptManager,pclath
  9802   0000E6  9246               	bcf	int$flags,1,c	;clear compiler interrupt flag (level 2)
  9803   0000E8  0011               	retfie		f
  9804   0000EA                     __end_of_INTERRUPT_InterruptManager:
  9805                           	callstack 0
  9806                           
  9807 ;; *************** function _TMR2_ISR *****************
  9808 ;; Defined at:
  9809 ;;		line 165 in file "mcc_generated_files/tmr2.c"
  9810 ;; Parameters:    Size  Location     Type
  9811 ;;		None
  9812 ;; Auto vars:     Size  Location     Type
  9813 ;;		None
  9814 ;; Return value:  Size  Location     Type
  9815 ;;                  1    wreg      void 
  9816 ;; Registers used:
  9817 ;;		wreg, status,2, status,0, pcl, pclath, pclatu, tosl, cstack
  9818 ;; Tracked objects:
  9819 ;;		On entry : 0/0
  9820 ;;		On exit  : 0/0
  9821 ;;		Unchanged: 0/0
  9822 ;; Data sizes:     COMRAM   BANK0   BANK1   BANK2   BANK3   BANK4   BANK5   BANK6   BANK7   BANK8   BANK9  BANK10  BANK1
      +1  BANK12  BANK13  BANK14
  9823 ;;      Params:         0       0       0       0       0       0       0       0       0       0       0       0       
      +0       0       0       0
  9824 ;;      Locals:         0       0       0       0       0       0       0       0       0       0       0       0       
      +0       0       0       0
  9825 ;;      Temps:          0       0       0       0       0       0       0       0       0       0       0       0       
      +0       0       0       0
  9826 ;;      Totals:         0       0       0       0       0       0       0       0       0       0       0       0       
      +0       0       0       0
  9827 ;;Total ram usage:        0 bytes
  9828 ;; Hardware stack levels used: 1
  9829 ;; Hardware stack levels required when called: 1
  9830 ;; This function calls:
  9831 ;;		Absolute function
  9832 ;;		_TMR2_DefaultInterruptHandler
  9833 ;;		_timer_callback
  9834 ;; This function is called by:
  9835 ;;		_INTERRUPT_InterruptManager
  9836 ;; This function uses a non-reentrant model
  9837 ;;
  9838                           
  9839                           	psect	text73
  9840   00363C                     __ptext73:
  9841                           	callstack 0
  9842   00363C                     _TMR2_ISR:
  9843                           	callstack 19
  9844   00363C                     
  9845                           ;mcc_generated_files/tmr2.c: 169:     PIR4bits.TMR2IF = 0;
  9846   00363C  010E               	movlb	14	; () banked
  9847   00363E  93CE               	bcf	206,1,b	;volatile
  9848   003640                     
  9849                           ; BSR set to: 14
  9850                           ;mcc_generated_files/tmr2.c: 171:     if(TMR2_InterruptHandler)
  9851   003640  5040               	movf	_TMR2_InterruptHandler^0,w,c
  9852   003642  1041               	iorwf	(_TMR2_InterruptHandler+1)^0,w,c
  9853   003644  B4D8               	btfsc	status,2,c
  9854   003646  EF27  F01B         	goto	i2u333_41
  9855   00364A  EF29  F01B         	goto	i2u333_40
  9856   00364E                     i2u333_41:
  9857   00364E  EF35  F01B         	goto	i2l776
  9858   003652                     i2u333_40:
  9859   003652                     
  9860                           ; BSR set to: 14
  9861                           ;mcc_generated_files/tmr2.c: 172:     {;mcc_generated_files/tmr2.c: 173:         TMR2_In
      +                          terruptHandler();
  9862   003652  D802               	call	i2u334_48
  9863   003654  EF35  F01B         	goto	i2u334_49
  9864   003658                     i2u334_48:
  9865   003658  0005               	push	
  9866   00365A  6EFA               	movwf	pclath,c
  9867   00365C  5040               	movf	_TMR2_InterruptHandler^0,w,c
  9868   00365E  6EFD               	movwf	tosl,c
  9869   003660  5041               	movf	(_TMR2_InterruptHandler+1)^0,w,c
  9870   003662  6EFE               	movwf	tosh,c
  9871   003664  6AFF               	clrf	tosu,c
  9872   003666  50FA               	movf	pclath,w,c
  9873   003668  0012               	return		;indir
  9874   00366A                     i2u334_49:
  9875   00366A                     i2l776:
  9876   00366A  0012               	return		;funcret
  9877   00366C                     __end_of_TMR2_ISR:
  9878                           	callstack 0
  9879                           
  9880 ;; *************** function _TMR2_DefaultInterruptHandler *****************
  9881 ;; Defined at:
  9882 ;;		line 182 in file "mcc_generated_files/tmr2.c"
  9883 ;; Parameters:    Size  Location     Type
  9884 ;;		None
  9885 ;; Auto vars:     Size  Location     Type
  9886 ;;		None
  9887 ;; Return value:  Size  Location     Type
  9888 ;;                  1    wreg      void 
  9889 ;; Registers used:
  9890 ;;		None
  9891 ;; Tracked objects:
  9892 ;;		On entry : 0/0
  9893 ;;		On exit  : 0/0
  9894 ;;		Unchanged: 0/0
  9895 ;; Data sizes:     COMRAM   BANK0   BANK1   BANK2   BANK3   BANK4   BANK5   BANK6   BANK7   BANK8   BANK9  BANK10  BANK1
      +1  BANK12  BANK13  BANK14
  9896 ;;      Params:         0       0       0       0       0       0       0       0       0       0       0       0       
      +0       0       0       0
  9897 ;;      Locals:         0       0       0       0       0       0       0       0       0       0       0       0       
      +0       0       0       0
  9898 ;;      Temps:          0       0       0       0       0       0       0       0       0       0       0       0       
      +0       0       0       0
  9899 ;;      Totals:         0       0       0       0       0       0       0       0       0       0       0       0       
      +0       0       0       0
  9900 ;;Total ram usage:        0 bytes
  9901 ;; Hardware stack levels used: 1
  9902 ;; This function calls:
  9903 ;;		Nothing
  9904 ;; This function is called by:
  9905 ;;		_TMR2_Initialize
  9906 ;;		_TMR2_ISR
  9907 ;; This function uses a non-reentrant model
  9908 ;;
  9909                           
  9910                           	psect	text74
  9911   003BD2                     __ptext74:
  9912                           	callstack 0
  9913   003BD2                     _TMR2_DefaultInterruptHandler:
  9914                           	callstack 19
  9915   003BD2  0012               	return		;funcret
  9916   003BD4                     __end_of_TMR2_DefaultInterruptHandler:
  9917                           	callstack 0
  9918                           
  9919 ;; *************** function _timer_callback *****************
  9920 ;; Defined at:
  9921 ;;		line 44 in file "main.c"
  9922 ;; Parameters:    Size  Location     Type
  9923 ;;		None
  9924 ;; Auto vars:     Size  Location     Type
  9925 ;;		None
  9926 ;; Return value:  Size  Location     Type
  9927 ;;                  1    wreg      void 
  9928 ;; Registers used:
  9929 ;;		wreg, status,2, status,0
  9930 ;; Tracked objects:
  9931 ;;		On entry : 0/0
  9932 ;;		On exit  : 0/0
  9933 ;;		Unchanged: 0/0
  9934 ;; Data sizes:     COMRAM   BANK0   BANK1   BANK2   BANK3   BANK4   BANK5   BANK6   BANK7   BANK8   BANK9  BANK10  BANK1
      +1  BANK12  BANK13  BANK14
  9935 ;;      Params:         0       0       0       0       0       0       0       0       0       0       0       0       
      +0       0       0       0
  9936 ;;      Locals:         0       0       0       0       0       0       0       0       0       0       0       0       
      +0       0       0       0
  9937 ;;      Temps:          0       0       0       0       0       0       0       0       0       0       0       0       
      +0       0       0       0
  9938 ;;      Totals:         0       0       0       0       0       0       0       0       0       0       0       0       
      +0       0       0       0
  9939 ;;Total ram usage:        0 bytes
  9940 ;; Hardware stack levels used: 1
  9941 ;; This function calls:
  9942 ;;		Nothing
  9943 ;; This function is called by:
  9944 ;;		_main
  9945 ;;		_TMR2_ISR
  9946 ;; This function uses a non-reentrant model
  9947 ;;
  9948                           
  9949                           	psect	text75
  9950   00366C                     __ptext75:
  9951                           	callstack 0
  9952   00366C                     _timer_callback:
  9953                           	callstack 19
  9954   00366C                     
  9955                           ;main.c: 45:     timer_us++;
  9956   00366C  4A39               	infsnz	_timer_us^0,f,c
  9957   00366E  2A3A               	incf	(_timer_us+1)^0,f,c
  9958   003670                     
  9959                           ;main.c: 46:     if (timer_us>=1000){
  9960   003670  0EE8               	movlw	232
  9961   003672  5C39               	subwf	_timer_us^0,w,c
  9962   003674  0E03               	movlw	3
  9963   003676  583A               	subwfb	(_timer_us+1)^0,w,c
  9964   003678  A0D8               	btfss	status,0,c
  9965   00367A  EF41  F01B         	goto	i2u276_41
  9966   00367E  EF43  F01B         	goto	i2u276_40
  9967   003682                     i2u276_41:
  9968   003682  EF4C  F01B         	goto	i2l839
  9969   003686                     i2u276_40:
  9970   003686                     
  9971                           ;main.c: 47:         timer_us=timer_us-1000;
  9972   003686  0E18               	movlw	24
  9973   003688  2439               	addwf	_timer_us^0,w,c
  9974   00368A  6E39               	movwf	_timer_us^0,c
  9975   00368C  0EFC               	movlw	252
  9976   00368E  203A               	addwfc	(_timer_us+1)^0,w,c
  9977   003690  6E3A               	movwf	(_timer_us+1)^0,c
  9978   003692                     
  9979                           ;main.c: 48:         timer_ms++;
  9980   003692  0100               	movlb	0	; () banked
  9981   003694  4BD6               	infsnz	_timer_ms& (0+255),f,b
  9982   003696  2BD7               	incf	(_timer_ms+1)& (0+255),f,b
  9983   003698                     i2l839:
  9984   003698  0012               	return		;funcret
  9985   00369A                     __end_of_timer_callback:
  9986                           	callstack 0
  9987                           
  9988 ;; *************** function _I2C1_MasterIsr *****************
  9989 ;; Defined at:
  9990 ;;		line 318 in file "mcc_generated_files/i2c1_master.c"
  9991 ;; Parameters:    Size  Location     Type
  9992 ;;		None
  9993 ;; Auto vars:     Size  Location     Type
  9994 ;;		None
  9995 ;; Return value:  Size  Location     Type
  9996 ;;                  1    wreg      void 
  9997 ;; Registers used:
  9998 ;;		wreg, fsr2l, fsr2h, status,2, status,0, pcl, pclath, pclatu, tosl, tblptrl, tblptrh, tblptru, prodl, prodh, cstack
  9999 ;; Tracked objects:
 10000 ;;		On entry : 0/0
 10001 ;;		On exit  : 0/0
 10002 ;;		Unchanged: 0/0
 10003 ;; Data sizes:     COMRAM   BANK0   BANK1   BANK2   BANK3   BANK4   BANK5   BANK6   BANK7   BANK8   BANK9  BANK10  BANK1
      +1  BANK12  BANK13  BANK14
 10004 ;;      Params:         0       0       0       0       0       0       0       0       0       0       0       0       
      +0       0       0       0
 10005 ;;      Locals:         0       0       0       0       0       0       0       0       0       0       0       0       
      +0       0       0       0
 10006 ;;      Temps:          0       0       0       0       0       0       0       0       0       0       0       0       
      +0       0       0       0
 10007 ;;      Totals:         0       0       0       0       0       0       0       0       0       0       0       0       
      +0       0       0       0
 10008 ;;Total ram usage:        0 bytes
 10009 ;; Hardware stack levels used: 1
 10010 ;; Hardware stack levels required when called: 5
 10011 ;; This function calls:
 10012 ;;		_I2C1_MasterFsm
 10013 ;; This function is called by:
 10014 ;;		_I2C1_Open
 10015 ;;		_INTERRUPT_InterruptManager
 10016 ;; This function uses a non-reentrant model
 10017 ;;
 10018                           
 10019                           	psect	text76
 10020   003B8C                     __ptext76:
 10021                           	callstack 0
 10022   003B8C                     _I2C1_MasterIsr:
 10023                           	callstack 15
 10024   003B8C                     
 10025                           ;mcc_generated_files/i2c1_master.c: 320:     I2C1_MasterFsm();
 10026   003B8C  ECF9  F018         	call	_I2C1_MasterFsm	;wreg free
 10027   003B90  0012               	return		;funcret
 10028   003B92                     __end_of_I2C1_MasterIsr:
 10029                           	callstack 0
 10030                           
 10031 ;; *************** function _I2C1_MasterFsm *****************
 10032 ;; Defined at:
 10033 ;;		line 323 in file "mcc_generated_files/i2c1_master.c"
 10034 ;; Parameters:    Size  Location     Type
 10035 ;;		None
 10036 ;; Auto vars:     Size  Location     Type
 10037 ;;		None
 10038 ;; Return value:  Size  Location     Type
 10039 ;;                  1    wreg      void 
 10040 ;; Registers used:
 10041 ;;		wreg, fsr2l, fsr2h, status,2, status,0, pcl, pclath, pclatu, tosl, tblptrl, tblptrh, tblptru, prodl, prodh, cstack
 10042 ;; Tracked objects:
 10043 ;;		On entry : 0/0
 10044 ;;		On exit  : 0/0
 10045 ;;		Unchanged: 0/0
 10046 ;; Data sizes:     COMRAM   BANK0   BANK1   BANK2   BANK3   BANK4   BANK5   BANK6   BANK7   BANK8   BANK9  BANK10  BANK1
      +1  BANK12  BANK13  BANK14
 10047 ;;      Params:         0       0       0       0       0       0       0       0       0       0       0       0       
      +0       0       0       0
 10048 ;;      Locals:         0       0       0       0       0       0       0       0       0       0       0       0       
      +0       0       0       0
 10049 ;;      Temps:          2       0       0       0       0       0       0       0       0       0       0       0       
      +0       0       0       0
 10050 ;;      Totals:         2       0       0       0       0       0       0       0       0       0       0       0       
      +0       0       0       0
 10051 ;;Total ram usage:        2 bytes
 10052 ;; Hardware stack levels used: 1
 10053 ;; Hardware stack levels required when called: 4
 10054 ;; This function calls:
 10055 ;;		_I2C1_DO_ADDRESS_NACK
 10056 ;;		_I2C1_DO_IDLE
 10057 ;;		_I2C1_DO_RCEN
 10058 ;;		_I2C1_DO_RESET
 10059 ;;		_I2C1_DO_RX
 10060 ;;		_I2C1_DO_RX_ACK
 10061 ;;		_I2C1_DO_RX_NACK_RESTART
 10062 ;;		_I2C1_DO_RX_NACK_STOP
 10063 ;;		_I2C1_DO_SEND_ADR_READ
 10064 ;;		_I2C1_DO_SEND_ADR_WRITE
 10065 ;;		_I2C1_DO_SEND_RESTART
 10066 ;;		_I2C1_DO_SEND_RESTART_READ
 10067 ;;		_I2C1_DO_SEND_RESTART_WRITE
 10068 ;;		_I2C1_DO_SEND_STOP
 10069 ;;		_I2C1_DO_TX
 10070 ;;		_I2C1_DO_TX_EMPTY
 10071 ;;		_I2C1_MasterIsNack
 10072 ;;		i2_I2C1_MasterClearIrq
 10073 ;; This function is called by:
 10074 ;;		_I2C1_MasterIsr
 10075 ;; This function uses a non-reentrant model
 10076 ;;
 10077                           
 10078                           	psect	text77
 10079   0031F2                     __ptext77:
 10080                           	callstack 0
 10081   0031F2                     _I2C1_MasterFsm:
 10082                           	callstack 15
 10083   0031F2                     
 10084                           ;mcc_generated_files/i2c1_master.c: 325:     I2C1_MasterClearIrq();
 10085   0031F2  ECC9  F01D         	call	i2_I2C1_MasterClearIrq	;wreg free
 10086   0031F6                     
 10087                           ;mcc_generated_files/i2c1_master.c: 327:     if(I2C1_Status.addressNackCheck && I2C1_Mas
      +                          terIsNack())
 10088   0031F6  0100               	movlb	0	; () banked
 10089   0031F8  A1D5               	btfss	(_I2C1_Status+35)& (0+255),0,b
 10090   0031FA  EF01  F019         	goto	i2u273_41
 10091   0031FE  EF03  F019         	goto	i2u273_40
 10092   003202                     i2u273_41:
 10093   003202  EF10  F019         	goto	i2l4494
 10094   003206                     i2u273_40:
 10095   003206                     
 10096                           ; BSR set to: 0
 10097   003206  EC31  F01D         	call	_I2C1_MasterIsNack	;wreg free
 10098   00320A  0900               	iorlw	0
 10099   00320C  B4D8               	btfsc	status,2,c
 10100   00320E  EF0B  F019         	goto	i2u274_41
 10101   003212  EF0D  F019         	goto	i2u274_40
 10102   003216                     i2u274_41:
 10103   003216  EF10  F019         	goto	i2l4494
 10104   00321A                     i2u274_40:
 10105   00321A                     
 10106                           ;mcc_generated_files/i2c1_master.c: 328:     {;mcc_generated_files/i2c1_master.c: 329:  
      +                                 I2C1_Status.state = I2C1_ADDRESS_NACK;
 10107   00321A  0E0F               	movlw	15
 10108   00321C  0100               	movlb	0	; () banked
 10109   00321E  6FD3               	movwf	(_I2C1_Status+33)& (0+255),b
 10110   003220                     i2l4494:
 10111                           
 10112                           ;mcc_generated_files/i2c1_master.c: 331:     I2C1_Status.state = i2c1_fsmStateTable[I2C1
      +                          _Status.state]();
 10113   003220  0100               	movlb	0	; () banked
 10114   003222  51D3               	movf	(_I2C1_Status+33)& (0+255),w,b
 10115   003224  0D02               	mullw	2
 10116   003226  0E01               	movlw	low _i2c1_fsmStateTable
 10117   003228  24F3               	addwf	243,w,c
 10118   00322A  6EF6               	movwf	tblptrl,c
 10119   00322C  0E0F               	movlw	high _i2c1_fsmStateTable
 10120   00322E  20F4               	addwfc	244,w,c
 10121   003230  6EF7               	movwf	tblptrh,c
 10122   003232                     	if	1	;There are 3 active tblptr bytes
 10123   003232  6AF8               	clrf	tblptru,c
 10124   003234  0E00               	movlw	low (__mediumconst shr (0+16))
 10125   003236  22F8               	addwfc	tblptru,f,c
 10126   003238                     	endif
 10127   003238  0009               	tblrd		*+
 10128   00323A  CFF5 F00E          	movff	tablat,??_I2C1_MasterFsm
 10129   00323E  0009               	tblrd		*+
 10130   003240  CFF5 F00F          	movff	tablat,??_I2C1_MasterFsm+1
 10131   003244  D802               	call	i2u275_48
 10132   003246  EF2E  F019         	goto	i2u275_49
 10133   00324A                     i2u275_48:
 10134   00324A  0005               	push	
 10135   00324C  6EFA               	movwf	pclath,c
 10136   00324E  500E               	movf	??_I2C1_MasterFsm^0,w,c
 10137   003250  6EFD               	movwf	tosl,c
 10138   003252  500F               	movf	(??_I2C1_MasterFsm+1)^0,w,c
 10139   003254  6EFE               	movwf	tosh,c
 10140   003256  6AFF               	clrf	tosu,c
 10141   003258  50FA               	movf	pclath,w,c
 10142   00325A  0012               	return		;indir
 10143   00325C                     i2u275_49:
 10144   00325C  0100               	movlb	0	; () banked
 10145   00325E  6FD3               	movwf	(_I2C1_Status+33)& (0+255),b
 10146   003260                     
 10147                           ; BSR set to: 0
 10148   003260  0012               	return		;funcret
 10149   003262                     __end_of_I2C1_MasterFsm:
 10150                           	callstack 0
 10151                           
 10152 ;; *************** function i2_I2C1_MasterClearIrq *****************
 10153 ;; Defined at:
 10154 ;;		line 642 in file "mcc_generated_files/i2c1_master.c"
 10155 ;; Parameters:    Size  Location     Type
 10156 ;;		None
 10157 ;; Auto vars:     Size  Location     Type
 10158 ;;		None
 10159 ;; Return value:  Size  Location     Type
 10160 ;;                  1    wreg      void 
 10161 ;; Registers used:
 10162 ;;		None
 10163 ;; Tracked objects:
 10164 ;;		On entry : 0/0
 10165 ;;		On exit  : 0/0
 10166 ;;		Unchanged: 0/0
 10167 ;; Data sizes:     COMRAM   BANK0   BANK1   BANK2   BANK3   BANK4   BANK5   BANK6   BANK7   BANK8   BANK9  BANK10  BANK1
      +1  BANK12  BANK13  BANK14
 10168 ;;      Params:         0       0       0       0       0       0       0       0       0       0       0       0       
      +0       0       0       0
 10169 ;;      Locals:         0       0       0       0       0       0       0       0       0       0       0       0       
      +0       0       0       0
 10170 ;;      Temps:          0       0       0       0       0       0       0       0       0       0       0       0       
      +0       0       0       0
 10171 ;;      Totals:         0       0       0       0       0       0       0       0       0       0       0       0       
      +0       0       0       0
 10172 ;;Total ram usage:        0 bytes
 10173 ;; Hardware stack levels used: 1
 10174 ;; This function calls:
 10175 ;;		Nothing
 10176 ;; This function is called by:
 10177 ;;		_I2C1_MasterFsm
 10178 ;; This function uses a non-reentrant model
 10179 ;;
 10180                           
 10181                           	psect	text78
 10182   003B92                     __ptext78:
 10183                           	callstack 0
 10184   003B92                     i2_I2C1_MasterClearIrq:
 10185                           	callstack 18
 10186   003B92                     
 10187                           ;mcc_generated_files/i2c1_master.c: 644:     PIR3bits.SSP1IF = 0;
 10188   003B92  010E               	movlb	14	; () banked
 10189   003B94  91CD               	bcf	205,0,b	;volatile
 10190   003B96                     
 10191                           ; BSR set to: 14
 10192   003B96  0012               	return		;funcret
 10193   003B98                     __end_ofi2_I2C1_MasterClearIrq:
 10194                           	callstack 0
 10195                           
 10196 ;; *************** function _I2C1_DO_ADDRESS_NACK *****************
 10197 ;; Defined at:
 10198 ;;		line 501 in file "mcc_generated_files/i2c1_master.c"
 10199 ;; Parameters:    Size  Location     Type
 10200 ;;		None
 10201 ;; Auto vars:     Size  Location     Type
 10202 ;;		None
 10203 ;; Return value:  Size  Location     Type
 10204 ;;                  1    wreg      enum E10029
 10205 ;; Registers used:
 10206 ;;		wreg, fsr2l, fsr2h, status,2, status,0, pcl, pclath, pclatu, tosl, prodl, prodh, cstack
 10207 ;; Tracked objects:
 10208 ;;		On entry : 0/0
 10209 ;;		On exit  : 0/0
 10210 ;;		Unchanged: 0/0
 10211 ;; Data sizes:     COMRAM   BANK0   BANK1   BANK2   BANK3   BANK4   BANK5   BANK6   BANK7   BANK8   BANK9  BANK10  BANK1
      +1  BANK12  BANK13  BANK14
 10212 ;;      Params:         0       0       0       0       0       0       0       0       0       0       0       0       
      +0       0       0       0
 10213 ;;      Locals:         0       0       0       0       0       0       0       0       0       0       0       0       
      +0       0       0       0
 10214 ;;      Temps:          2       0       0       0       0       0       0       0       0       0       0       0       
      +0       0       0       0
 10215 ;;      Totals:         2       0       0       0       0       0       0       0       0       0       0       0       
      +0       0       0       0
 10216 ;;Total ram usage:        2 bytes
 10217 ;; Hardware stack levels used: 1
 10218 ;; Hardware stack levels required when called: 3
 10219 ;; This function calls:
 10220 ;;		Absolute function
 10221 ;;		_I2C1_CallbackReturnReset
 10222 ;;		_I2C1_CallbackReturnStop
 10223 ;;		_I2C1_DO_SEND_RESTART
 10224 ;;		_I2C1_DO_SEND_STOP
 10225 ;;		_rd1RegCompleteHandler
 10226 ;;		_rd2RegCompleteHandler
 10227 ;;		_rdBlkRegCompleteHandler
 10228 ;;		_wr1RegCompleteHandler
 10229 ;;		_wr2RegCompleteHandler
 10230 ;; This function is called by:
 10231 ;;		_I2C1_MasterFsm
 10232 ;; This function uses a non-reentrant model
 10233 ;;
 10234                           
 10235                           	psect	text79
 10236   0033A4                     __ptext79:
 10237                           	callstack 0
 10238   0033A4                     _I2C1_DO_ADDRESS_NACK:
 10239                           	callstack 15
 10240   0033A4                     
 10241                           ;mcc_generated_files/i2c1_master.c: 503:     I2C1_Status.addressNackCheck = 0;
 10242   0033A4  0100               	movlb	0	; () banked
 10243   0033A6  91D5               	bcf	(_I2C1_Status+35)& (0+255),0,b
 10244   0033A8                     
 10245                           ; BSR set to: 0
 10246                           ;mcc_generated_files/i2c1_master.c: 504:     I2C1_Status.error = I2C1_FAIL;
 10247   0033A8  0E02               	movlw	2
 10248   0033AA  6FD4               	movwf	(_I2C1_Status+34)& (0+255),b
 10249                           
 10250                           ;mcc_generated_files/i2c1_master.c: 505:     switch(I2C1_Status.callbackTable[I2C1_ADDR_
      +                          NACK](I2C1_Status.callbackPayload[I2C1_ADDR_NACK]))
 10251   0033AC  EFE0  F019         	goto	i2l4338
 10252   0033B0                     i2l4328:
 10253                           
 10254                           ;mcc_generated_files/i2c1_master.c: 509:             return I2C1_DO_SEND_RESTART();
 10255   0033B0  ECA7  F01D         	call	_I2C1_DO_SEND_RESTART	;wreg free
 10256   0033B4  EF04  F01A         	goto	i2l448
 10257   0033B8                     i2l4332:
 10258                           
 10259                           ;mcc_generated_files/i2c1_master.c: 511:             return I2C1_DO_SEND_STOP();
 10260   0033B8  ECA3  F01D         	call	_I2C1_DO_SEND_STOP	;wreg free
 10261   0033BC  EF04  F01A         	goto	i2l448
 10262   0033C0                     i2l4338:
 10263                           
 10264                           ; BSR set to: 0
 10265   0033C0  C0C2  F00A         	movff	_I2C1_Status+16,I2C1_CallbackReturnReset@funPtr
 10266   0033C4  C0C3  F00B         	movff	_I2C1_Status+17,I2C1_CallbackReturnReset@funPtr+1
 10267   0033C8  D802               	call	i2u262_48
 10268   0033CA  EFF0  F019         	goto	i2u262_49
 10269   0033CE                     i2u262_48:
 10270   0033CE  0005               	push	
 10271   0033D0  6EFA               	movwf	pclath,c
 10272   0033D2  51B6               	movf	(_I2C1_Status+4)& (0+255),w,b
 10273   0033D4  6EFD               	movwf	tosl,c
 10274   0033D6  51B7               	movf	(_I2C1_Status+5)& (0+255),w,b
 10275   0033D8  6EFE               	movwf	tosh,c
 10276   0033DA  6AFF               	clrf	tosu,c
 10277   0033DC  50FA               	movf	pclath,w,c
 10278   0033DE  0012               	return		;indir
 10279   0033E0                     i2u262_49:
 10280   0033E0  6E0C               	movwf	??_I2C1_DO_ADDRESS_NACK^0,c
 10281   0033E2  6A0D               	clrf	(??_I2C1_DO_ADDRESS_NACK+1)^0,c
 10282                           
 10283                           ; Switch on 2 bytes has been partitioned into a top level switch of size 1, and 1 sub-sw
      +                          itches
 10284                           ; Switch size 1, requested type "simple"
 10285                           ; Number of cases is 1, Range of values is 0 to 0
 10286                           ; switch strategies available:
 10287                           ; Name         Instructions Cycles
 10288                           ; simple_byte            4     3 (average)
 10289                           ;	Chosen strategy is simple_byte
 10290   0033E4  500D               	movf	(??_I2C1_DO_ADDRESS_NACK+1)^0,w,c
 10291   0033E6  0A00               	xorlw	0	; case 0
 10292   0033E8  B4D8               	btfsc	status,2,c
 10293   0033EA  EFF9  F019         	goto	i2l7002
 10294   0033EE  EFDC  F019         	goto	i2l4332
 10295   0033F2                     i2l7002:
 10296                           
 10297                           ; Switch size 1, requested type "simple"
 10298                           ; Number of cases is 2, Range of values is 2 to 3
 10299                           ; switch strategies available:
 10300                           ; Name         Instructions Cycles
 10301                           ; simple_byte            7     4 (average)
 10302                           ;	Chosen strategy is simple_byte
 10303   0033F2  500C               	movf	??_I2C1_DO_ADDRESS_NACK^0,w,c
 10304   0033F4  0A02               	xorlw	2	; case 2
 10305   0033F6  B4D8               	btfsc	status,2,c
 10306   0033F8  EFD8  F019         	goto	i2l4328
 10307   0033FC  0A01               	xorlw	1	; case 3
 10308   0033FE  B4D8               	btfsc	status,2,c
 10309   003400  EFD8  F019         	goto	i2l4328
 10310   003404  EFDC  F019         	goto	i2l4332
 10311   003408                     i2l448:
 10312   003408  0012               	return		;funcret
 10313   00340A                     __end_of_I2C1_DO_ADDRESS_NACK:
 10314                           	callstack 0
 10315                           
 10316 ;; *************** function _I2C1_DO_RESET *****************
 10317 ;; Defined at:
 10318 ;;		line 495 in file "mcc_generated_files/i2c1_master.c"
 10319 ;; Parameters:    Size  Location     Type
 10320 ;;		None
 10321 ;; Auto vars:     Size  Location     Type
 10322 ;;		None
 10323 ;; Return value:  Size  Location     Type
 10324 ;;                  1    wreg      enum E10029
 10325 ;; Registers used:
 10326 ;;		wreg, status,2
 10327 ;; Tracked objects:
 10328 ;;		On entry : 0/0
 10329 ;;		On exit  : 0/0
 10330 ;;		Unchanged: 0/0
 10331 ;; Data sizes:     COMRAM   BANK0   BANK1   BANK2   BANK3   BANK4   BANK5   BANK6   BANK7   BANK8   BANK9  BANK10  BANK1
      +1  BANK12  BANK13  BANK14
 10332 ;;      Params:         0       0       0       0       0       0       0       0       0       0       0       0       
      +0       0       0       0
 10333 ;;      Locals:         0       0       0       0       0       0       0       0       0       0       0       0       
      +0       0       0       0
 10334 ;;      Temps:          0       0       0       0       0       0       0       0       0       0       0       0       
      +0       0       0       0
 10335 ;;      Totals:         0       0       0       0       0       0       0       0       0       0       0       0       
      +0       0       0       0
 10336 ;;Total ram usage:        0 bytes
 10337 ;; Hardware stack levels used: 1
 10338 ;; This function calls:
 10339 ;;		Nothing
 10340 ;; This function is called by:
 10341 ;;		_I2C1_MasterFsm
 10342 ;; This function uses a non-reentrant model
 10343 ;;
 10344                           
 10345                           	psect	text80
 10346   003AB4                     __ptext80:
 10347                           	callstack 0
 10348   003AB4                     _I2C1_DO_RESET:
 10349                           	callstack 18
 10350   003AB4                     
 10351                           ;mcc_generated_files/i2c1_master.c: 497:     I2C1_Status.busy = 0;
 10352   003AB4  0100               	movlb	0	; () banked
 10353   003AB6  93D5               	bcf	(_I2C1_Status+35)& (0+255),1,b
 10354   003AB8                     
 10355                           ; BSR set to: 0
 10356                           ;mcc_generated_files/i2c1_master.c: 498:     I2C1_Status.error = I2C1_NOERR;
 10357   003AB8  0E00               	movlw	0
 10358   003ABA  6FD4               	movwf	(_I2C1_Status+34)& (0+255),b
 10359   003ABC                     
 10360                           ; BSR set to: 0
 10361                           ;mcc_generated_files/i2c1_master.c: 499:     return I2C1_RESET;
 10362   003ABC  0E0E               	movlw	14
 10363   003ABE                     
 10364                           ; BSR set to: 0
 10365   003ABE  0012               	return		;funcret
 10366   003AC0                     __end_of_I2C1_DO_RESET:
 10367                           	callstack 0
 10368                           
 10369 ;; *************** function _I2C1_DO_RX_NACK_RESTART *****************
 10370 ;; Defined at:
 10371 ;;		line 489 in file "mcc_generated_files/i2c1_master.c"
 10372 ;; Parameters:    Size  Location     Type
 10373 ;;		None
 10374 ;; Auto vars:     Size  Location     Type
 10375 ;;		None
 10376 ;; Return value:  Size  Location     Type
 10377 ;;                  1    wreg      enum E10029
 10378 ;; Registers used:
 10379 ;;		wreg, cstack
 10380 ;; Tracked objects:
 10381 ;;		On entry : 0/0
 10382 ;;		On exit  : 0/0
 10383 ;;		Unchanged: 0/0
 10384 ;; Data sizes:     COMRAM   BANK0   BANK1   BANK2   BANK3   BANK4   BANK5   BANK6   BANK7   BANK8   BANK9  BANK10  BANK1
      +1  BANK12  BANK13  BANK14
 10385 ;;      Params:         0       0       0       0       0       0       0       0       0       0       0       0       
      +0       0       0       0
 10386 ;;      Locals:         0       0       0       0       0       0       0       0       0       0       0       0       
      +0       0       0       0
 10387 ;;      Temps:          0       0       0       0       0       0       0       0       0       0       0       0       
      +0       0       0       0
 10388 ;;      Totals:         0       0       0       0       0       0       0       0       0       0       0       0       
      +0       0       0       0
 10389 ;;Total ram usage:        0 bytes
 10390 ;; Hardware stack levels used: 1
 10391 ;; Hardware stack levels required when called: 1
 10392 ;; This function calls:
 10393 ;;		_I2C1_MasterSendNack
 10394 ;; This function is called by:
 10395 ;;		_I2C1_DO_RX
 10396 ;;		_I2C1_MasterFsm
 10397 ;; This function uses a non-reentrant model
 10398 ;;
 10399                           
 10400                           	psect	text81
 10401   003B2E                     __ptext81:
 10402                           	callstack 0
 10403   003B2E                     _I2C1_DO_RX_NACK_RESTART:
 10404                           	callstack 17
 10405   003B2E                     
 10406                           ;mcc_generated_files/i2c1_master.c: 491:     I2C1_MasterSendNack();
 10407   003B2E  ECD2  F01D         	call	_I2C1_MasterSendNack	;wreg free
 10408   003B32                     
 10409                           ;mcc_generated_files/i2c1_master.c: 492:     return I2C1_SEND_RESTART;
 10410   003B32  0E09               	movlw	9
 10411   003B34  0012               	return		;funcret
 10412   003B36                     __end_of_I2C1_DO_RX_NACK_RESTART:
 10413                           	callstack 0
 10414                           
 10415 ;; *************** function _I2C1_DO_RX_NACK_STOP *****************
 10416 ;; Defined at:
 10417 ;;		line 483 in file "mcc_generated_files/i2c1_master.c"
 10418 ;; Parameters:    Size  Location     Type
 10419 ;;		None
 10420 ;; Auto vars:     Size  Location     Type
 10421 ;;		None
 10422 ;; Return value:  Size  Location     Type
 10423 ;;                  1    wreg      enum E10029
 10424 ;; Registers used:
 10425 ;;		wreg, cstack
 10426 ;; Tracked objects:
 10427 ;;		On entry : 0/0
 10428 ;;		On exit  : 0/0
 10429 ;;		Unchanged: 0/0
 10430 ;; Data sizes:     COMRAM   BANK0   BANK1   BANK2   BANK3   BANK4   BANK5   BANK6   BANK7   BANK8   BANK9  BANK10  BANK1
      +1  BANK12  BANK13  BANK14
 10431 ;;      Params:         0       0       0       0       0       0       0       0       0       0       0       0       
      +0       0       0       0
 10432 ;;      Locals:         0       0       0       0       0       0       0       0       0       0       0       0       
      +0       0       0       0
 10433 ;;      Temps:          0       0       0       0       0       0       0       0       0       0       0       0       
      +0       0       0       0
 10434 ;;      Totals:         0       0       0       0       0       0       0       0       0       0       0       0       
      +0       0       0       0
 10435 ;;Total ram usage:        0 bytes
 10436 ;; Hardware stack levels used: 1
 10437 ;; Hardware stack levels required when called: 1
 10438 ;; This function calls:
 10439 ;;		_I2C1_MasterSendNack
 10440 ;; This function is called by:
 10441 ;;		_I2C1_DO_RX
 10442 ;;		_I2C1_MasterFsm
 10443 ;; This function uses a non-reentrant model
 10444 ;;
 10445                           
 10446                           	psect	text82
 10447   003B36                     __ptext82:
 10448                           	callstack 0
 10449   003B36                     _I2C1_DO_RX_NACK_STOP:
 10450                           	callstack 17
 10451   003B36                     
 10452                           ;mcc_generated_files/i2c1_master.c: 485:     I2C1_MasterSendNack();
 10453   003B36  ECD2  F01D         	call	_I2C1_MasterSendNack	;wreg free
 10454   003B3A                     
 10455                           ;mcc_generated_files/i2c1_master.c: 486:     return I2C1_SEND_STOP;
 10456   003B3A  0E0A               	movlw	10
 10457   003B3C  0012               	return		;funcret
 10458   003B3E                     __end_of_I2C1_DO_RX_NACK_STOP:
 10459                           	callstack 0
 10460                           
 10461 ;; *************** function _I2C1_DO_RX_ACK *****************
 10462 ;; Defined at:
 10463 ;;		line 476 in file "mcc_generated_files/i2c1_master.c"
 10464 ;; Parameters:    Size  Location     Type
 10465 ;;		None
 10466 ;; Auto vars:     Size  Location     Type
 10467 ;;		None
 10468 ;; Return value:  Size  Location     Type
 10469 ;;                  1    wreg      enum E10029
 10470 ;; Registers used:
 10471 ;;		wreg, cstack
 10472 ;; Tracked objects:
 10473 ;;		On entry : 0/0
 10474 ;;		On exit  : 0/0
 10475 ;;		Unchanged: 0/0
 10476 ;; Data sizes:     COMRAM   BANK0   BANK1   BANK2   BANK3   BANK4   BANK5   BANK6   BANK7   BANK8   BANK9  BANK10  BANK1
      +1  BANK12  BANK13  BANK14
 10477 ;;      Params:         0       0       0       0       0       0       0       0       0       0       0       0       
      +0       0       0       0
 10478 ;;      Locals:         0       0       0       0       0       0       0       0       0       0       0       0       
      +0       0       0       0
 10479 ;;      Temps:          0       0       0       0       0       0       0       0       0       0       0       0       
      +0       0       0       0
 10480 ;;      Totals:         0       0       0       0       0       0       0       0       0       0       0       0       
      +0       0       0       0
 10481 ;;Total ram usage:        0 bytes
 10482 ;; Hardware stack levels used: 1
 10483 ;; Hardware stack levels required when called: 1
 10484 ;; This function calls:
 10485 ;;		_I2C1_MasterSendAck
 10486 ;; This function is called by:
 10487 ;;		_I2C1_MasterFsm
 10488 ;; This function uses a non-reentrant model
 10489 ;;
 10490                           
 10491                           	psect	text83
 10492   003B3E                     __ptext83:
 10493                           	callstack 0
 10494   003B3E                     _I2C1_DO_RX_ACK:
 10495                           	callstack 17
 10496   003B3E                     
 10497                           ;mcc_generated_files/i2c1_master.c: 478:     I2C1_MasterSendAck();
 10498   003B3E  ECCF  F01D         	call	_I2C1_MasterSendAck	;wreg free
 10499   003B42                     
 10500                           ;mcc_generated_files/i2c1_master.c: 479:     return I2C1_RCEN;
 10501   003B42  0E05               	movlw	5
 10502   003B44  0012               	return		;funcret
 10503   003B46                     __end_of_I2C1_DO_RX_ACK:
 10504                           	callstack 0
 10505                           
 10506 ;; *************** function _I2C1_DO_SEND_STOP *****************
 10507 ;; Defined at:
 10508 ;;		line 470 in file "mcc_generated_files/i2c1_master.c"
 10509 ;; Parameters:    Size  Location     Type
 10510 ;;		None
 10511 ;; Auto vars:     Size  Location     Type
 10512 ;;		None
 10513 ;; Return value:  Size  Location     Type
 10514 ;;                  1    wreg      enum E10029
 10515 ;; Registers used:
 10516 ;;		wreg, cstack
 10517 ;; Tracked objects:
 10518 ;;		On entry : 0/0
 10519 ;;		On exit  : 0/0
 10520 ;;		Unchanged: 0/0
 10521 ;; Data sizes:     COMRAM   BANK0   BANK1   BANK2   BANK3   BANK4   BANK5   BANK6   BANK7   BANK8   BANK9  BANK10  BANK1
      +1  BANK12  BANK13  BANK14
 10522 ;;      Params:         0       0       0       0       0       0       0       0       0       0       0       0       
      +0       0       0       0
 10523 ;;      Locals:         0       0       0       0       0       0       0       0       0       0       0       0       
      +0       0       0       0
 10524 ;;      Temps:          0       0       0       0       0       0       0       0       0       0       0       0       
      +0       0       0       0
 10525 ;;      Totals:         0       0       0       0       0       0       0       0       0       0       0       0       
      +0       0       0       0
 10526 ;;Total ram usage:        0 bytes
 10527 ;; Hardware stack levels used: 1
 10528 ;; Hardware stack levels required when called: 1
 10529 ;; This function calls:
 10530 ;;		_I2C1_MasterStop
 10531 ;; This function is called by:
 10532 ;;		_I2C1_DO_TX
 10533 ;;		_I2C1_DO_TX_EMPTY
 10534 ;;		_I2C1_DO_ADDRESS_NACK
 10535 ;;		_I2C1_MasterFsm
 10536 ;; This function uses a non-reentrant model
 10537 ;;
 10538                           
 10539                           	psect	text84
 10540   003B46                     __ptext84:
 10541                           	callstack 0
 10542   003B46                     _I2C1_DO_SEND_STOP:
 10543                           	callstack 16
 10544   003B46                     
 10545                           ;mcc_generated_files/i2c1_master.c: 472:     I2C1_MasterStop();
 10546   003B46  ECE5  F01D         	call	_I2C1_MasterStop	;wreg free
 10547   003B4A                     
 10548                           ;mcc_generated_files/i2c1_master.c: 473:     return I2C1_IDLE;
 10549   003B4A  0E00               	movlw	0
 10550   003B4C  0012               	return		;funcret
 10551   003B4E                     __end_of_I2C1_DO_SEND_STOP:
 10552                           	callstack 0
 10553                           
 10554 ;; *************** function _I2C1_DO_SEND_RESTART *****************
 10555 ;; Defined at:
 10556 ;;		line 464 in file "mcc_generated_files/i2c1_master.c"
 10557 ;; Parameters:    Size  Location     Type
 10558 ;;		None
 10559 ;; Auto vars:     Size  Location     Type
 10560 ;;		None
 10561 ;; Return value:  Size  Location     Type
 10562 ;;                  1    wreg      enum E10029
 10563 ;; Registers used:
 10564 ;;		wreg, cstack
 10565 ;; Tracked objects:
 10566 ;;		On entry : 0/0
 10567 ;;		On exit  : 0/0
 10568 ;;		Unchanged: 0/0
 10569 ;; Data sizes:     COMRAM   BANK0   BANK1   BANK2   BANK3   BANK4   BANK5   BANK6   BANK7   BANK8   BANK9  BANK10  BANK1
      +1  BANK12  BANK13  BANK14
 10570 ;;      Params:         0       0       0       0       0       0       0       0       0       0       0       0       
      +0       0       0       0
 10571 ;;      Locals:         0       0       0       0       0       0       0       0       0       0       0       0       
      +0       0       0       0
 10572 ;;      Temps:          0       0       0       0       0       0       0       0       0       0       0       0       
      +0       0       0       0
 10573 ;;      Totals:         0       0       0       0       0       0       0       0       0       0       0       0       
      +0       0       0       0
 10574 ;;Total ram usage:        0 bytes
 10575 ;; Hardware stack levels used: 1
 10576 ;; Hardware stack levels required when called: 1
 10577 ;; This function calls:
 10578 ;;		_I2C1_MasterEnableRestart
 10579 ;; This function is called by:
 10580 ;;		_I2C1_DO_TX_EMPTY
 10581 ;;		_I2C1_DO_ADDRESS_NACK
 10582 ;;		_I2C1_MasterFsm
 10583 ;; This function uses a non-reentrant model
 10584 ;;
 10585                           
 10586                           	psect	text85
 10587   003B4E                     __ptext85:
 10588                           	callstack 0
 10589   003B4E                     _I2C1_DO_SEND_RESTART:
 10590                           	callstack 16
 10591   003B4E                     
 10592                           ;mcc_generated_files/i2c1_master.c: 466:     I2C1_MasterEnableRestart();
 10593   003B4E  ECE7  F01D         	call	_I2C1_MasterEnableRestart	;wreg free
 10594   003B52                     
 10595                           ;mcc_generated_files/i2c1_master.c: 467:     return I2C1_SEND_ADR_READ;
 10596   003B52  0E01               	movlw	1
 10597   003B54  0012               	return		;funcret
 10598   003B56                     __end_of_I2C1_DO_SEND_RESTART:
 10599                           	callstack 0
 10600                           
 10601 ;; *************** function _I2C1_DO_SEND_RESTART_WRITE *****************
 10602 ;; Defined at:
 10603 ;;		line 457 in file "mcc_generated_files/i2c1_master.c"
 10604 ;; Parameters:    Size  Location     Type
 10605 ;;		None
 10606 ;; Auto vars:     Size  Location     Type
 10607 ;;		None
 10608 ;; Return value:  Size  Location     Type
 10609 ;;                  1    wreg      enum E10029
 10610 ;; Registers used:
 10611 ;;		wreg, cstack
 10612 ;; Tracked objects:
 10613 ;;		On entry : 0/0
 10614 ;;		On exit  : 0/0
 10615 ;;		Unchanged: 0/0
 10616 ;; Data sizes:     COMRAM   BANK0   BANK1   BANK2   BANK3   BANK4   BANK5   BANK6   BANK7   BANK8   BANK9  BANK10  BANK1
      +1  BANK12  BANK13  BANK14
 10617 ;;      Params:         0       0       0       0       0       0       0       0       0       0       0       0       
      +0       0       0       0
 10618 ;;      Locals:         0       0       0       0       0       0       0       0       0       0       0       0       
      +0       0       0       0
 10619 ;;      Temps:          0       0       0       0       0       0       0       0       0       0       0       0       
      +0       0       0       0
 10620 ;;      Totals:         0       0       0       0       0       0       0       0       0       0       0       0       
      +0       0       0       0
 10621 ;;Total ram usage:        0 bytes
 10622 ;; Hardware stack levels used: 1
 10623 ;; Hardware stack levels required when called: 1
 10624 ;; This function calls:
 10625 ;;		_I2C1_MasterEnableRestart
 10626 ;; This function is called by:
 10627 ;;		_I2C1_DO_TX
 10628 ;;		_I2C1_MasterFsm
 10629 ;; This function uses a non-reentrant model
 10630 ;;
 10631                           
 10632                           	psect	text86
 10633   003B56                     __ptext86:
 10634                           	callstack 0
 10635   003B56                     _I2C1_DO_SEND_RESTART_WRITE:
 10636                           	callstack 16
 10637   003B56                     
 10638                           ;mcc_generated_files/i2c1_master.c: 459:     I2C1_MasterEnableRestart();
 10639   003B56  ECE7  F01D         	call	_I2C1_MasterEnableRestart	;wreg free
 10640   003B5A                     
 10641                           ;mcc_generated_files/i2c1_master.c: 460:     return I2C1_SEND_ADR_WRITE;
 10642   003B5A  0E02               	movlw	2
 10643   003B5C  0012               	return		;funcret
 10644   003B5E                     __end_of_I2C1_DO_SEND_RESTART_WRITE:
 10645                           	callstack 0
 10646                           
 10647 ;; *************** function _I2C1_DO_SEND_RESTART_READ *****************
 10648 ;; Defined at:
 10649 ;;		line 451 in file "mcc_generated_files/i2c1_master.c"
 10650 ;; Parameters:    Size  Location     Type
 10651 ;;		None
 10652 ;; Auto vars:     Size  Location     Type
 10653 ;;		None
 10654 ;; Return value:  Size  Location     Type
 10655 ;;                  1    wreg      enum E10029
 10656 ;; Registers used:
 10657 ;;		wreg, cstack
 10658 ;; Tracked objects:
 10659 ;;		On entry : 0/0
 10660 ;;		On exit  : 0/0
 10661 ;;		Unchanged: 0/0
 10662 ;; Data sizes:     COMRAM   BANK0   BANK1   BANK2   BANK3   BANK4   BANK5   BANK6   BANK7   BANK8   BANK9  BANK10  BANK1
      +1  BANK12  BANK13  BANK14
 10663 ;;      Params:         0       0       0       0       0       0       0       0       0       0       0       0       
      +0       0       0       0
 10664 ;;      Locals:         0       0       0       0       0       0       0       0       0       0       0       0       
      +0       0       0       0
 10665 ;;      Temps:          0       0       0       0       0       0       0       0       0       0       0       0       
      +0       0       0       0
 10666 ;;      Totals:         0       0       0       0       0       0       0       0       0       0       0       0       
      +0       0       0       0
 10667 ;;Total ram usage:        0 bytes
 10668 ;; Hardware stack levels used: 1
 10669 ;; Hardware stack levels required when called: 1
 10670 ;; This function calls:
 10671 ;;		_I2C1_MasterEnableRestart
 10672 ;; This function is called by:
 10673 ;;		_I2C1_DO_TX
 10674 ;;		_I2C1_MasterFsm
 10675 ;; This function uses a non-reentrant model
 10676 ;;
 10677                           
 10678                           	psect	text87
 10679   003B5E                     __ptext87:
 10680                           	callstack 0
 10681   003B5E                     _I2C1_DO_SEND_RESTART_READ:
 10682                           	callstack 16
 10683   003B5E                     
 10684                           ;mcc_generated_files/i2c1_master.c: 453:     I2C1_MasterEnableRestart();
 10685   003B5E  ECE7  F01D         	call	_I2C1_MasterEnableRestart	;wreg free
 10686   003B62                     
 10687                           ;mcc_generated_files/i2c1_master.c: 454:     return I2C1_SEND_ADR_READ;
 10688   003B62  0E01               	movlw	1
 10689   003B64  0012               	return		;funcret
 10690   003B66                     __end_of_I2C1_DO_SEND_RESTART_READ:
 10691                           	callstack 0
 10692                           
 10693 ;; *************** function _I2C1_DO_RCEN *****************
 10694 ;; Defined at:
 10695 ;;		line 404 in file "mcc_generated_files/i2c1_master.c"
 10696 ;; Parameters:    Size  Location     Type
 10697 ;;		None
 10698 ;; Auto vars:     Size  Location     Type
 10699 ;;		None
 10700 ;; Return value:  Size  Location     Type
 10701 ;;                  1    wreg      enum E10029
 10702 ;; Registers used:
 10703 ;;		wreg, cstack
 10704 ;; Tracked objects:
 10705 ;;		On entry : 0/0
 10706 ;;		On exit  : 0/0
 10707 ;;		Unchanged: 0/0
 10708 ;; Data sizes:     COMRAM   BANK0   BANK1   BANK2   BANK3   BANK4   BANK5   BANK6   BANK7   BANK8   BANK9  BANK10  BANK1
      +1  BANK12  BANK13  BANK14
 10709 ;;      Params:         0       0       0       0       0       0       0       0       0       0       0       0       
      +0       0       0       0
 10710 ;;      Locals:         0       0       0       0       0       0       0       0       0       0       0       0       
      +0       0       0       0
 10711 ;;      Temps:          0       0       0       0       0       0       0       0       0       0       0       0       
      +0       0       0       0
 10712 ;;      Totals:         0       0       0       0       0       0       0       0       0       0       0       0       
      +0       0       0       0
 10713 ;;Total ram usage:        0 bytes
 10714 ;; Hardware stack levels used: 1
 10715 ;; Hardware stack levels required when called: 1
 10716 ;; This function calls:
 10717 ;;		_I2C1_MasterStartRx
 10718 ;; This function is called by:
 10719 ;;		_I2C1_MasterFsm
 10720 ;; This function uses a non-reentrant model
 10721 ;;
 10722                           
 10723                           	psect	text88
 10724   003AC0                     __ptext88:
 10725                           	callstack 0
 10726   003AC0                     _I2C1_DO_RCEN:
 10727                           	callstack 17
 10728   003AC0                     
 10729                           ;mcc_generated_files/i2c1_master.c: 406:     I2C1_Status.addressNackCheck = 0;
 10730   003AC0  0100               	movlb	0	; () banked
 10731   003AC2  91D5               	bcf	(_I2C1_Status+35)& (0+255),0,b
 10732   003AC4                     
 10733                           ; BSR set to: 0
 10734                           ;mcc_generated_files/i2c1_master.c: 407:     I2C1_MasterStartRx();
 10735   003AC4  ECDF  F01D         	call	_I2C1_MasterStartRx	;wreg free
 10736   003AC8                     
 10737                           ;mcc_generated_files/i2c1_master.c: 408:     return I2C1_RX;
 10738   003AC8  0E04               	movlw	4
 10739   003ACA  0012               	return		;funcret
 10740   003ACC                     __end_of_I2C1_DO_RCEN:
 10741                           	callstack 0
 10742                           
 10743 ;; *************** function _I2C1_DO_RX *****************
 10744 ;; Defined at:
 10745 ;;		line 380 in file "mcc_generated_files/i2c1_master.c"
 10746 ;; Parameters:    Size  Location     Type
 10747 ;;		None
 10748 ;; Auto vars:     Size  Location     Type
 10749 ;;		None
 10750 ;; Return value:  Size  Location     Type
 10751 ;;                  1    wreg      enum E10029
 10752 ;; Registers used:
 10753 ;;		wreg, fsr2l, fsr2h, status,2, status,0, pcl, pclath, pclatu, tosl, prodl, prodh, cstack
 10754 ;; Tracked objects:
 10755 ;;		On entry : 0/0
 10756 ;;		On exit  : 0/0
 10757 ;;		Unchanged: 0/0
 10758 ;; Data sizes:     COMRAM   BANK0   BANK1   BANK2   BANK3   BANK4   BANK5   BANK6   BANK7   BANK8   BANK9  BANK10  BANK1
      +1  BANK12  BANK13  BANK14
 10759 ;;      Params:         0       0       0       0       0       0       0       0       0       0       0       0       
      +0       0       0       0
 10760 ;;      Locals:         0       0       0       0       0       0       0       0       0       0       0       0       
      +0       0       0       0
 10761 ;;      Temps:          2       0       0       0       0       0       0       0       0       0       0       0       
      +0       0       0       0
 10762 ;;      Totals:         2       0       0       0       0       0       0       0       0       0       0       0       
      +0       0       0       0
 10763 ;;Total ram usage:        2 bytes
 10764 ;; Hardware stack levels used: 1
 10765 ;; Hardware stack levels required when called: 3
 10766 ;; This function calls:
 10767 ;;		Absolute function
 10768 ;;		_I2C1_CallbackReturnReset
 10769 ;;		_I2C1_CallbackReturnStop
 10770 ;;		_I2C1_DO_RX_NACK_RESTART
 10771 ;;		_I2C1_DO_RX_NACK_STOP
 10772 ;;		_I2C1_MasterGetRxData
 10773 ;;		_I2C1_MasterSendAck
 10774 ;;		_rd1RegCompleteHandler
 10775 ;;		_rd2RegCompleteHandler
 10776 ;;		_rdBlkRegCompleteHandler
 10777 ;;		_wr1RegCompleteHandler
 10778 ;;		_wr2RegCompleteHandler
 10779 ;; This function is called by:
 10780 ;;		_I2C1_MasterFsm
 10781 ;; This function uses a non-reentrant model
 10782 ;;
 10783                           
 10784                           	psect	text89
 10785   002D40                     __ptext89:
 10786                           	callstack 0
 10787   002D40                     _I2C1_DO_RX:
 10788                           	callstack 15
 10789   002D40                     
 10790                           ;mcc_generated_files/i2c1_master.c: 382:     *I2C1_Status.data_ptr++ = I2C1_MasterGetRxD
      +                          ata();
 10791   002D40  ECDD  F01D         	call	_I2C1_MasterGetRxData	;wreg free
 10792   002D44  C0CF  FFD9         	movff	_I2C1_Status+29,fsr2l
 10793   002D48  C0D0  FFDA         	movff	_I2C1_Status+30,fsr2h
 10794   002D4C  6EDF               	movwf	indf2,c
 10795   002D4E  0100               	movlb	0	; () banked
 10796   002D50  4BCF               	infsnz	(_I2C1_Status+29)& (0+255),f,b
 10797   002D52  2BD0               	incf	(_I2C1_Status+30)& (0+255),f,b
 10798   002D54                     
 10799                           ; BSR set to: 0
 10800                           ;mcc_generated_files/i2c1_master.c: 383:     if(--I2C1_Status.data_length)
 10801   002D54  07D1               	decf	(_I2C1_Status+31)& (0+255),f,b
 10802   002D56  A0D8               	btfss	status,0,c
 10803   002D58  07D2               	decf	(_I2C1_Status+32)& (0+255),f,b
 10804   002D5A  51D1               	movf	(_I2C1_Status+31)& (0+255),w,b
 10805   002D5C  11D2               	iorwf	(_I2C1_Status+32)& (0+255),w,b
 10806   002D5E  B4D8               	btfsc	status,2,c
 10807   002D60  EFB4  F016         	goto	i2u259_41
 10808   002D64  EFB6  F016         	goto	i2u259_40
 10809   002D68                     i2u259_41:
 10810   002D68  EFBB  F016         	goto	i2l385
 10811   002D6C                     i2u259_40:
 10812   002D6C                     
 10813                           ; BSR set to: 0
 10814                           ;mcc_generated_files/i2c1_master.c: 384:     {;mcc_generated_files/i2c1_master.c: 385:  
      +                                 I2C1_MasterSendAck();
 10815   002D6C  ECCF  F01D         	call	_I2C1_MasterSendAck	;wreg free
 10816   002D70                     
 10817                           ;mcc_generated_files/i2c1_master.c: 386:         return I2C1_RCEN;
 10818   002D70  0E05               	movlw	5
 10819   002D72  EFF2  F016         	goto	i2l386
 10820   002D76                     i2l385:
 10821                           
 10822                           ; BSR set to: 0
 10823                           ;mcc_generated_files/i2c1_master.c: 389:     {;mcc_generated_files/i2c1_master.c: 390:  
      +                                 I2C1_Status.bufferFree = 1;
 10824   002D76  87D5               	bsf	(_I2C1_Status+35)& (0+255),3,b
 10825                           
 10826                           ;mcc_generated_files/i2c1_master.c: 391:         switch(I2C1_Status.callbackTable[I2C1_D
      +                          ATA_COMPLETE](I2C1_Status.callbackPayload[I2C1_DATA_COMPLETE]))
 10827   002D78  EFC6  F016         	goto	i2l4272
 10828   002D7C                     i2l4262:
 10829                           
 10830                           ;mcc_generated_files/i2c1_master.c: 395:                 return I2C1_DO_RX_NACK_RESTART(
      +                          );
 10831   002D7C  EC97  F01D         	call	_I2C1_DO_RX_NACK_RESTART	;wreg free
 10832   002D80  EFF2  F016         	goto	i2l386
 10833   002D84                     i2l4266:
 10834                           
 10835                           ;mcc_generated_files/i2c1_master.c: 399:                 return I2C1_DO_RX_NACK_STOP();
 10836   002D84  EC9B  F01D         	call	_I2C1_DO_RX_NACK_STOP	;wreg free
 10837   002D88  EFF2  F016         	goto	i2l386
 10838   002D8C                     i2l4272:
 10839                           
 10840                           ; BSR set to: 0
 10841   002D8C  C0BE  F00A         	movff	_I2C1_Status+12,I2C1_CallbackReturnReset@funPtr
 10842   002D90  C0BF  F00B         	movff	_I2C1_Status+13,I2C1_CallbackReturnReset@funPtr+1
 10843   002D94  D802               	call	i2u260_48
 10844   002D96  EFD6  F016         	goto	i2u260_49
 10845   002D9A                     i2u260_48:
 10846   002D9A  0005               	push	
 10847   002D9C  6EFA               	movwf	pclath,c
 10848   002D9E  51B2               	movf	_I2C1_Status& (0+255),w,b
 10849   002DA0  6EFD               	movwf	tosl,c
 10850   002DA2  51B3               	movf	(_I2C1_Status+1)& (0+255),w,b
 10851   002DA4  6EFE               	movwf	tosh,c
 10852   002DA6  6AFF               	clrf	tosu,c
 10853   002DA8  50FA               	movf	pclath,w,c
 10854   002DAA  0012               	return		;indir
 10855   002DAC                     i2u260_49:
 10856   002DAC  6E0C               	movwf	??_I2C1_DO_RX^0,c
 10857   002DAE  6A0D               	clrf	(??_I2C1_DO_RX+1)^0,c
 10858                           
 10859                           ; Switch on 2 bytes has been partitioned into a top level switch of size 1, and 1 sub-sw
      +                          itches
 10860                           ; Switch size 1, requested type "simple"
 10861                           ; Number of cases is 1, Range of values is 0 to 0
 10862                           ; switch strategies available:
 10863                           ; Name         Instructions Cycles
 10864                           ; simple_byte            4     3 (average)
 10865                           ;	Chosen strategy is simple_byte
 10866   002DB0  500D               	movf	(??_I2C1_DO_RX+1)^0,w,c
 10867   002DB2  0A00               	xorlw	0	; case 0
 10868   002DB4  B4D8               	btfsc	status,2,c
 10869   002DB6  EFDF  F016         	goto	i2l7004
 10870   002DBA  EFC2  F016         	goto	i2l4266
 10871   002DBE                     i2l7004:
 10872                           
 10873                           ; Switch size 1, requested type "simple"
 10874                           ; Number of cases is 4, Range of values is 1 to 4
 10875                           ; switch strategies available:
 10876                           ; Name         Instructions Cycles
 10877                           ; simple_byte           13     7 (average)
 10878                           ;	Chosen strategy is simple_byte
 10879   002DBE  500C               	movf	??_I2C1_DO_RX^0,w,c
 10880   002DC0  0A01               	xorlw	1	; case 1
 10881   002DC2  B4D8               	btfsc	status,2,c
 10882   002DC4  EFC2  F016         	goto	i2l4266
 10883   002DC8  0A03               	xorlw	3	; case 2
 10884   002DCA  B4D8               	btfsc	status,2,c
 10885   002DCC  EFBE  F016         	goto	i2l4262
 10886   002DD0  0A01               	xorlw	1	; case 3
 10887   002DD2  B4D8               	btfsc	status,2,c
 10888   002DD4  EFBE  F016         	goto	i2l4262
 10889   002DD8  0A07               	xorlw	7	; case 4
 10890   002DDA  B4D8               	btfsc	status,2,c
 10891   002DDC  EFC2  F016         	goto	i2l4266
 10892   002DE0  EFC2  F016         	goto	i2l4266
 10893   002DE4                     i2l386:
 10894   002DE4  0012               	return		;funcret
 10895   002DE6                     __end_of_I2C1_DO_RX:
 10896                           	callstack 0
 10897                           
 10898 ;; *************** function _I2C1_DO_TX *****************
 10899 ;; Defined at:
 10900 ;;		line 356 in file "mcc_generated_files/i2c1_master.c"
 10901 ;; Parameters:    Size  Location     Type
 10902 ;;		None
 10903 ;; Auto vars:     Size  Location     Type
 10904 ;;		None
 10905 ;; Return value:  Size  Location     Type
 10906 ;;                  1    wreg      enum E10029
 10907 ;; Registers used:
 10908 ;;		wreg, fsr2l, fsr2h, status,2, status,0, pcl, pclath, pclatu, tosl, prodl, prodh, cstack
 10909 ;; Tracked objects:
 10910 ;;		On entry : 0/0
 10911 ;;		On exit  : 0/0
 10912 ;;		Unchanged: 0/0
 10913 ;; Data sizes:     COMRAM   BANK0   BANK1   BANK2   BANK3   BANK4   BANK5   BANK6   BANK7   BANK8   BANK9  BANK10  BANK1
      +1  BANK12  BANK13  BANK14
 10914 ;;      Params:         0       0       0       0       0       0       0       0       0       0       0       0       
      +0       0       0       0
 10915 ;;      Locals:         0       0       0       0       0       0       0       0       0       0       0       0       
      +0       0       0       0
 10916 ;;      Temps:          2       0       0       0       0       0       0       0       0       0       0       0       
      +0       0       0       0
 10917 ;;      Totals:         2       0       0       0       0       0       0       0       0       0       0       0       
      +0       0       0       0
 10918 ;;Total ram usage:        2 bytes
 10919 ;; Hardware stack levels used: 1
 10920 ;; Hardware stack levels required when called: 3
 10921 ;; This function calls:
 10922 ;;		Absolute function
 10923 ;;		_I2C1_CallbackReturnReset
 10924 ;;		_I2C1_CallbackReturnStop
 10925 ;;		_I2C1_DO_SEND_RESTART_READ
 10926 ;;		_I2C1_DO_SEND_RESTART_WRITE
 10927 ;;		_I2C1_DO_SEND_STOP
 10928 ;;		_I2C1_MasterIsNack
 10929 ;;		_I2C1_MasterSendTxData
 10930 ;;		_rd1RegCompleteHandler
 10931 ;;		_rd2RegCompleteHandler
 10932 ;;		_rdBlkRegCompleteHandler
 10933 ;;		_wr1RegCompleteHandler
 10934 ;;		_wr2RegCompleteHandler
 10935 ;; This function is called by:
 10936 ;;		_I2C1_MasterFsm
 10937 ;; This function uses a non-reentrant model
 10938 ;;
 10939                           
 10940                           	psect	text90
 10941   002BCE                     __ptext90:
 10942                           	callstack 0
 10943   002BCE                     _I2C1_DO_TX:
 10944                           	callstack 15
 10945   002BCE                     
 10946                           ;mcc_generated_files/i2c1_master.c: 358:     if(I2C1_MasterIsNack())
 10947   002BCE  EC31  F01D         	call	_I2C1_MasterIsNack	;wreg free
 10948   002BD2  0900               	iorlw	0
 10949   002BD4  B4D8               	btfsc	status,2,c
 10950   002BD6  EFEF  F015         	goto	i2u256_41
 10951   002BDA  EFF1  F015         	goto	i2u256_40
 10952   002BDE                     i2u256_41:
 10953   002BDE  EF2C  F016         	goto	i2l369
 10954   002BE2                     i2u256_40:
 10955   002BE2  EFFF  F015         	goto	i2l4232
 10956   002BE6                     i2l4218:
 10957                           
 10958                           ;mcc_generated_files/i2c1_master.c: 363:                 return I2C1_DO_SEND_RESTART_REA
      +                          D();
 10959   002BE6  ECAF  F01D         	call	_I2C1_DO_SEND_RESTART_READ	;wreg free
 10960   002BEA  EF48  F016         	goto	i2l372
 10961   002BEE                     i2l4222:
 10962                           
 10963                           ;mcc_generated_files/i2c1_master.c: 365:                   return I2C1_DO_SEND_RESTART_W
      +                          RITE();
 10964   002BEE  ECAB  F01D         	call	_I2C1_DO_SEND_RESTART_WRITE	;wreg free
 10965   002BF2  EF48  F016         	goto	i2l372
 10966   002BF6                     i2l4226:
 10967                           
 10968                           ;mcc_generated_files/i2c1_master.c: 369:                 return I2C1_DO_SEND_STOP();
 10969   002BF6  ECA3  F01D         	call	_I2C1_DO_SEND_STOP	;wreg free
 10970   002BFA  EF48  F016         	goto	i2l372
 10971   002BFE                     i2l4232:
 10972   002BFE  C0C4  F00A         	movff	_I2C1_Status+18,I2C1_CallbackReturnReset@funPtr
 10973   002C02  C0C5  F00B         	movff	_I2C1_Status+19,I2C1_CallbackReturnReset@funPtr+1
 10974   002C06  D802               	call	i2u257_48
 10975   002C08  EF10  F016         	goto	i2u257_49
 10976   002C0C                     i2u257_48:
 10977   002C0C  0005               	push	
 10978   002C0E  6EFA               	movwf	pclath,c
 10979   002C10  0100               	movlb	0	; () banked
 10980   002C12  51B8               	movf	(_I2C1_Status+6)& (0+255),w,b
 10981   002C14  6EFD               	movwf	tosl,c
 10982   002C16  51B9               	movf	(_I2C1_Status+7)& (0+255),w,b
 10983   002C18  6EFE               	movwf	tosh,c
 10984   002C1A  6AFF               	clrf	tosu,c
 10985   002C1C  50FA               	movf	pclath,w,c
 10986   002C1E  0012               	return		;indir
 10987   002C20                     i2u257_49:
 10988   002C20  6E0C               	movwf	??_I2C1_DO_TX^0,c
 10989   002C22  6A0D               	clrf	(??_I2C1_DO_TX+1)^0,c
 10990                           
 10991                           ; Switch on 2 bytes has been partitioned into a top level switch of size 1, and 1 sub-sw
      +                          itches
 10992                           ; Switch size 1, requested type "simple"
 10993                           ; Number of cases is 1, Range of values is 0 to 0
 10994                           ; switch strategies available:
 10995                           ; Name         Instructions Cycles
 10996                           ; simple_byte            4     3 (average)
 10997                           ;	Chosen strategy is simple_byte
 10998   002C24  500D               	movf	(??_I2C1_DO_TX+1)^0,w,c
 10999   002C26  0A00               	xorlw	0	; case 0
 11000   002C28  B4D8               	btfsc	status,2,c
 11001   002C2A  EF19  F016         	goto	i2l7006
 11002   002C2E  EFFB  F015         	goto	i2l4226
 11003   002C32                     i2l7006:
 11004                           
 11005                           ; Switch size 1, requested type "simple"
 11006                           ; Number of cases is 4, Range of values is 1 to 4
 11007                           ; switch strategies available:
 11008                           ; Name         Instructions Cycles
 11009                           ; simple_byte           13     7 (average)
 11010                           ;	Chosen strategy is simple_byte
 11011   002C32  500C               	movf	??_I2C1_DO_TX^0,w,c
 11012   002C34  0A01               	xorlw	1	; case 1
 11013   002C36  B4D8               	btfsc	status,2,c
 11014   002C38  EFFB  F015         	goto	i2l4226
 11015   002C3C  0A03               	xorlw	3	; case 2
 11016   002C3E  B4D8               	btfsc	status,2,c
 11017   002C40  EFF3  F015         	goto	i2l4218
 11018   002C44  0A01               	xorlw	1	; case 3
 11019   002C46  B4D8               	btfsc	status,2,c
 11020   002C48  EFF7  F015         	goto	i2l4222
 11021   002C4C  0A07               	xorlw	7	; case 4
 11022   002C4E  B4D8               	btfsc	status,2,c
 11023   002C50  EFFB  F015         	goto	i2l4226
 11024   002C54  EFFB  F015         	goto	i2l4226
 11025   002C58                     i2l369:
 11026                           
 11027                           ;mcc_generated_files/i2c1_master.c: 373:     {;mcc_generated_files/i2c1_master.c: 374:  
      +                                 I2C1_Status.addressNackCheck = 0;
 11028   002C58  0100               	movlb	0	; () banked
 11029   002C5A  91D5               	bcf	(_I2C1_Status+35)& (0+255),0,b
 11030   002C5C                     
 11031                           ; BSR set to: 0
 11032                           ;mcc_generated_files/i2c1_master.c: 375:         I2C1_MasterSendTxData(*I2C1_Status.data
      +                          _ptr++);
 11033   002C5C  C0CF  FFD9         	movff	_I2C1_Status+29,fsr2l
 11034   002C60  C0D0  FFDA         	movff	_I2C1_Status+30,fsr2h
 11035   002C64  4BCF               	infsnz	(_I2C1_Status+29)& (0+255),f,b
 11036   002C66  2BD0               	incf	(_I2C1_Status+30)& (0+255),f,b
 11037   002C68  50DF               	movf	indf2,w,c
 11038   002C6A  ECB3  F01D         	call	_I2C1_MasterSendTxData
 11039   002C6E                     
 11040                           ;mcc_generated_files/i2c1_master.c: 376:         return (--I2C1_Status.data_length)?I2C1
      +                          _TX:I2C1_TX_EMPTY;
 11041   002C6E  0100               	movlb	0	; () banked
 11042   002C70  07D1               	decf	(_I2C1_Status+31)& (0+255),f,b
 11043   002C72  A0D8               	btfss	status,0,c
 11044   002C74  07D2               	decf	(_I2C1_Status+32)& (0+255),f,b
 11045   002C76  51D1               	movf	(_I2C1_Status+31)& (0+255),w,b
 11046   002C78  11D2               	iorwf	(_I2C1_Status+32)& (0+255),w,b
 11047   002C7A  A4D8               	btfss	status,2,c
 11048   002C7C  EF42  F016         	goto	i2u258_41
 11049   002C80  EF44  F016         	goto	i2u258_40
 11050   002C84                     i2u258_41:
 11051   002C84  EF47  F016         	goto	i2l4240
 11052   002C88                     i2u258_40:
 11053   002C88                     
 11054                           ; BSR set to: 0
 11055   002C88  0E06               	movlw	6
 11056   002C8A  EF48  F016         	goto	i2l372
 11057   002C8E                     i2l4240:
 11058                           
 11059                           ; BSR set to: 0
 11060   002C8E  0E03               	movlw	3
 11061   002C90                     i2l372:
 11062   002C90  0012               	return		;funcret
 11063   002C92                     __end_of_I2C1_DO_TX:
 11064                           	callstack 0
 11065                           
 11066 ;; *************** function _I2C1_DO_SEND_ADR_WRITE *****************
 11067 ;; Defined at:
 11068 ;;		line 349 in file "mcc_generated_files/i2c1_master.c"
 11069 ;; Parameters:    Size  Location     Type
 11070 ;;		None
 11071 ;; Auto vars:     Size  Location     Type
 11072 ;;		None
 11073 ;; Return value:  Size  Location     Type
 11074 ;;                  1    wreg      enum E10029
 11075 ;; Registers used:
 11076 ;;		wreg, status,2, status,0, cstack
 11077 ;; Tracked objects:
 11078 ;;		On entry : 0/0
 11079 ;;		On exit  : 0/0
 11080 ;;		Unchanged: 0/0
 11081 ;; Data sizes:     COMRAM   BANK0   BANK1   BANK2   BANK3   BANK4   BANK5   BANK6   BANK7   BANK8   BANK9  BANK10  BANK1
      +1  BANK12  BANK13  BANK14
 11082 ;;      Params:         0       0       0       0       0       0       0       0       0       0       0       0       
      +0       0       0       0
 11083 ;;      Locals:         0       0       0       0       0       0       0       0       0       0       0       0       
      +0       0       0       0
 11084 ;;      Temps:          0       0       0       0       0       0       0       0       0       0       0       0       
      +0       0       0       0
 11085 ;;      Totals:         0       0       0       0       0       0       0       0       0       0       0       0       
      +0       0       0       0
 11086 ;;Total ram usage:        0 bytes
 11087 ;; Hardware stack levels used: 1
 11088 ;; Hardware stack levels required when called: 1
 11089 ;; This function calls:
 11090 ;;		_I2C1_MasterSendTxData
 11091 ;; This function is called by:
 11092 ;;		_I2C1_MasterFsm
 11093 ;; This function uses a non-reentrant model
 11094 ;;
 11095                           
 11096                           	psect	text91
 11097   003A88                     __ptext91:
 11098                           	callstack 0
 11099   003A88                     _I2C1_DO_SEND_ADR_WRITE:
 11100                           	callstack 17
 11101   003A88                     
 11102                           ;mcc_generated_files/i2c1_master.c: 351:     I2C1_Status.addressNackCheck = 1;
 11103   003A88  0100               	movlb	0	; () banked
 11104   003A8A  81D5               	bsf	(_I2C1_Status+35)& (0+255),0,b
 11105   003A8C                     
 11106                           ; BSR set to: 0
 11107                           ;mcc_generated_files/i2c1_master.c: 352:     I2C1_MasterSendTxData((uint8_t) (I2C1_Statu
      +                          s.address << 1));
 11108   003A8C  51CE               	movf	(_I2C1_Status+28)& (0+255),w,b
 11109   003A8E  25CE               	addwf	(_I2C1_Status+28)& (0+255),w,b
 11110   003A90  ECB3  F01D         	call	_I2C1_MasterSendTxData
 11111   003A94                     
 11112                           ;mcc_generated_files/i2c1_master.c: 353:     return I2C1_TX;
 11113   003A94  0E03               	movlw	3
 11114   003A96  0012               	return		;funcret
 11115   003A98                     __end_of_I2C1_DO_SEND_ADR_WRITE:
 11116                           	callstack 0
 11117                           
 11118 ;; *************** function _I2C1_DO_SEND_ADR_READ *****************
 11119 ;; Defined at:
 11120 ;;		line 342 in file "mcc_generated_files/i2c1_master.c"
 11121 ;; Parameters:    Size  Location     Type
 11122 ;;		None
 11123 ;; Auto vars:     Size  Location     Type
 11124 ;;		None
 11125 ;; Return value:  Size  Location     Type
 11126 ;;                  1    wreg      enum E10029
 11127 ;; Registers used:
 11128 ;;		wreg, status,0, cstack
 11129 ;; Tracked objects:
 11130 ;;		On entry : 0/0
 11131 ;;		On exit  : 0/0
 11132 ;;		Unchanged: 0/0
 11133 ;; Data sizes:     COMRAM   BANK0   BANK1   BANK2   BANK3   BANK4   BANK5   BANK6   BANK7   BANK8   BANK9  BANK10  BANK1
      +1  BANK12  BANK13  BANK14
 11134 ;;      Params:         0       0       0       0       0       0       0       0       0       0       0       0       
      +0       0       0       0
 11135 ;;      Locals:         0       0       0       0       0       0       0       0       0       0       0       0       
      +0       0       0       0
 11136 ;;      Temps:          0       0       0       0       0       0       0       0       0       0       0       0       
      +0       0       0       0
 11137 ;;      Totals:         0       0       0       0       0       0       0       0       0       0       0       0       
      +0       0       0       0
 11138 ;;Total ram usage:        0 bytes
 11139 ;; Hardware stack levels used: 1
 11140 ;; Hardware stack levels required when called: 1
 11141 ;; This function calls:
 11142 ;;		_I2C1_MasterSendTxData
 11143 ;; This function is called by:
 11144 ;;		_I2C1_MasterFsm
 11145 ;; This function uses a non-reentrant model
 11146 ;;
 11147                           
 11148                           	psect	text92
 11149   003A98                     __ptext92:
 11150                           	callstack 0
 11151   003A98                     _I2C1_DO_SEND_ADR_READ:
 11152                           	callstack 17
 11153   003A98                     
 11154                           ;mcc_generated_files/i2c1_master.c: 344:     I2C1_Status.addressNackCheck = 1;
 11155   003A98  0100               	movlb	0	; () banked
 11156   003A9A  81D5               	bsf	(_I2C1_Status+35)& (0+255),0,b
 11157   003A9C                     
 11158                           ; BSR set to: 0
 11159                           ;mcc_generated_files/i2c1_master.c: 345:     I2C1_MasterSendTxData((uint8_t) (I2C1_Statu
      +                          s.address << 1 | 1));
 11160   003A9C  80D8               	bsf	status,0,c
 11161   003A9E  35CE               	rlcf	(_I2C1_Status+28)& (0+255),w,b
 11162   003AA0  ECB3  F01D         	call	_I2C1_MasterSendTxData
 11163   003AA4                     
 11164                           ;mcc_generated_files/i2c1_master.c: 346:     return I2C1_RCEN;
 11165   003AA4  0E05               	movlw	5
 11166   003AA6  0012               	return		;funcret
 11167   003AA8                     __end_of_I2C1_DO_SEND_ADR_READ:
 11168                           	callstack 0
 11169                           
 11170 ;; *************** function _I2C1_DO_IDLE *****************
 11171 ;; Defined at:
 11172 ;;		line 335 in file "mcc_generated_files/i2c1_master.c"
 11173 ;; Parameters:    Size  Location     Type
 11174 ;;		None
 11175 ;; Auto vars:     Size  Location     Type
 11176 ;;		None
 11177 ;; Return value:  Size  Location     Type
 11178 ;;                  1    wreg      enum E10029
 11179 ;; Registers used:
 11180 ;;		wreg, status,2
 11181 ;; Tracked objects:
 11182 ;;		On entry : 0/0
 11183 ;;		On exit  : 0/0
 11184 ;;		Unchanged: 0/0
 11185 ;; Data sizes:     COMRAM   BANK0   BANK1   BANK2   BANK3   BANK4   BANK5   BANK6   BANK7   BANK8   BANK9  BANK10  BANK1
      +1  BANK12  BANK13  BANK14
 11186 ;;      Params:         0       0       0       0       0       0       0       0       0       0       0       0       
      +0       0       0       0
 11187 ;;      Locals:         0       0       0       0       0       0       0       0       0       0       0       0       
      +0       0       0       0
 11188 ;;      Temps:          0       0       0       0       0       0       0       0       0       0       0       0       
      +0       0       0       0
 11189 ;;      Totals:         0       0       0       0       0       0       0       0       0       0       0       0       
      +0       0       0       0
 11190 ;;Total ram usage:        0 bytes
 11191 ;; Hardware stack levels used: 1
 11192 ;; This function calls:
 11193 ;;		Nothing
 11194 ;; This function is called by:
 11195 ;;		_I2C1_MasterFsm
 11196 ;; This function uses a non-reentrant model
 11197 ;;
 11198                           
 11199                           	psect	text93
 11200   003ACC                     __ptext93:
 11201                           	callstack 0
 11202   003ACC                     _I2C1_DO_IDLE:
 11203                           	callstack 18
 11204   003ACC                     
 11205                           ;mcc_generated_files/i2c1_master.c: 337:     I2C1_Status.busy = 0;
 11206   003ACC  0100               	movlb	0	; () banked
 11207   003ACE  93D5               	bcf	(_I2C1_Status+35)& (0+255),1,b
 11208   003AD0                     
 11209                           ; BSR set to: 0
 11210                           ;mcc_generated_files/i2c1_master.c: 338:     I2C1_Status.error = I2C1_NOERR;
 11211   003AD0  0E00               	movlw	0
 11212   003AD2  6FD4               	movwf	(_I2C1_Status+34)& (0+255),b
 11213   003AD4                     
 11214                           ; BSR set to: 0
 11215                           ;mcc_generated_files/i2c1_master.c: 339:     return I2C1_RESET;
 11216   003AD4  0E0E               	movlw	14
 11217   003AD6                     
 11218                           ; BSR set to: 0
 11219   003AD6  0012               	return		;funcret
 11220   003AD8                     __end_of_I2C1_DO_IDLE:
 11221                           	callstack 0
 11222                           
 11223 ;; *************** function _I2C1_DO_TX_EMPTY *****************
 11224 ;; Defined at:
 11225 ;;		line 411 in file "mcc_generated_files/i2c1_master.c"
 11226 ;; Parameters:    Size  Location     Type
 11227 ;;		None
 11228 ;; Auto vars:     Size  Location     Type
 11229 ;;		None
 11230 ;; Return value:  Size  Location     Type
 11231 ;;                  1    wreg      enum E10029
 11232 ;; Registers used:
 11233 ;;		wreg, fsr2l, fsr2h, status,2, status,0, pcl, pclath, pclatu, tosl, prodl, prodh, cstack
 11234 ;; Tracked objects:
 11235 ;;		On entry : 0/0
 11236 ;;		On exit  : 0/0
 11237 ;;		Unchanged: 0/0
 11238 ;; Data sizes:     COMRAM   BANK0   BANK1   BANK2   BANK3   BANK4   BANK5   BANK6   BANK7   BANK8   BANK9  BANK10  BANK1
      +1  BANK12  BANK13  BANK14
 11239 ;;      Params:         0       0       0       0       0       0       0       0       0       0       0       0       
      +0       0       0       0
 11240 ;;      Locals:         0       0       0       0       0       0       0       0       0       0       0       0       
      +0       0       0       0
 11241 ;;      Temps:          2       0       0       0       0       0       0       0       0       0       0       0       
      +0       0       0       0
 11242 ;;      Totals:         2       0       0       0       0       0       0       0       0       0       0       0       
      +0       0       0       0
 11243 ;;Total ram usage:        2 bytes
 11244 ;; Hardware stack levels used: 1
 11245 ;; Hardware stack levels required when called: 3
 11246 ;; This function calls:
 11247 ;;		Absolute function
 11248 ;;		_I2C1_CallbackReturnReset
 11249 ;;		_I2C1_CallbackReturnStop
 11250 ;;		_I2C1_DO_SEND_RESTART
 11251 ;;		_I2C1_DO_SEND_STOP
 11252 ;;		_I2C1_MasterSetIrq
 11253 ;;		_rd1RegCompleteHandler
 11254 ;;		_rd2RegCompleteHandler
 11255 ;;		_rdBlkRegCompleteHandler
 11256 ;;		_wr1RegCompleteHandler
 11257 ;;		_wr2RegCompleteHandler
 11258 ;; This function is called by:
 11259 ;;		_I2C1_MasterFsm
 11260 ;; This function uses a non-reentrant model
 11261 ;;
 11262                           
 11263                           	psect	text94
 11264   002F9A                     __ptext94:
 11265                           	callstack 0
 11266   002F9A                     _I2C1_DO_TX_EMPTY:
 11267                           	callstack 15
 11268   002F9A                     
 11269                           ;mcc_generated_files/i2c1_master.c: 413:     I2C1_Status.bufferFree = 1;
 11270   002F9A  0100               	movlb	0	; () banked
 11271   002F9C  87D5               	bsf	(_I2C1_Status+35)& (0+255),3,b
 11272                           
 11273                           ;mcc_generated_files/i2c1_master.c: 414:     switch(I2C1_Status.callbackTable[I2C1_DATA_
      +                          COMPLETE](I2C1_Status.callbackPayload[I2C1_DATA_COMPLETE]))
 11274   002F9E  EFDE  F017         	goto	i2l4304
 11275   002FA2                     i2l4288:
 11276                           
 11277                           ;mcc_generated_files/i2c1_master.c: 418:             return I2C1_DO_SEND_RESTART();
 11278   002FA2  ECA7  F01D         	call	_I2C1_DO_SEND_RESTART	;wreg free
 11279   002FA6  EF0A  F018         	goto	i2l403
 11280   002FAA                     i2l4292:
 11281                           
 11282                           ;mcc_generated_files/i2c1_master.c: 420:             I2C1_MasterSetIrq();
 11283   002FAA  ECCC  F01D         	call	_I2C1_MasterSetIrq	;wreg free
 11284   002FAE                     
 11285                           ;mcc_generated_files/i2c1_master.c: 421:             return I2C1_TX;
 11286   002FAE  0E03               	movlw	3
 11287   002FB0  EF0A  F018         	goto	i2l403
 11288   002FB4                     i2l4298:
 11289                           
 11290                           ;mcc_generated_files/i2c1_master.c: 424:             return I2C1_DO_SEND_STOP();
 11291   002FB4  ECA3  F01D         	call	_I2C1_DO_SEND_STOP	;wreg free
 11292   002FB8  EF0A  F018         	goto	i2l403
 11293   002FBC                     i2l4304:
 11294                           
 11295                           ; BSR set to: 0
 11296   002FBC  C0BE  F00A         	movff	_I2C1_Status+12,I2C1_CallbackReturnReset@funPtr
 11297   002FC0  C0BF  F00B         	movff	_I2C1_Status+13,I2C1_CallbackReturnReset@funPtr+1
 11298   002FC4  D802               	call	i2u261_48
 11299   002FC6  EFEE  F017         	goto	i2u261_49
 11300   002FCA                     i2u261_48:
 11301   002FCA  0005               	push	
 11302   002FCC  6EFA               	movwf	pclath,c
 11303   002FCE  51B2               	movf	_I2C1_Status& (0+255),w,b
 11304   002FD0  6EFD               	movwf	tosl,c
 11305   002FD2  51B3               	movf	(_I2C1_Status+1)& (0+255),w,b
 11306   002FD4  6EFE               	movwf	tosh,c
 11307   002FD6  6AFF               	clrf	tosu,c
 11308   002FD8  50FA               	movf	pclath,w,c
 11309   002FDA  0012               	return		;indir
 11310   002FDC                     i2u261_49:
 11311   002FDC  6E0C               	movwf	??_I2C1_DO_TX_EMPTY^0,c
 11312   002FDE  6A0D               	clrf	(??_I2C1_DO_TX_EMPTY+1)^0,c
 11313                           
 11314                           ; Switch on 2 bytes has been partitioned into a top level switch of size 1, and 1 sub-sw
      +                          itches
 11315                           ; Switch size 1, requested type "simple"
 11316                           ; Number of cases is 1, Range of values is 0 to 0
 11317                           ; switch strategies available:
 11318                           ; Name         Instructions Cycles
 11319                           ; simple_byte            4     3 (average)
 11320                           ;	Chosen strategy is simple_byte
 11321   002FE0  500D               	movf	(??_I2C1_DO_TX_EMPTY+1)^0,w,c
 11322   002FE2  0A00               	xorlw	0	; case 0
 11323   002FE4  B4D8               	btfsc	status,2,c
 11324   002FE6  EFF7  F017         	goto	i2l7008
 11325   002FEA  EFDA  F017         	goto	i2l4298
 11326   002FEE                     i2l7008:
 11327                           
 11328                           ; Switch size 1, requested type "simple"
 11329                           ; Number of cases is 4, Range of values is 1 to 4
 11330                           ; switch strategies available:
 11331                           ; Name         Instructions Cycles
 11332                           ; simple_byte           13     7 (average)
 11333                           ;	Chosen strategy is simple_byte
 11334   002FEE  500C               	movf	??_I2C1_DO_TX_EMPTY^0,w,c
 11335   002FF0  0A01               	xorlw	1	; case 1
 11336   002FF2  B4D8               	btfsc	status,2,c
 11337   002FF4  EFDA  F017         	goto	i2l4298
 11338   002FF8  0A03               	xorlw	3	; case 2
 11339   002FFA  B4D8               	btfsc	status,2,c
 11340   002FFC  EFD1  F017         	goto	i2l4288
 11341   003000  0A01               	xorlw	1	; case 3
 11342   003002  B4D8               	btfsc	status,2,c
 11343   003004  EFD1  F017         	goto	i2l4288
 11344   003008  0A07               	xorlw	7	; case 4
 11345   00300A  B4D8               	btfsc	status,2,c
 11346   00300C  EFD5  F017         	goto	i2l4292
 11347   003010  EFDA  F017         	goto	i2l4298
 11348   003014                     i2l403:
 11349   003014  0012               	return		;funcret
 11350   003016                     __end_of_I2C1_DO_TX_EMPTY:
 11351                           	callstack 0
 11352                           
 11353 ;; *************** function _I2C1_MasterSetIrq *****************
 11354 ;; Defined at:
 11355 ;;		line 647 in file "mcc_generated_files/i2c1_master.c"
 11356 ;; Parameters:    Size  Location     Type
 11357 ;;		None
 11358 ;; Auto vars:     Size  Location     Type
 11359 ;;		None
 11360 ;; Return value:  Size  Location     Type
 11361 ;;                  1    wreg      void 
 11362 ;; Registers used:
 11363 ;;		None
 11364 ;; Tracked objects:
 11365 ;;		On entry : 0/0
 11366 ;;		On exit  : 0/0
 11367 ;;		Unchanged: 0/0
 11368 ;; Data sizes:     COMRAM   BANK0   BANK1   BANK2   BANK3   BANK4   BANK5   BANK6   BANK7   BANK8   BANK9  BANK10  BANK1
      +1  BANK12  BANK13  BANK14
 11369 ;;      Params:         0       0       0       0       0       0       0       0       0       0       0       0       
      +0       0       0       0
 11370 ;;      Locals:         0       0       0       0       0       0       0       0       0       0       0       0       
      +0       0       0       0
 11371 ;;      Temps:          0       0       0       0       0       0       0       0       0       0       0       0       
      +0       0       0       0
 11372 ;;      Totals:         0       0       0       0       0       0       0       0       0       0       0       0       
      +0       0       0       0
 11373 ;;Total ram usage:        0 bytes
 11374 ;; Hardware stack levels used: 1
 11375 ;; This function calls:
 11376 ;;		Nothing
 11377 ;; This function is called by:
 11378 ;;		_I2C1_DO_TX_EMPTY
 11379 ;; This function uses a non-reentrant model
 11380 ;;
 11381                           
 11382                           	psect	text95
 11383   003B98                     __ptext95:
 11384                           	callstack 0
 11385   003B98                     _I2C1_MasterSetIrq:
 11386                           	callstack 17
 11387   003B98                     
 11388                           ;mcc_generated_files/i2c1_master.c: 649:     PIR3bits.SSP1IF = 1;
 11389   003B98  010E               	movlb	14	; () banked
 11390   003B9A  81CD               	bsf	205,0,b	;volatile
 11391   003B9C                     
 11392                           ; BSR set to: 14
 11393   003B9C  0012               	return		;funcret
 11394   003B9E                     __end_of_I2C1_MasterSetIrq:
 11395                           	callstack 0
 11396                           
 11397 ;; *************** function _I2C1_MasterIsNack *****************
 11398 ;; Defined at:
 11399 ;;		line 599 in file "mcc_generated_files/i2c1_master.c"
 11400 ;; Parameters:    Size  Location     Type
 11401 ;;		None
 11402 ;; Auto vars:     Size  Location     Type
 11403 ;;		None
 11404 ;; Return value:  Size  Location     Type
 11405 ;;                  1    wreg      _Bool 
 11406 ;; Registers used:
 11407 ;;		wreg
 11408 ;; Tracked objects:
 11409 ;;		On entry : 0/0
 11410 ;;		On exit  : 0/0
 11411 ;;		Unchanged: 0/0
 11412 ;; Data sizes:     COMRAM   BANK0   BANK1   BANK2   BANK3   BANK4   BANK5   BANK6   BANK7   BANK8   BANK9  BANK10  BANK1
      +1  BANK12  BANK13  BANK14
 11413 ;;      Params:         0       0       0       0       0       0       0       0       0       0       0       0       
      +0       0       0       0
 11414 ;;      Locals:         0       0       0       0       0       0       0       0       0       0       0       0       
      +0       0       0       0
 11415 ;;      Temps:          0       0       0       0       0       0       0       0       0       0       0       0       
      +0       0       0       0
 11416 ;;      Totals:         0       0       0       0       0       0       0       0       0       0       0       0       
      +0       0       0       0
 11417 ;;Total ram usage:        0 bytes
 11418 ;; Hardware stack levels used: 1
 11419 ;; This function calls:
 11420 ;;		Nothing
 11421 ;; This function is called by:
 11422 ;;		_I2C1_MasterFsm
 11423 ;;		_I2C1_DO_TX
 11424 ;; This function uses a non-reentrant model
 11425 ;;
 11426                           
 11427                           	psect	text96
 11428   003A62                     __ptext96:
 11429                           	callstack 0
 11430   003A62                     _I2C1_MasterIsNack:
 11431                           	callstack 18
 11432   003A62                     
 11433                           ;mcc_generated_files/i2c1_master.c: 601:     return SSP1CON2bits.ACKSTAT;
 11434   003A62  BC97               	btfsc	151,6,c	;volatile
 11435   003A64  EF36  F01D         	goto	i2u237_41
 11436   003A68  EF39  F01D         	goto	i2u237_40
 11437   003A6C                     i2u237_41:
 11438   003A6C  0E01               	movlw	1
 11439   003A6E  EF3A  F01D         	goto	i2u237_46
 11440   003A72                     i2u237_40:
 11441   003A72  0E00               	movlw	0
 11442   003A74                     i2u237_46:
 11443   003A74  0012               	return		;funcret
 11444   003A76                     __end_of_I2C1_MasterIsNack:
 11445                           	callstack 0
 11446                           
 11447 ;; *************** function _I2C1_MasterSendTxData *****************
 11448 ;; Defined at:
 11449 ;;		line 569 in file "mcc_generated_files/i2c1_master.c"
 11450 ;; Parameters:    Size  Location     Type
 11451 ;;  data            1    wreg     unsigned char 
 11452 ;; Auto vars:     Size  Location     Type
 11453 ;;  data            1    0[COMRAM] unsigned char 
 11454 ;; Return value:  Size  Location     Type
 11455 ;;                  1    wreg      void 
 11456 ;; Registers used:
 11457 ;;		wreg
 11458 ;; Tracked objects:
 11459 ;;		On entry : 0/0
 11460 ;;		On exit  : 0/0
 11461 ;;		Unchanged: 0/0
 11462 ;; Data sizes:     COMRAM   BANK0   BANK1   BANK2   BANK3   BANK4   BANK5   BANK6   BANK7   BANK8   BANK9  BANK10  BANK1
      +1  BANK12  BANK13  BANK14
 11463 ;;      Params:         0       0       0       0       0       0       0       0       0       0       0       0       
      +0       0       0       0
 11464 ;;      Locals:         1       0       0       0       0       0       0       0       0       0       0       0       
      +0       0       0       0
 11465 ;;      Temps:          0       0       0       0       0       0       0       0       0       0       0       0       
      +0       0       0       0
 11466 ;;      Totals:         1       0       0       0       0       0       0       0       0       0       0       0       
      +0       0       0       0
 11467 ;;Total ram usage:        1 bytes
 11468 ;; Hardware stack levels used: 1
 11469 ;; This function calls:
 11470 ;;		Nothing
 11471 ;; This function is called by:
 11472 ;;		_I2C1_DO_SEND_ADR_READ
 11473 ;;		_I2C1_DO_SEND_ADR_WRITE
 11474 ;;		_I2C1_DO_TX
 11475 ;; This function uses a non-reentrant model
 11476 ;;
 11477                           
 11478                           	psect	text97
 11479   003B66                     __ptext97:
 11480                           	callstack 0
 11481   003B66                     _I2C1_MasterSendTxData:
 11482                           	callstack 17
 11483                           
 11484                           ;incstack = 0
 11485                           ;I2C1_MasterSendTxData@data stored from wreg
 11486   003B66  6E01               	movwf	I2C1_MasterSendTxData@data^0,c
 11487   003B68                     
 11488                           ;mcc_generated_files/i2c1_master.c: 569: static __attribute__((inline)) void I2C1_Master
      +                          SendTxData(uint8_t data);mcc_generated_files/i2c1_master.c: 570: {;mcc_generated_files/i
      +                          2c1_master.c: 571:     SSP1BUF = data;
 11489   003B68  C001  FF92         	movff	I2C1_MasterSendTxData@data,3986	;volatile
 11490   003B6C  0012               	return		;funcret
 11491   003B6E                     __end_of_I2C1_MasterSendTxData:
 11492                           	callstack 0
 11493                           
 11494 ;; *************** function _I2C1_MasterSendAck *****************
 11495 ;; Defined at:
 11496 ;;		line 604 in file "mcc_generated_files/i2c1_master.c"
 11497 ;; Parameters:    Size  Location     Type
 11498 ;;		None
 11499 ;; Auto vars:     Size  Location     Type
 11500 ;;		None
 11501 ;; Return value:  Size  Location     Type
 11502 ;;                  1    wreg      void 
 11503 ;; Registers used:
 11504 ;;		None
 11505 ;; Tracked objects:
 11506 ;;		On entry : 0/0
 11507 ;;		On exit  : 0/0
 11508 ;;		Unchanged: 0/0
 11509 ;; Data sizes:     COMRAM   BANK0   BANK1   BANK2   BANK3   BANK4   BANK5   BANK6   BANK7   BANK8   BANK9  BANK10  BANK1
      +1  BANK12  BANK13  BANK14
 11510 ;;      Params:         0       0       0       0       0       0       0       0       0       0       0       0       
      +0       0       0       0
 11511 ;;      Locals:         0       0       0       0       0       0       0       0       0       0       0       0       
      +0       0       0       0
 11512 ;;      Temps:          0       0       0       0       0       0       0       0       0       0       0       0       
      +0       0       0       0
 11513 ;;      Totals:         0       0       0       0       0       0       0       0       0       0       0       0       
      +0       0       0       0
 11514 ;;Total ram usage:        0 bytes
 11515 ;; Hardware stack levels used: 1
 11516 ;; This function calls:
 11517 ;;		Nothing
 11518 ;; This function is called by:
 11519 ;;		_I2C1_DO_RX
 11520 ;;		_I2C1_DO_RX_ACK
 11521 ;; This function uses a non-reentrant model
 11522 ;;
 11523                           
 11524                           	psect	text98
 11525   003B9E                     __ptext98:
 11526                           	callstack 0
 11527   003B9E                     _I2C1_MasterSendAck:
 11528                           	callstack 17
 11529   003B9E                     
 11530                           ;mcc_generated_files/i2c1_master.c: 606:     SSP1CON2bits.ACKDT = 0;
 11531   003B9E  9A97               	bcf	151,5,c	;volatile
 11532                           
 11533                           ;mcc_generated_files/i2c1_master.c: 607:     SSP1CON2bits.ACKEN = 1;
 11534   003BA0  8897               	bsf	151,4,c	;volatile
 11535   003BA2  0012               	return		;funcret
 11536   003BA4                     __end_of_I2C1_MasterSendAck:
 11537                           	callstack 0
 11538                           
 11539 ;; *************** function _I2C1_MasterGetRxData *****************
 11540 ;; Defined at:
 11541 ;;		line 564 in file "mcc_generated_files/i2c1_master.c"
 11542 ;; Parameters:    Size  Location     Type
 11543 ;;		None
 11544 ;; Auto vars:     Size  Location     Type
 11545 ;;		None
 11546 ;; Return value:  Size  Location     Type
 11547 ;;                  1    wreg      unsigned char 
 11548 ;; Registers used:
 11549 ;;		wreg, status,2
 11550 ;; Tracked objects:
 11551 ;;		On entry : 0/0
 11552 ;;		On exit  : 0/0
 11553 ;;		Unchanged: 0/0
 11554 ;; Data sizes:     COMRAM   BANK0   BANK1   BANK2   BANK3   BANK4   BANK5   BANK6   BANK7   BANK8   BANK9  BANK10  BANK1
      +1  BANK12  BANK13  BANK14
 11555 ;;      Params:         0       0       0       0       0       0       0       0       0       0       0       0       
      +0       0       0       0
 11556 ;;      Locals:         0       0       0       0       0       0       0       0       0       0       0       0       
      +0       0       0       0
 11557 ;;      Temps:          0       0       0       0       0       0       0       0       0       0       0       0       
      +0       0       0       0
 11558 ;;      Totals:         0       0       0       0       0       0       0       0       0       0       0       0       
      +0       0       0       0
 11559 ;;Total ram usage:        0 bytes
 11560 ;; Hardware stack levels used: 1
 11561 ;; This function calls:
 11562 ;;		Nothing
 11563 ;; This function is called by:
 11564 ;;		_I2C1_DO_RX
 11565 ;; This function uses a non-reentrant model
 11566 ;;
 11567                           
 11568                           	psect	text99
 11569   003BBA                     __ptext99:
 11570                           	callstack 0
 11571   003BBA                     _I2C1_MasterGetRxData:
 11572                           	callstack 17
 11573   003BBA                     
 11574                           ;mcc_generated_files/i2c1_master.c: 566:     return SSP1BUF;
 11575   003BBA  5092               	movf	146,w,c	;volatile
 11576   003BBC  0012               	return		;funcret
 11577   003BBE                     __end_of_I2C1_MasterGetRxData:
 11578                           	callstack 0
 11579                           
 11580 ;; *************** function _I2C1_MasterSendNack *****************
 11581 ;; Defined at:
 11582 ;;		line 610 in file "mcc_generated_files/i2c1_master.c"
 11583 ;; Parameters:    Size  Location     Type
 11584 ;;		None
 11585 ;; Auto vars:     Size  Location     Type
 11586 ;;		None
 11587 ;; Return value:  Size  Location     Type
 11588 ;;                  1    wreg      void 
 11589 ;; Registers used:
 11590 ;;		None
 11591 ;; Tracked objects:
 11592 ;;		On entry : 0/0
 11593 ;;		On exit  : 0/0
 11594 ;;		Unchanged: 0/0
 11595 ;; Data sizes:     COMRAM   BANK0   BANK1   BANK2   BANK3   BANK4   BANK5   BANK6   BANK7   BANK8   BANK9  BANK10  BANK1
      +1  BANK12  BANK13  BANK14
 11596 ;;      Params:         0       0       0       0       0       0       0       0       0       0       0       0       
      +0       0       0       0
 11597 ;;      Locals:         0       0       0       0       0       0       0       0       0       0       0       0       
      +0       0       0       0
 11598 ;;      Temps:          0       0       0       0       0       0       0       0       0       0       0       0       
      +0       0       0       0
 11599 ;;      Totals:         0       0       0       0       0       0       0       0       0       0       0       0       
      +0       0       0       0
 11600 ;;Total ram usage:        0 bytes
 11601 ;; Hardware stack levels used: 1
 11602 ;; This function calls:
 11603 ;;		Nothing
 11604 ;; This function is called by:
 11605 ;;		_I2C1_DO_RX_NACK_STOP
 11606 ;;		_I2C1_DO_RX_NACK_RESTART
 11607 ;; This function uses a non-reentrant model
 11608 ;;
 11609                           
 11610                           	psect	text100
 11611   003BA4                     __ptext100:
 11612                           	callstack 0
 11613   003BA4                     _I2C1_MasterSendNack:
 11614                           	callstack 17
 11615   003BA4                     
 11616                           ;mcc_generated_files/i2c1_master.c: 612:     SSP1CON2bits.ACKDT = 1;
 11617   003BA4  8A97               	bsf	151,5,c	;volatile
 11618                           
 11619                           ;mcc_generated_files/i2c1_master.c: 613:     SSP1CON2bits.ACKEN = 1;
 11620   003BA6  8897               	bsf	151,4,c	;volatile
 11621   003BA8  0012               	return		;funcret
 11622   003BAA                     __end_of_I2C1_MasterSendNack:
 11623                           	callstack 0
 11624                           
 11625 ;; *************** function _I2C1_MasterStartRx *****************
 11626 ;; Defined at:
 11627 ;;		line 584 in file "mcc_generated_files/i2c1_master.c"
 11628 ;; Parameters:    Size  Location     Type
 11629 ;;		None
 11630 ;; Auto vars:     Size  Location     Type
 11631 ;;		None
 11632 ;; Return value:  Size  Location     Type
 11633 ;;                  1    wreg      void 
 11634 ;; Registers used:
 11635 ;;		None
 11636 ;; Tracked objects:
 11637 ;;		On entry : 0/0
 11638 ;;		On exit  : 0/0
 11639 ;;		Unchanged: 0/0
 11640 ;; Data sizes:     COMRAM   BANK0   BANK1   BANK2   BANK3   BANK4   BANK5   BANK6   BANK7   BANK8   BANK9  BANK10  BANK1
      +1  BANK12  BANK13  BANK14
 11641 ;;      Params:         0       0       0       0       0       0       0       0       0       0       0       0       
      +0       0       0       0
 11642 ;;      Locals:         0       0       0       0       0       0       0       0       0       0       0       0       
      +0       0       0       0
 11643 ;;      Temps:          0       0       0       0       0       0       0       0       0       0       0       0       
      +0       0       0       0
 11644 ;;      Totals:         0       0       0       0       0       0       0       0       0       0       0       0       
      +0       0       0       0
 11645 ;;Total ram usage:        0 bytes
 11646 ;; Hardware stack levels used: 1
 11647 ;; This function calls:
 11648 ;;		Nothing
 11649 ;; This function is called by:
 11650 ;;		_I2C1_DO_RCEN
 11651 ;; This function uses a non-reentrant model
 11652 ;;
 11653                           
 11654                           	psect	text101
 11655   003BBE                     __ptext101:
 11656                           	callstack 0
 11657   003BBE                     _I2C1_MasterStartRx:
 11658                           	callstack 17
 11659   003BBE                     
 11660                           ;mcc_generated_files/i2c1_master.c: 586:     SSP1CON2bits.RCEN = 1;
 11661   003BBE  8697               	bsf	151,3,c	;volatile
 11662   003BC0  0012               	return		;funcret
 11663   003BC2                     __end_of_I2C1_MasterStartRx:
 11664                           	callstack 0
 11665                           
 11666 ;; *************** function _I2C1_CallbackReturnReset *****************
 11667 ;; Defined at:
 11668 ;;		line 526 in file "mcc_generated_files/i2c1_master.c"
 11669 ;; Parameters:    Size  Location     Type
 11670 ;;  funPtr          2    9[COMRAM] PTR void 
 11671 ;;		 -> I2C1_ReadDataBlock@bufferBlock(4), I2C1_Write2ByteRegister@data(2), I2C1_Write1ByteRegister@data(1), I2C1_Read2B
      +yteRegister@returnValue(2), 
 11672 ;;		 -> NULL(0), I2C1_Read1ByteRegister@returnValue(1), 
 11673 ;; Auto vars:     Size  Location     Type
 11674 ;;		None
 11675 ;; Return value:  Size  Location     Type
 11676 ;;                  1    wreg      enum E360
 11677 ;; Registers used:
 11678 ;;		wreg
 11679 ;; Tracked objects:
 11680 ;;		On entry : 0/0
 11681 ;;		On exit  : 0/0
 11682 ;;		Unchanged: 0/0
 11683 ;; Data sizes:     COMRAM   BANK0   BANK1   BANK2   BANK3   BANK4   BANK5   BANK6   BANK7   BANK8   BANK9  BANK10  BANK1
      +1  BANK12  BANK13  BANK14
 11684 ;;      Params:         2       0       0       0       0       0       0       0       0       0       0       0       
      +0       0       0       0
 11685 ;;      Locals:         0       0       0       0       0       0       0       0       0       0       0       0       
      +0       0       0       0
 11686 ;;      Temps:          0       0       0       0       0       0       0       0       0       0       0       0       
      +0       0       0       0
 11687 ;;      Totals:         2       0       0       0       0       0       0       0       0       0       0       0       
      +0       0       0       0
 11688 ;;Total ram usage:        2 bytes
 11689 ;; Hardware stack levels used: 1
 11690 ;; This function calls:
 11691 ;;		Nothing
 11692 ;; This function is called by:
 11693 ;;		_I2C1_Open
 11694 ;;		_I2C1_DO_TX
 11695 ;;		_I2C1_DO_RX
 11696 ;;		_I2C1_DO_TX_EMPTY
 11697 ;;		_I2C1_DO_ADDRESS_NACK
 11698 ;;		_I2C1_DO_RX_EMPTY
 11699 ;; This function uses a non-reentrant model
 11700 ;;
 11701                           
 11702                           	psect	text102
 11703   003BC2                     __ptext102:
 11704                           	callstack 0
 11705   003BC2                     _I2C1_CallbackReturnReset:
 11706                           	callstack 17
 11707   003BC2                     
 11708                           ;mcc_generated_files/i2c1_master.c: 526: i2c1_operations_t I2C1_CallbackReturnReset(void
      +                           *funPtr);mcc_generated_files/i2c1_master.c: 527: {;mcc_generated_files/i2c1_master.c: 5
      +                          28:     return I2C1_RESET_LINK;
 11709   003BC2  0E05               	movlw	5
 11710   003BC4  0012               	return		;funcret
 11711   003BC6                     __end_of_I2C1_CallbackReturnReset:
 11712                           	callstack 0
 11713                           
 11714 ;; *************** function _I2C1_CallbackReturnStop *****************
 11715 ;; Defined at:
 11716 ;;		line 521 in file "mcc_generated_files/i2c1_master.c"
 11717 ;; Parameters:    Size  Location     Type
 11718 ;;  funPtr          2    9[COMRAM] PTR void 
 11719 ;;		 -> I2C1_ReadDataBlock@bufferBlock(4), I2C1_Write2ByteRegister@data(2), I2C1_Write1ByteRegister@data(1), I2C1_Read2B
      +yteRegister@returnValue(2), 
 11720 ;;		 -> NULL(0), I2C1_Read1ByteRegister@returnValue(1), 
 11721 ;; Auto vars:     Size  Location     Type
 11722 ;;		None
 11723 ;; Return value:  Size  Location     Type
 11724 ;;                  1    wreg      enum E360
 11725 ;; Registers used:
 11726 ;;		wreg
 11727 ;; Tracked objects:
 11728 ;;		On entry : 0/0
 11729 ;;		On exit  : 0/0
 11730 ;;		Unchanged: 0/0
 11731 ;; Data sizes:     COMRAM   BANK0   BANK1   BANK2   BANK3   BANK4   BANK5   BANK6   BANK7   BANK8   BANK9  BANK10  BANK1
      +1  BANK12  BANK13  BANK14
 11732 ;;      Params:         2       0       0       0       0       0       0       0       0       0       0       0       
      +0       0       0       0
 11733 ;;      Locals:         0       0       0       0       0       0       0       0       0       0       0       0       
      +0       0       0       0
 11734 ;;      Temps:          0       0       0       0       0       0       0       0       0       0       0       0       
      +0       0       0       0
 11735 ;;      Totals:         2       0       0       0       0       0       0       0       0       0       0       0       
      +0       0       0       0
 11736 ;;Total ram usage:        2 bytes
 11737 ;; Hardware stack levels used: 1
 11738 ;; This function calls:
 11739 ;;		Nothing
 11740 ;; This function is called by:
 11741 ;;		_I2C1_Open
 11742 ;;		_I2C1_SetCallback
 11743 ;;		i2_I2C1_SetCallback
 11744 ;;		_I2C1_DO_TX
 11745 ;;		_I2C1_DO_RX
 11746 ;;		_I2C1_DO_TX_EMPTY
 11747 ;;		_I2C1_DO_ADDRESS_NACK
 11748 ;;		_I2C1_DO_RX_EMPTY
 11749 ;; This function uses a non-reentrant model
 11750 ;;
 11751                           
 11752                           	psect	text103
 11753   003BC6                     __ptext103:
 11754                           	callstack 0
 11755   003BC6                     _I2C1_CallbackReturnStop:
 11756                           	callstack 17
 11757   003BC6                     
 11758                           ;mcc_generated_files/i2c1_master.c: 521: i2c1_operations_t I2C1_CallbackReturnStop(void 
      +                          *funPtr);mcc_generated_files/i2c1_master.c: 522: {;mcc_generated_files/i2c1_master.c: 52
      +                          3:     return I2C1_STOP;
 11759   003BC6  0E01               	movlw	1
 11760   003BC8  0012               	return		;funcret
 11761   003BCA                     __end_of_I2C1_CallbackReturnStop:
 11762                           	callstack 0
 11763                           
 11764 ;; *************** function _rdBlkRegCompleteHandler *****************
 11765 ;; Defined at:
 11766 ;;		line 170 in file "mcc_generated_files/examples/i2c1_master_example.c"
 11767 ;; Parameters:    Size  Location     Type
 11768 ;;  ptr             2    9[COMRAM] PTR void 
 11769 ;;		 -> I2C1_ReadDataBlock@bufferBlock(4), I2C1_Write2ByteRegister@data(2), I2C1_Write1ByteRegister@data(1), I2C1_Read2B
      +yteRegister@returnValue(2), 
 11770 ;;		 -> NULL(0), I2C1_Read1ByteRegister@returnValue(1), 
 11771 ;; Auto vars:     Size  Location     Type
 11772 ;;		None
 11773 ;; Return value:  Size  Location     Type
 11774 ;;                  1    wreg      enum E360
 11775 ;; Registers used:
 11776 ;;		wreg, fsr2l, fsr2h, status,2, status,0, prodl, prodh, cstack
 11777 ;; Tracked objects:
 11778 ;;		On entry : 0/0
 11779 ;;		On exit  : 0/0
 11780 ;;		Unchanged: 0/0
 11781 ;; Data sizes:     COMRAM   BANK0   BANK1   BANK2   BANK3   BANK4   BANK5   BANK6   BANK7   BANK8   BANK9  BANK10  BANK1
      +1  BANK12  BANK13  BANK14
 11782 ;;      Params:         2       0       0       0       0       0       0       0       0       0       0       0       
      +0       0       0       0
 11783 ;;      Locals:         0       0       0       0       0       0       0       0       0       0       0       0       
      +0       0       0       0
 11784 ;;      Temps:          0       0       0       0       0       0       0       0       0       0       0       0       
      +0       0       0       0
 11785 ;;      Totals:         2       0       0       0       0       0       0       0       0       0       0       0       
      +0       0       0       0
 11786 ;;Total ram usage:        2 bytes
 11787 ;; Hardware stack levels used: 1
 11788 ;; Hardware stack levels required when called: 2
 11789 ;; This function calls:
 11790 ;;		i2_I2C1_SetBuffer
 11791 ;;		i2_I2C1_SetDataCompleteCallback
 11792 ;; This function is called by:
 11793 ;;		_I2C1_ReadDataBlock
 11794 ;;		_I2C1_DO_TX
 11795 ;;		_I2C1_DO_RX
 11796 ;;		_I2C1_DO_TX_EMPTY
 11797 ;;		_I2C1_DO_ADDRESS_NACK
 11798 ;;		_I2C1_DO_RX_EMPTY
 11799 ;; This function uses a non-reentrant model
 11800 ;;
 11801                           
 11802                           	psect	text104
 11803   0035BE                     __ptext104:
 11804                           	callstack 0
 11805   0035BE                     _rdBlkRegCompleteHandler:
 11806                           	callstack 15
 11807   0035BE                     
 11808                           ;mcc_generated_files/examples/i2c1_master_example.c: 170: static i2c1_operations_t rdBlk
      +                          RegCompleteHandler(void *ptr);mcc_generated_files/examples/i2c1_master_example.c: 171: {
      +                          ;mcc_generated_files/examples/i2c1_master_example.c: 172:     I2C1_SetBuffer(((i2c1_buff
      +                          er_t *)ptr)->data,((i2c1_buffer_t*)ptr)->len);
 11809   0035BE  EE20 F002          	lfsr	2,2
 11810   0035C2  500A               	movf	rdBlkRegCompleteHandler@ptr^0,w,c
 11811   0035C4  26D9               	addwf	fsr2l,f,c
 11812   0035C6  500B               	movf	(rdBlkRegCompleteHandler@ptr+1)^0,w,c
 11813   0035C8  22DA               	addwfc	fsr2h,f,c
 11814   0035CA  CFDE F001          	movff	postinc2,i2I2C1_SetBuffer@buffer
 11815   0035CE  CFDD F002          	movff	postdec2,i2I2C1_SetBuffer@buffer+1
 11816   0035D2  C00A  FFD9         	movff	rdBlkRegCompleteHandler@ptr,fsr2l
 11817   0035D6  C00B  FFDA         	movff	rdBlkRegCompleteHandler@ptr+1,fsr2h
 11818   0035DA  CFDE F003          	movff	postinc2,i2I2C1_SetBuffer@bufferSize
 11819   0035DE  CFDD F004          	movff	postdec2,i2I2C1_SetBuffer@bufferSize+1
 11820   0035E2  EC72  F01C         	call	i2_I2C1_SetBuffer	;wreg free
 11821   0035E6                     
 11822                           ;mcc_generated_files/examples/i2c1_master_example.c: 173:     I2C1_SetDataCompleteCallba
      +                          ck(((void*)0),((void*)0));
 11823   0035E6  0E00               	movlw	0
 11824   0035E8  6E06               	movwf	i2I2C1_SetDataCompleteCallback@cb^0,c
 11825   0035EA  0E00               	movlw	0
 11826   0035EC  6E07               	movwf	(i2I2C1_SetDataCompleteCallback@cb+1)^0,c
 11827   0035EE  0E00               	movlw	0
 11828   0035F0  6E08               	movwf	i2I2C1_SetDataCompleteCallback@ptr^0,c
 11829   0035F2  0E00               	movlw	0
 11830   0035F4  6E09               	movwf	(i2I2C1_SetDataCompleteCallback@ptr+1)^0,c
 11831   0035F6  EC10  F01D         	call	i2_I2C1_SetDataCompleteCallback	;wreg free
 11832   0035FA                     
 11833                           ;mcc_generated_files/examples/i2c1_master_example.c: 174:     return I2C1_RESTART_READ;
 11834   0035FA  0E02               	movlw	2
 11835   0035FC  0012               	return		;funcret
 11836   0035FE                     __end_of_rdBlkRegCompleteHandler:
 11837                           	callstack 0
 11838                           
 11839 ;; *************** function _wr1RegCompleteHandler *****************
 11840 ;; Defined at:
 11841 ;;		line 156 in file "mcc_generated_files/examples/i2c1_master_example.c"
 11842 ;; Parameters:    Size  Location     Type
 11843 ;;  ptr             2    9[COMRAM] PTR void 
 11844 ;;		 -> I2C1_ReadDataBlock@bufferBlock(4), I2C1_Write2ByteRegister@data(2), I2C1_Write1ByteRegister@data(1), I2C1_Read2B
      +yteRegister@returnValue(2), 
 11845 ;;		 -> NULL(0), I2C1_Read1ByteRegister@returnValue(1), 
 11846 ;; Auto vars:     Size  Location     Type
 11847 ;;		None
 11848 ;; Return value:  Size  Location     Type
 11849 ;;                  1    wreg      enum E360
 11850 ;; Registers used:
 11851 ;;		wreg, fsr2l, fsr2h, status,2, status,0, prodl, prodh, cstack
 11852 ;; Tracked objects:
 11853 ;;		On entry : 0/0
 11854 ;;		On exit  : 0/0
 11855 ;;		Unchanged: 0/0
 11856 ;; Data sizes:     COMRAM   BANK0   BANK1   BANK2   BANK3   BANK4   BANK5   BANK6   BANK7   BANK8   BANK9  BANK10  BANK1
      +1  BANK12  BANK13  BANK14
 11857 ;;      Params:         2       0       0       0       0       0       0       0       0       0       0       0       
      +0       0       0       0
 11858 ;;      Locals:         0       0       0       0       0       0       0       0       0       0       0       0       
      +0       0       0       0
 11859 ;;      Temps:          0       0       0       0       0       0       0       0       0       0       0       0       
      +0       0       0       0
 11860 ;;      Totals:         2       0       0       0       0       0       0       0       0       0       0       0       
      +0       0       0       0
 11861 ;;Total ram usage:        2 bytes
 11862 ;; Hardware stack levels used: 1
 11863 ;; Hardware stack levels required when called: 2
 11864 ;; This function calls:
 11865 ;;		i2_I2C1_SetBuffer
 11866 ;;		i2_I2C1_SetDataCompleteCallback
 11867 ;; This function is called by:
 11868 ;;		_I2C1_Write1ByteRegister
 11869 ;;		_I2C1_DO_TX
 11870 ;;		_I2C1_DO_RX
 11871 ;;		_I2C1_DO_TX_EMPTY
 11872 ;;		_I2C1_DO_ADDRESS_NACK
 11873 ;;		_I2C1_DO_RX_EMPTY
 11874 ;; This function uses a non-reentrant model
 11875 ;;
 11876                           
 11877                           	psect	text105
 11878   00371E                     __ptext105:
 11879                           	callstack 0
 11880   00371E                     _wr1RegCompleteHandler:
 11881                           	callstack 15
 11882   00371E                     
 11883                           ;mcc_generated_files/examples/i2c1_master_example.c: 156: static i2c1_operations_t wr1Re
      +                          gCompleteHandler(void *ptr);mcc_generated_files/examples/i2c1_master_example.c: 157: {;m
      +                          cc_generated_files/examples/i2c1_master_example.c: 158:     I2C1_SetBuffer(ptr,1);
 11884   00371E  C00A  F001         	movff	wr1RegCompleteHandler@ptr,i2I2C1_SetBuffer@buffer
 11885   003722  C00B  F002         	movff	wr1RegCompleteHandler@ptr+1,i2I2C1_SetBuffer@buffer+1
 11886   003726  0E00               	movlw	0
 11887   003728  6E04               	movwf	(i2I2C1_SetBuffer@bufferSize+1)^0,c
 11888   00372A  0E01               	movlw	1
 11889   00372C  6E03               	movwf	i2I2C1_SetBuffer@bufferSize^0,c
 11890   00372E  EC72  F01C         	call	i2_I2C1_SetBuffer	;wreg free
 11891   003732                     
 11892                           ;mcc_generated_files/examples/i2c1_master_example.c: 159:     I2C1_SetDataCompleteCallba
      +                          ck(((void*)0),((void*)0));
 11893   003732  0E00               	movlw	0
 11894   003734  6E06               	movwf	i2I2C1_SetDataCompleteCallback@cb^0,c
 11895   003736  0E00               	movlw	0
 11896   003738  6E07               	movwf	(i2I2C1_SetDataCompleteCallback@cb+1)^0,c
 11897   00373A  0E00               	movlw	0
 11898   00373C  6E08               	movwf	i2I2C1_SetDataCompleteCallback@ptr^0,c
 11899   00373E  0E00               	movlw	0
 11900   003740  6E09               	movwf	(i2I2C1_SetDataCompleteCallback@ptr+1)^0,c
 11901   003742  EC10  F01D         	call	i2_I2C1_SetDataCompleteCallback	;wreg free
 11902   003746                     
 11903                           ;mcc_generated_files/examples/i2c1_master_example.c: 160:     return I2C1_CONTINUE;
 11904   003746  0E04               	movlw	4
 11905   003748  0012               	return		;funcret
 11906   00374A                     __end_of_wr1RegCompleteHandler:
 11907                           	callstack 0
 11908                           
 11909 ;; *************** function _rd2RegCompleteHandler *****************
 11910 ;; Defined at:
 11911 ;;		line 149 in file "mcc_generated_files/examples/i2c1_master_example.c"
 11912 ;; Parameters:    Size  Location     Type
 11913 ;;  ptr             2    9[COMRAM] PTR void 
 11914 ;;		 -> I2C1_ReadDataBlock@bufferBlock(4), I2C1_Write2ByteRegister@data(2), I2C1_Write1ByteRegister@data(1), I2C1_Read2B
      +yteRegister@returnValue(2), 
 11915 ;;		 -> NULL(0), I2C1_Read1ByteRegister@returnValue(1), 
 11916 ;; Auto vars:     Size  Location     Type
 11917 ;;		None
 11918 ;; Return value:  Size  Location     Type
 11919 ;;                  1    wreg      enum E360
 11920 ;; Registers used:
 11921 ;;		wreg, fsr2l, fsr2h, status,2, status,0, prodl, prodh, cstack
 11922 ;; Tracked objects:
 11923 ;;		On entry : 0/0
 11924 ;;		On exit  : 0/0
 11925 ;;		Unchanged: 0/0
 11926 ;; Data sizes:     COMRAM   BANK0   BANK1   BANK2   BANK3   BANK4   BANK5   BANK6   BANK7   BANK8   BANK9  BANK10  BANK1
      +1  BANK12  BANK13  BANK14
 11927 ;;      Params:         2       0       0       0       0       0       0       0       0       0       0       0       
      +0       0       0       0
 11928 ;;      Locals:         0       0       0       0       0       0       0       0       0       0       0       0       
      +0       0       0       0
 11929 ;;      Temps:          0       0       0       0       0       0       0       0       0       0       0       0       
      +0       0       0       0
 11930 ;;      Totals:         2       0       0       0       0       0       0       0       0       0       0       0       
      +0       0       0       0
 11931 ;;Total ram usage:        2 bytes
 11932 ;; Hardware stack levels used: 1
 11933 ;; Hardware stack levels required when called: 2
 11934 ;; This function calls:
 11935 ;;		i2_I2C1_SetBuffer
 11936 ;;		i2_I2C1_SetDataCompleteCallback
 11937 ;; This function is called by:
 11938 ;;		_I2C1_Read2ByteRegister
 11939 ;;		_I2C1_DO_TX
 11940 ;;		_I2C1_DO_RX
 11941 ;;		_I2C1_DO_TX_EMPTY
 11942 ;;		_I2C1_DO_ADDRESS_NACK
 11943 ;;		_I2C1_DO_RX_EMPTY
 11944 ;; This function uses a non-reentrant model
 11945 ;;
 11946                           
 11947                           	psect	text106
 11948   00374A                     __ptext106:
 11949                           	callstack 0
 11950   00374A                     _rd2RegCompleteHandler:
 11951                           	callstack 15
 11952   00374A                     
 11953                           ;mcc_generated_files/examples/i2c1_master_example.c: 149: static i2c1_operations_t rd2Re
      +                          gCompleteHandler(void *ptr);mcc_generated_files/examples/i2c1_master_example.c: 150: {;m
      +                          cc_generated_files/examples/i2c1_master_example.c: 151:     I2C1_SetBuffer(ptr,2);
 11954   00374A  C00A  F001         	movff	rd2RegCompleteHandler@ptr,i2I2C1_SetBuffer@buffer
 11955   00374E  C00B  F002         	movff	rd2RegCompleteHandler@ptr+1,i2I2C1_SetBuffer@buffer+1
 11956   003752  0E00               	movlw	0
 11957   003754  6E04               	movwf	(i2I2C1_SetBuffer@bufferSize+1)^0,c
 11958   003756  0E02               	movlw	2
 11959   003758  6E03               	movwf	i2I2C1_SetBuffer@bufferSize^0,c
 11960   00375A  EC72  F01C         	call	i2_I2C1_SetBuffer	;wreg free
 11961   00375E                     
 11962                           ;mcc_generated_files/examples/i2c1_master_example.c: 152:     I2C1_SetDataCompleteCallba
      +                          ck(((void*)0),((void*)0));
 11963   00375E  0E00               	movlw	0
 11964   003760  6E06               	movwf	i2I2C1_SetDataCompleteCallback@cb^0,c
 11965   003762  0E00               	movlw	0
 11966   003764  6E07               	movwf	(i2I2C1_SetDataCompleteCallback@cb+1)^0,c
 11967   003766  0E00               	movlw	0
 11968   003768  6E08               	movwf	i2I2C1_SetDataCompleteCallback@ptr^0,c
 11969   00376A  0E00               	movlw	0
 11970   00376C  6E09               	movwf	(i2I2C1_SetDataCompleteCallback@ptr+1)^0,c
 11971   00376E  EC10  F01D         	call	i2_I2C1_SetDataCompleteCallback	;wreg free
 11972   003772                     
 11973                           ;mcc_generated_files/examples/i2c1_master_example.c: 153:     return I2C1_RESTART_READ;
 11974   003772  0E02               	movlw	2
 11975   003774  0012               	return		;funcret
 11976   003776                     __end_of_rd2RegCompleteHandler:
 11977                           	callstack 0
 11978                           
 11979 ;; *************** function _rd1RegCompleteHandler *****************
 11980 ;; Defined at:
 11981 ;;		line 142 in file "mcc_generated_files/examples/i2c1_master_example.c"
 11982 ;; Parameters:    Size  Location     Type
 11983 ;;  ptr             2    9[COMRAM] PTR void 
 11984 ;;		 -> I2C1_ReadDataBlock@bufferBlock(4), I2C1_Write2ByteRegister@data(2), I2C1_Write1ByteRegister@data(1), I2C1_Read2B
      +yteRegister@returnValue(2), 
 11985 ;;		 -> NULL(0), I2C1_Read1ByteRegister@returnValue(1), 
 11986 ;; Auto vars:     Size  Location     Type
 11987 ;;		None
 11988 ;; Return value:  Size  Location     Type
 11989 ;;                  1    wreg      enum E360
 11990 ;; Registers used:
 11991 ;;		wreg, fsr2l, fsr2h, status,2, status,0, prodl, prodh, cstack
 11992 ;; Tracked objects:
 11993 ;;		On entry : 0/0
 11994 ;;		On exit  : 0/0
 11995 ;;		Unchanged: 0/0
 11996 ;; Data sizes:     COMRAM   BANK0   BANK1   BANK2   BANK3   BANK4   BANK5   BANK6   BANK7   BANK8   BANK9  BANK10  BANK1
      +1  BANK12  BANK13  BANK14
 11997 ;;      Params:         2       0       0       0       0       0       0       0       0       0       0       0       
      +0       0       0       0
 11998 ;;      Locals:         0       0       0       0       0       0       0       0       0       0       0       0       
      +0       0       0       0
 11999 ;;      Temps:          0       0       0       0       0       0       0       0       0       0       0       0       
      +0       0       0       0
 12000 ;;      Totals:         2       0       0       0       0       0       0       0       0       0       0       0       
      +0       0       0       0
 12001 ;;Total ram usage:        2 bytes
 12002 ;; Hardware stack levels used: 1
 12003 ;; Hardware stack levels required when called: 2
 12004 ;; This function calls:
 12005 ;;		i2_I2C1_SetBuffer
 12006 ;;		i2_I2C1_SetDataCompleteCallback
 12007 ;; This function is called by:
 12008 ;;		_I2C1_Read1ByteRegister
 12009 ;;		_I2C1_DO_TX
 12010 ;;		_I2C1_DO_RX
 12011 ;;		_I2C1_DO_TX_EMPTY
 12012 ;;		_I2C1_DO_ADDRESS_NACK
 12013 ;;		_I2C1_DO_RX_EMPTY
 12014 ;; This function uses a non-reentrant model
 12015 ;;
 12016                           
 12017                           	psect	text107
 12018   003776                     __ptext107:
 12019                           	callstack 0
 12020   003776                     _rd1RegCompleteHandler:
 12021                           	callstack 15
 12022   003776                     
 12023                           ;mcc_generated_files/examples/i2c1_master_example.c: 142: static i2c1_operations_t rd1Re
      +                          gCompleteHandler(void *ptr);mcc_generated_files/examples/i2c1_master_example.c: 143: {;m
      +                          cc_generated_files/examples/i2c1_master_example.c: 144:     I2C1_SetBuffer(ptr,1);
 12024   003776  C00A  F001         	movff	rd1RegCompleteHandler@ptr,i2I2C1_SetBuffer@buffer
 12025   00377A  C00B  F002         	movff	rd1RegCompleteHandler@ptr+1,i2I2C1_SetBuffer@buffer+1
 12026   00377E  0E00               	movlw	0
 12027   003780  6E04               	movwf	(i2I2C1_SetBuffer@bufferSize+1)^0,c
 12028   003782  0E01               	movlw	1
 12029   003784  6E03               	movwf	i2I2C1_SetBuffer@bufferSize^0,c
 12030   003786  EC72  F01C         	call	i2_I2C1_SetBuffer	;wreg free
 12031   00378A                     
 12032                           ;mcc_generated_files/examples/i2c1_master_example.c: 145:     I2C1_SetDataCompleteCallba
      +                          ck(((void*)0),((void*)0));
 12033   00378A  0E00               	movlw	0
 12034   00378C  6E06               	movwf	i2I2C1_SetDataCompleteCallback@cb^0,c
 12035   00378E  0E00               	movlw	0
 12036   003790  6E07               	movwf	(i2I2C1_SetDataCompleteCallback@cb+1)^0,c
 12037   003792  0E00               	movlw	0
 12038   003794  6E08               	movwf	i2I2C1_SetDataCompleteCallback@ptr^0,c
 12039   003796  0E00               	movlw	0
 12040   003798  6E09               	movwf	(i2I2C1_SetDataCompleteCallback@ptr+1)^0,c
 12041   00379A  EC10  F01D         	call	i2_I2C1_SetDataCompleteCallback	;wreg free
 12042   00379E                     
 12043                           ;mcc_generated_files/examples/i2c1_master_example.c: 146:     return I2C1_RESTART_READ;
 12044   00379E  0E02               	movlw	2
 12045   0037A0  0012               	return		;funcret
 12046   0037A2                     __end_of_rd1RegCompleteHandler:
 12047                           	callstack 0
 12048                           
 12049 ;; *************** function _wr2RegCompleteHandler *****************
 12050 ;; Defined at:
 12051 ;;		line 163 in file "mcc_generated_files/examples/i2c1_master_example.c"
 12052 ;; Parameters:    Size  Location     Type
 12053 ;;  ptr             2    9[COMRAM] PTR void 
 12054 ;;		 -> I2C1_ReadDataBlock@bufferBlock(4), I2C1_Write2ByteRegister@data(2), I2C1_Write1ByteRegister@data(1), I2C1_Read2B
      +yteRegister@returnValue(2), 
 12055 ;;		 -> NULL(0), I2C1_Read1ByteRegister@returnValue(1), 
 12056 ;; Auto vars:     Size  Location     Type
 12057 ;;		None
 12058 ;; Return value:  Size  Location     Type
 12059 ;;                  1    wreg      enum E360
 12060 ;; Registers used:
 12061 ;;		wreg, fsr2l, fsr2h, status,2, status,0, prodl, prodh, cstack
 12062 ;; Tracked objects:
 12063 ;;		On entry : 0/0
 12064 ;;		On exit  : 0/0
 12065 ;;		Unchanged: 0/0
 12066 ;; Data sizes:     COMRAM   BANK0   BANK1   BANK2   BANK3   BANK4   BANK5   BANK6   BANK7   BANK8   BANK9  BANK10  BANK1
      +1  BANK12  BANK13  BANK14
 12067 ;;      Params:         2       0       0       0       0       0       0       0       0       0       0       0       
      +0       0       0       0
 12068 ;;      Locals:         0       0       0       0       0       0       0       0       0       0       0       0       
      +0       0       0       0
 12069 ;;      Temps:          0       0       0       0       0       0       0       0       0       0       0       0       
      +0       0       0       0
 12070 ;;      Totals:         2       0       0       0       0       0       0       0       0       0       0       0       
      +0       0       0       0
 12071 ;;Total ram usage:        2 bytes
 12072 ;; Hardware stack levels used: 1
 12073 ;; Hardware stack levels required when called: 2
 12074 ;; This function calls:
 12075 ;;		i2_I2C1_SetBuffer
 12076 ;;		i2_I2C1_SetDataCompleteCallback
 12077 ;; This function is called by:
 12078 ;;		_I2C1_Write2ByteRegister
 12079 ;;		_I2C1_DO_TX
 12080 ;;		_I2C1_DO_RX
 12081 ;;		_I2C1_DO_TX_EMPTY
 12082 ;;		_I2C1_DO_ADDRESS_NACK
 12083 ;;		_I2C1_DO_RX_EMPTY
 12084 ;; This function uses a non-reentrant model
 12085 ;;
 12086                           
 12087                           	psect	text108
 12088   0037A2                     __ptext108:
 12089                           	callstack 0
 12090   0037A2                     _wr2RegCompleteHandler:
 12091                           	callstack 15
 12092   0037A2                     
 12093                           ;mcc_generated_files/examples/i2c1_master_example.c: 163: static i2c1_operations_t wr2Re
      +                          gCompleteHandler(void *ptr);mcc_generated_files/examples/i2c1_master_example.c: 164: {;m
      +                          cc_generated_files/examples/i2c1_master_example.c: 165:     I2C1_SetBuffer(ptr,2);
 12094   0037A2  C00A  F001         	movff	wr2RegCompleteHandler@ptr,i2I2C1_SetBuffer@buffer
 12095   0037A6  C00B  F002         	movff	wr2RegCompleteHandler@ptr+1,i2I2C1_SetBuffer@buffer+1
 12096   0037AA  0E00               	movlw	0
 12097   0037AC  6E04               	movwf	(i2I2C1_SetBuffer@bufferSize+1)^0,c
 12098   0037AE  0E02               	movlw	2
 12099   0037B0  6E03               	movwf	i2I2C1_SetBuffer@bufferSize^0,c
 12100   0037B2  EC72  F01C         	call	i2_I2C1_SetBuffer	;wreg free
 12101   0037B6                     
 12102                           ;mcc_generated_files/examples/i2c1_master_example.c: 166:     I2C1_SetDataCompleteCallba
      +                          ck(((void*)0),((void*)0));
 12103   0037B6  0E00               	movlw	0
 12104   0037B8  6E06               	movwf	i2I2C1_SetDataCompleteCallback@cb^0,c
 12105   0037BA  0E00               	movlw	0
 12106   0037BC  6E07               	movwf	(i2I2C1_SetDataCompleteCallback@cb+1)^0,c
 12107   0037BE  0E00               	movlw	0
 12108   0037C0  6E08               	movwf	i2I2C1_SetDataCompleteCallback@ptr^0,c
 12109   0037C2  0E00               	movlw	0
 12110   0037C4  6E09               	movwf	(i2I2C1_SetDataCompleteCallback@ptr+1)^0,c
 12111   0037C6  EC10  F01D         	call	i2_I2C1_SetDataCompleteCallback	;wreg free
 12112   0037CA                     
 12113                           ;mcc_generated_files/examples/i2c1_master_example.c: 167:     return I2C1_CONTINUE;
 12114   0037CA  0E04               	movlw	4
 12115   0037CC  0012               	return		;funcret
 12116   0037CE                     __end_of_wr2RegCompleteHandler:
 12117                           	callstack 0
 12118                           
 12119 ;; *************** function i2_I2C1_SetDataCompleteCallback *****************
 12120 ;; Defined at:
 12121 ;;		line 274 in file "mcc_generated_files/i2c1_master.c"
 12122 ;; Parameters:    Size  Location     Type
 12123 ;;  cb              2    5[COMRAM] PTR FTN(PTR void ,)enum 
 12124 ;;		 -> Absolute function(1), rdBlkRegCompleteHandler(1), wr2RegCompleteHandler(1), wr1RegCompleteHandler(1), 
 12125 ;;		 -> rd2RegCompleteHandler(1), rd1RegCompleteHandler(1), 
 12126 ;;  ptr             2    7[COMRAM] PTR void 
 12127 ;;		 -> I2C1_ReadDataBlock@bufferBlock(4), I2C1_Write2ByteRegister@data(2), I2C1_Write1ByteRegister@data(1), I2C1_Read2B
      +yteRegister@returnValue(2), 
 12128 ;;		 -> NULL(0), I2C1_Read1ByteRegister@returnValue(1), 
 12129 ;; Auto vars:     Size  Location     Type
 12130 ;;		None
 12131 ;; Return value:  Size  Location     Type
 12132 ;;                  1    wreg      void 
 12133 ;; Registers used:
 12134 ;;		wreg, fsr2l, fsr2h, status,2, status,0, prodl, prodh, cstack
 12135 ;; Tracked objects:
 12136 ;;		On entry : 0/0
 12137 ;;		On exit  : 0/0
 12138 ;;		Unchanged: 0/0
 12139 ;; Data sizes:     COMRAM   BANK0   BANK1   BANK2   BANK3   BANK4   BANK5   BANK6   BANK7   BANK8   BANK9  BANK10  BANK1
      +1  BANK12  BANK13  BANK14
 12140 ;;      Params:         4       0       0       0       0       0       0       0       0       0       0       0       
      +0       0       0       0
 12141 ;;      Locals:         0       0       0       0       0       0       0       0       0       0       0       0       
      +0       0       0       0
 12142 ;;      Temps:          0       0       0       0       0       0       0       0       0       0       0       0       
      +0       0       0       0
 12143 ;;      Totals:         4       0       0       0       0       0       0       0       0       0       0       0       
      +0       0       0       0
 12144 ;;Total ram usage:        4 bytes
 12145 ;; Hardware stack levels used: 1
 12146 ;; Hardware stack levels required when called: 1
 12147 ;; This function calls:
 12148 ;;		i2_I2C1_SetCallback
 12149 ;; This function is called by:
 12150 ;;		_rd1RegCompleteHandler
 12151 ;;		_rd2RegCompleteHandler
 12152 ;;		_wr1RegCompleteHandler
 12153 ;;		_wr2RegCompleteHandler
 12154 ;;		_rdBlkRegCompleteHandler
 12155 ;; This function uses a non-reentrant model
 12156 ;;
 12157                           
 12158                           	psect	text109
 12159   003A20                     __ptext109:
 12160                           	callstack 0
 12161   003A20                     i2_I2C1_SetDataCompleteCallback:
 12162                           	callstack 15
 12163   003A20                     
 12164                           ;mcc_generated_files/i2c1_master.c: 274: void I2C1_SetDataCompleteCallback(i2c1_callback
      +                          _t cb, void *ptr);mcc_generated_files/i2c1_master.c: 275: {;mcc_generated_files/i2c1_mas
      +                          ter.c: 276:     I2C1_SetCallback(I2C1_DATA_COMPLETE, cb, ptr);
 12165   003A20  C006  F001         	movff	i2I2C1_SetDataCompleteCallback@cb,i2I2C1_SetCallback@cb
 12166   003A24  C007  F002         	movff	i2I2C1_SetDataCompleteCallback@cb+1,i2I2C1_SetCallback@cb+1
 12167   003A28  C008  F003         	movff	i2I2C1_SetDataCompleteCallback@ptr,i2I2C1_SetCallback@ptr
 12168   003A2C  C009  F004         	movff	i2I2C1_SetDataCompleteCallback@ptr+1,i2I2C1_SetCallback@ptr+1
 12169   003A30  0E00               	movlw	0
 12170   003A32  EC48  F018         	call	i2_I2C1_SetCallback
 12171   003A36  0012               	return		;funcret
 12172   003A38                     __end_ofi2_I2C1_SetDataCompleteCallback:
 12173                           	callstack 0
 12174                           
 12175 ;; *************** function i2_I2C1_SetCallback *****************
 12176 ;; Defined at:
 12177 ;;		line 304 in file "mcc_generated_files/i2c1_master.c"
 12178 ;; Parameters:    Size  Location     Type
 12179 ;;  idx             1    wreg     enum E10047
 12180 ;;  cb              2    0[COMRAM] PTR FTN(PTR void ,)enum 
 12181 ;;		 -> Absolute function(1), rdBlkRegCompleteHandler(1), wr2RegCompleteHandler(1), wr1RegCompleteHandler(1), 
 12182 ;;		 -> rd2RegCompleteHandler(1), rd1RegCompleteHandler(1), 
 12183 ;;  ptr             2    2[COMRAM] PTR void 
 12184 ;;		 -> I2C1_ReadDataBlock@bufferBlock(4), I2C1_Write2ByteRegister@data(2), I2C1_Write1ByteRegister@data(1), I2C1_Read2B
      +yteRegister@returnValue(2), 
 12185 ;;		 -> NULL(0), I2C1_Read1ByteRegister@returnValue(1), 
 12186 ;; Auto vars:     Size  Location     Type
 12187 ;;  idx             1    4[COMRAM] enum E10047
 12188 ;; Return value:  Size  Location     Type
 12189 ;;                  1    wreg      void 
 12190 ;; Registers used:
 12191 ;;		wreg, fsr2l, fsr2h, status,2, status,0, prodl, prodh
 12192 ;; Tracked objects:
 12193 ;;		On entry : 0/0
 12194 ;;		On exit  : 0/0
 12195 ;;		Unchanged: 0/0
 12196 ;; Data sizes:     COMRAM   BANK0   BANK1   BANK2   BANK3   BANK4   BANK5   BANK6   BANK7   BANK8   BANK9  BANK10  BANK1
      +1  BANK12  BANK13  BANK14
 12197 ;;      Params:         4       0       0       0       0       0       0       0       0       0       0       0       
      +0       0       0       0
 12198 ;;      Locals:         1       0       0       0       0       0       0       0       0       0       0       0       
      +0       0       0       0
 12199 ;;      Temps:          0       0       0       0       0       0       0       0       0       0       0       0       
      +0       0       0       0
 12200 ;;      Totals:         5       0       0       0       0       0       0       0       0       0       0       0       
      +0       0       0       0
 12201 ;;Total ram usage:        5 bytes
 12202 ;; Hardware stack levels used: 1
 12203 ;; This function calls:
 12204 ;;		Nothing
 12205 ;; This function is called by:
 12206 ;;		i2_I2C1_SetDataCompleteCallback
 12207 ;; This function uses a non-reentrant model
 12208 ;;
 12209                           
 12210                           	psect	text110
 12211   003090                     __ptext110:
 12212                           	callstack 0
 12213   003090                     i2_I2C1_SetCallback:
 12214                           	callstack 15
 12215                           
 12216                           ;incstack = 0
 12217                           ;i2I2C1_SetCallback@idx stored from wreg
 12218   003090  6E05               	movwf	i2I2C1_SetCallback@idx^0,c
 12219   003092                     
 12220                           ;mcc_generated_files/i2c1_master.c: 304: static void I2C1_SetCallback(i2c1_callbackIndex
      +                          _t idx, i2c1_callback_t cb, void *ptr);mcc_generated_files/i2c1_master.c: 305: {;mcc_gen
      +                          erated_files/i2c1_master.c: 306:     if(cb)
 12221   003092  5001               	movf	i2I2C1_SetCallback@cb^0,w,c
 12222   003094  1002               	iorwf	(i2I2C1_SetCallback@cb+1)^0,w,c
 12223   003096  B4D8               	btfsc	status,2,c
 12224   003098  EF50  F018         	goto	i2u199_41
 12225   00309C  EF52  F018         	goto	i2u199_40
 12226   0030A0                     i2u199_41:
 12227   0030A0  EF6C  F018         	goto	i2l3676
 12228   0030A4                     i2u199_40:
 12229   0030A4                     
 12230                           ;mcc_generated_files/i2c1_master.c: 307:     {;mcc_generated_files/i2c1_master.c: 308:  
      +                                 I2C1_Status.callbackTable[idx] = cb;
 12231   0030A4  5005               	movf	i2I2C1_SetCallback@idx^0,w,c
 12232   0030A6  0D02               	mullw	2
 12233   0030A8  0EB2               	movlw	low _I2C1_Status
 12234   0030AA  24F3               	addwf	243,w,c
 12235   0030AC  6ED9               	movwf	fsr2l,c
 12236   0030AE  0E00               	movlw	high _I2C1_Status
 12237   0030B0  20F4               	addwfc	prodh,w,c
 12238   0030B2  6EDA               	movwf	fsr2h,c
 12239   0030B4  C001  FFDE         	movff	i2I2C1_SetCallback@cb,postinc2
 12240   0030B8  C002  FFDD         	movff	i2I2C1_SetCallback@cb+1,postdec2
 12241                           
 12242                           ;mcc_generated_files/i2c1_master.c: 309:         I2C1_Status.callbackPayload[idx] = ptr;
 12243   0030BC  5005               	movf	i2I2C1_SetCallback@idx^0,w,c
 12244   0030BE  0D02               	mullw	2
 12245   0030C0  0EBE               	movlw	low (_I2C1_Status+12)
 12246   0030C2  24F3               	addwf	243,w,c
 12247   0030C4  6ED9               	movwf	fsr2l,c
 12248   0030C6  0E00               	movlw	high (_I2C1_Status+12)
 12249   0030C8  20F4               	addwfc	prodh,w,c
 12250   0030CA  6EDA               	movwf	fsr2h,c
 12251   0030CC  C003  FFDE         	movff	i2I2C1_SetCallback@ptr,postinc2
 12252   0030D0  C004  FFDD         	movff	i2I2C1_SetCallback@ptr+1,postdec2
 12253                           
 12254                           ;mcc_generated_files/i2c1_master.c: 310:     }
 12255   0030D4  EF84  F018         	goto	i2l350
 12256   0030D8                     i2l3676:
 12257                           
 12258                           ;mcc_generated_files/i2c1_master.c: 312:     {;mcc_generated_files/i2c1_master.c: 313:  
      +                                 I2C1_Status.callbackTable[idx] = I2C1_CallbackReturnStop;
 12259   0030D8  5005               	movf	i2I2C1_SetCallback@idx^0,w,c
 12260   0030DA  0D02               	mullw	2
 12261   0030DC  0EB2               	movlw	low _I2C1_Status
 12262   0030DE  24F3               	addwf	243,w,c
 12263   0030E0  6ED9               	movwf	fsr2l,c
 12264   0030E2  0E00               	movlw	high _I2C1_Status
 12265   0030E4  20F4               	addwfc	prodh,w,c
 12266   0030E6  6EDA               	movwf	fsr2h,c
 12267   0030E8  0EC6               	movlw	low _I2C1_CallbackReturnStop
 12268   0030EA  6EDE               	movwf	postinc2,c
 12269   0030EC  0E3B               	movlw	high _I2C1_CallbackReturnStop
 12270   0030EE  6EDD               	movwf	postdec2,c
 12271                           
 12272                           ;mcc_generated_files/i2c1_master.c: 314:         I2C1_Status.callbackPayload[idx] = ((vo
      +                          id*)0);
 12273   0030F0  5005               	movf	i2I2C1_SetCallback@idx^0,w,c
 12274   0030F2  0D02               	mullw	2
 12275   0030F4  0EBE               	movlw	low (_I2C1_Status+12)
 12276   0030F6  24F3               	addwf	243,w,c
 12277   0030F8  6ED9               	movwf	fsr2l,c
 12278   0030FA  0E00               	movlw	high (_I2C1_Status+12)
 12279   0030FC  20F4               	addwfc	prodh,w,c
 12280   0030FE  6EDA               	movwf	fsr2h,c
 12281   003100  0E00               	movlw	0
 12282   003102  6EDE               	movwf	postinc2,c
 12283   003104  0E00               	movlw	0
 12284   003106  6EDD               	movwf	postdec2,c
 12285   003108                     i2l350:
 12286   003108  0012               	return		;funcret
 12287   00310A                     __end_ofi2_I2C1_SetCallback:
 12288                           	callstack 0
 12289                           
 12290 ;; *************** function i2_I2C1_SetBuffer *****************
 12291 ;; Defined at:
 12292 ;;		line 264 in file "mcc_generated_files/i2c1_master.c"
 12293 ;; Parameters:    Size  Location     Type
 12294 ;;  buffer          2    0[COMRAM] PTR void 
 12295 ;;		 -> I2C1_Read1ByteRegister@returnValue.data(3), I2C1_Read2ByteRegister@returnValue.data(3), I2C1_Write1ByteRegister@
      +data.data(3), I2C1_Write2ByteRegister@data.data(3), 
 12296 ;;		 -> I2C1_ReadDataBlock@reg(1), I2C1_ReadDataBlock@bufferBlock(4), bufferBlock.data(3), I2C1_Write2ByteRegister@reg(1
      +), 
 12297 ;;		 -> I2C1_Write2ByteRegister@data(2), I2C1_Write1ByteRegister@reg(1), I2C1_Write1ByteRegister@data(1), I2C1_Read2Byte
      +Register@reg(1), 
 12298 ;;		 -> I2C1_Read2ByteRegister@returnValue(2), NULL(0), I2C1_Read1ByteRegister@reg(1), I2C1_Read1ByteRegister@returnValu
      +e(1), 
 12299 ;;  bufferSize      2    2[COMRAM] unsigned int 
 12300 ;; Auto vars:     Size  Location     Type
 12301 ;;		None
 12302 ;; Return value:  Size  Location     Type
 12303 ;;                  1    wreg      void 
 12304 ;; Registers used:
 12305 ;;		wreg, status,2, status,0
 12306 ;; Tracked objects:
 12307 ;;		On entry : 0/0
 12308 ;;		On exit  : 0/0
 12309 ;;		Unchanged: 0/0
 12310 ;; Data sizes:     COMRAM   BANK0   BANK1   BANK2   BANK3   BANK4   BANK5   BANK6   BANK7   BANK8   BANK9  BANK10  BANK1
      +1  BANK12  BANK13  BANK14
 12311 ;;      Params:         4       0       0       0       0       0       0       0       0       0       0       0       
      +0       0       0       0
 12312 ;;      Locals:         0       0       0       0       0       0       0       0       0       0       0       0       
      +0       0       0       0
 12313 ;;      Temps:          0       0       0       0       0       0       0       0       0       0       0       0       
      +0       0       0       0
 12314 ;;      Totals:         4       0       0       0       0       0       0       0       0       0       0       0       
      +0       0       0       0
 12315 ;;Total ram usage:        4 bytes
 12316 ;; Hardware stack levels used: 1
 12317 ;; This function calls:
 12318 ;;		Nothing
 12319 ;; This function is called by:
 12320 ;;		_rd1RegCompleteHandler
 12321 ;;		_rd2RegCompleteHandler
 12322 ;;		_wr1RegCompleteHandler
 12323 ;;		_wr2RegCompleteHandler
 12324 ;;		_rdBlkRegCompleteHandler
 12325 ;; This function uses a non-reentrant model
 12326 ;;
 12327                           
 12328                           	psect	text111
 12329   0038E4                     __ptext111:
 12330                           	callstack 0
 12331   0038E4                     i2_I2C1_SetBuffer:
 12332                           	callstack 16
 12333   0038E4                     
 12334                           ;mcc_generated_files/i2c1_master.c: 264: void I2C1_SetBuffer(void *buffer, size_t buffer
      +                          Size);mcc_generated_files/i2c1_master.c: 265: {;mcc_generated_files/i2c1_master.c: 266: 
      +                              if(I2C1_Status.bufferFree)
 12335   0038E4  0100               	movlb	0	; () banked
 12336   0038E6  A7D5               	btfss	(_I2C1_Status+35)& (0+255),3,b
 12337   0038E8  EF78  F01C         	goto	i2u232_41
 12338   0038EC  EF7A  F01C         	goto	i2u232_40
 12339   0038F0                     i2u232_41:
 12340   0038F0  EF83  F01C         	goto	i2l327
 12341   0038F4                     i2u232_40:
 12342   0038F4                     
 12343                           ; BSR set to: 0
 12344                           ;mcc_generated_files/i2c1_master.c: 267:     {;mcc_generated_files/i2c1_master.c: 268:  
      +                                 I2C1_Status.data_ptr = buffer;
 12345   0038F4  C001  F0CF         	movff	i2I2C1_SetBuffer@buffer,_I2C1_Status+29
 12346   0038F8  C002  F0D0         	movff	i2I2C1_SetBuffer@buffer+1,_I2C1_Status+30
 12347   0038FC                     
 12348                           ; BSR set to: 0
 12349                           ;mcc_generated_files/i2c1_master.c: 269:         I2C1_Status.data_length = bufferSize;
 12350   0038FC  C003  F0D1         	movff	i2I2C1_SetBuffer@bufferSize,_I2C1_Status+31
 12351   003900  C004  F0D2         	movff	i2I2C1_SetBuffer@bufferSize+1,_I2C1_Status+32
 12352   003904                     
 12353                           ; BSR set to: 0
 12354                           ;mcc_generated_files/i2c1_master.c: 270:         I2C1_Status.bufferFree = 0;
 12355   003904  97D5               	bcf	(_I2C1_Status+35)& (0+255),3,b
 12356   003906                     i2l327:
 12357                           
 12358                           ; BSR set to: 0
 12359   003906  0012               	return		;funcret
 12360   003908                     __end_ofi2_I2C1_SetBuffer:
 12361                           	callstack 0
 12362                           
 12363 ;; *************** function _I2C1_MasterStop *****************
 12364 ;; Defined at:
 12365 ;;		line 594 in file "mcc_generated_files/i2c1_master.c"
 12366 ;; Parameters:    Size  Location     Type
 12367 ;;		None
 12368 ;; Auto vars:     Size  Location     Type
 12369 ;;		None
 12370 ;; Return value:  Size  Location     Type
 12371 ;;                  1    wreg      void 
 12372 ;; Registers used:
 12373 ;;		None
 12374 ;; Tracked objects:
 12375 ;;		On entry : 0/0
 12376 ;;		On exit  : 0/0
 12377 ;;		Unchanged: 0/0
 12378 ;; Data sizes:     COMRAM   BANK0   BANK1   BANK2   BANK3   BANK4   BANK5   BANK6   BANK7   BANK8   BANK9  BANK10  BANK1
      +1  BANK12  BANK13  BANK14
 12379 ;;      Params:         0       0       0       0       0       0       0       0       0       0       0       0       
      +0       0       0       0
 12380 ;;      Locals:         0       0       0       0       0       0       0       0       0       0       0       0       
      +0       0       0       0
 12381 ;;      Temps:          0       0       0       0       0       0       0       0       0       0       0       0       
      +0       0       0       0
 12382 ;;      Totals:         0       0       0       0       0       0       0       0       0       0       0       0       
      +0       0       0       0
 12383 ;;Total ram usage:        0 bytes
 12384 ;; Hardware stack levels used: 1
 12385 ;; This function calls:
 12386 ;;		Nothing
 12387 ;; This function is called by:
 12388 ;;		_I2C1_DO_SEND_STOP
 12389 ;; This function uses a non-reentrant model
 12390 ;;
 12391                           
 12392                           	psect	text112
 12393   003BCA                     __ptext112:
 12394                           	callstack 0
 12395   003BCA                     _I2C1_MasterStop:
 12396                           	callstack 16
 12397   003BCA                     
 12398                           ;mcc_generated_files/i2c1_master.c: 596:     SSP1CON2bits.PEN = 1;
 12399   003BCA  8497               	bsf	151,2,c	;volatile
 12400   003BCC  0012               	return		;funcret
 12401   003BCE                     __end_of_I2C1_MasterStop:
 12402                           	callstack 0
 12403                           
 12404 ;; *************** function _I2C1_MasterEnableRestart *****************
 12405 ;; Defined at:
 12406 ;;		line 574 in file "mcc_generated_files/i2c1_master.c"
 12407 ;; Parameters:    Size  Location     Type
 12408 ;;		None
 12409 ;; Auto vars:     Size  Location     Type
 12410 ;;		None
 12411 ;; Return value:  Size  Location     Type
 12412 ;;                  1    wreg      void 
 12413 ;; Registers used:
 12414 ;;		None
 12415 ;; Tracked objects:
 12416 ;;		On entry : 0/0
 12417 ;;		On exit  : 0/0
 12418 ;;		Unchanged: 0/0
 12419 ;; Data sizes:     COMRAM   BANK0   BANK1   BANK2   BANK3   BANK4   BANK5   BANK6   BANK7   BANK8   BANK9  BANK10  BANK1
      +1  BANK12  BANK13  BANK14
 12420 ;;      Params:         0       0       0       0       0       0       0       0       0       0       0       0       
      +0       0       0       0
 12421 ;;      Locals:         0       0       0       0       0       0       0       0       0       0       0       0       
      +0       0       0       0
 12422 ;;      Temps:          0       0       0       0       0       0       0       0       0       0       0       0       
      +0       0       0       0
 12423 ;;      Totals:         0       0       0       0       0       0       0       0       0       0       0       0       
      +0       0       0       0
 12424 ;;Total ram usage:        0 bytes
 12425 ;; Hardware stack levels used: 1
 12426 ;; This function calls:
 12427 ;;		Nothing
 12428 ;; This function is called by:
 12429 ;;		_I2C1_DO_SEND_RESTART_READ
 12430 ;;		_I2C1_DO_SEND_RESTART_WRITE
 12431 ;;		_I2C1_DO_SEND_RESTART
 12432 ;;		_I2C1_DO_RX_EMPTY
 12433 ;; This function uses a non-reentrant model
 12434 ;;
 12435                           
 12436                           	psect	text113
 12437   003BCE                     __ptext113:
 12438                           	callstack 0
 12439   003BCE                     _I2C1_MasterEnableRestart:
 12440                           	callstack 16
 12441   003BCE                     
 12442                           ;mcc_generated_files/i2c1_master.c: 576:     SSP1CON2bits.RSEN = 1;
 12443   003BCE  8297               	bsf	151,1,c	;volatile
 12444   003BD0  0012               	return		;funcret
 12445   003BD2                     __end_of_I2C1_MasterEnableRestart:
 12446                           	callstack 0
 12447                           
 12448                           	psect	text114
 12449   000000                     __ptext114:
 12450                           	callstack 0
 12451   000000                     
 12452                           	psect	rparam
 12453   000000                     
 12454                           	psect	temp
 12455   000046                     btemp:
 12456                           	callstack 0
 12457   000046                     	ds	1
 12458   000000                     int$flags	set	btemp
 12459   000000                     wtemp8	set	btemp+1
 12460   000000                     ttemp5	set	btemp+1
 12461   000000                     ttemp6	set	btemp+4
 12462   000000                     ttemp7	set	btemp+8
 12463                           
 12464                           	psect	idloc
 12465                           
 12466                           ;Config register IDLOC0 @ 0x200000
 12467                           ;	unspecified, using default values
 12468   200000                     	org	2097152
 12469   200000  FFFF               	dw	65535
 12470                           
 12471                           ;Config register IDLOC1 @ 0x200002
 12472                           ;	unspecified, using default values
 12473   200002                     	org	2097154
 12474   200002  FFFF               	dw	65535
 12475                           
 12476                           ;Config register IDLOC2 @ 0x200004
 12477                           ;	unspecified, using default values
 12478   200004                     	org	2097156
 12479   200004  FFFF               	dw	65535
 12480                           
 12481                           ;Config register IDLOC3 @ 0x200006
 12482                           ;	unspecified, using default values
 12483   200006                     	org	2097158
 12484   200006  FFFF               	dw	65535
 12485                           
 12486                           ;Config register IDLOC4 @ 0x200008
 12487                           ;	unspecified, using default values
 12488   200008                     	org	2097160
 12489   200008  FFFF               	dw	65535
 12490                           
 12491                           ;Config register IDLOC5 @ 0x20000A
 12492                           ;	unspecified, using default values
 12493   20000A                     	org	2097162
 12494   20000A  FFFF               	dw	65535
 12495                           
 12496                           ;Config register IDLOC6 @ 0x20000C
 12497                           ;	unspecified, using default values
 12498   20000C                     	org	2097164
 12499   20000C  FFFF               	dw	65535
 12500                           
 12501                           ;Config register IDLOC7 @ 0x20000E
 12502                           ;	unspecified, using default values
 12503   20000E                     	org	2097166
 12504   20000E  FFFF               	dw	65535
 12505                           
 12506                           	psect	config
 12507                           
 12508                           ;Config register CONFIG1L @ 0x300000
 12509                           ;	External Oscillator mode Selection bits
 12510                           ;	FEXTOSC = OFF, Oscillator not enabled
 12511                           ;	Power-up default value for COSC bits
 12512                           ;	RSTOSC = HFINTOSC_1MHZ, HFINTOSC with HFFRQ = 4 MHz and CDIV = 4:1
 12513   300000                     	org	3145728
 12514   300000  EC                 	db	236
 12515                           
 12516                           ;Config register CONFIG1H @ 0x300001
 12517                           ;	Clock Out Enable bit
 12518                           ;	CLKOUTEN = OFF, CLKOUT function is disabled
 12519                           ;	Clock Switch Enable bit
 12520                           ;	CSWEN = ON, Writing to NOSC and NDIV is allowed
 12521                           ;	Fail-Safe Clock Monitor Enable bit
 12522                           ;	FCMEN = ON, Fail-Safe Clock Monitor enabled
 12523   300001                     	org	3145729
 12524   300001  FF                 	db	255
 12525                           
 12526                           ;Config register CONFIG2L @ 0x300002
 12527                           ;	Master Clear Enable bit
 12528                           ;	MCLRE = EXTMCLR, If LVP = 0, MCLR pin is MCLR; If LVP = 1, RE3 pin function is MCLR
 12529                           ;	Power-up Timer Enable bit
 12530                           ;	PWRTE = OFF, Power up timer disabled
 12531                           ;	Low-power BOR enable bit
 12532                           ;	LPBOREN = OFF, ULPBOR disabled
 12533                           ;	Brown-out Reset Enable bits
 12534                           ;	BOREN = SBORDIS, Brown-out Reset enabled , SBOREN bit is ignored
 12535   300002                     	org	3145730
 12536   300002  FF                 	db	255
 12537                           
 12538                           ;Config register CONFIG2H @ 0x300003
 12539                           ;	Brown Out Reset Voltage selection bits
 12540                           ;	BORV = VBOR_190, Brown-out Reset Voltage (VBOR) set to 1.90V
 12541                           ;	ZCD Disable bit
 12542                           ;	ZCD = OFF, ZCD disabled. ZCD can be enabled by setting the ZCDSEN bit of ZCDCON
 12543                           ;	PPSLOCK bit One-Way Set Enable bit
 12544                           ;	PPS1WAY = ON, PPSLOCK bit can be cleared and set only once; PPS registers remain locke
      +                          d after one clear/set cycle
 12545                           ;	Stack Full/Underflow Reset Enable bit
 12546                           ;	STVREN = ON, Stack full/underflow will cause Reset
 12547                           ;	Debugger Enable bit
 12548                           ;	DEBUG = OFF, Background debugger disabled
 12549                           ;	Extended Instruction Set Enable bit
 12550                           ;	XINST = OFF, Extended Instruction Set and Indexed Addressing Mode disabled
 12551   300003                     	org	3145731
 12552   300003  FF                 	db	255
 12553                           
 12554                           ;Config register CONFIG3L @ 0x300004
 12555                           ;	WDT Period Select bits
 12556                           ;	WDTCPS = WDTCPS_31, Divider ratio 1:65536; software control of WDTPS
 12557                           ;	WDT operating mode
 12558                           ;	WDTE = OFF, WDT Disabled
 12559   300004                     	org	3145732
 12560   300004  9F                 	db	159
 12561                           
 12562                           ;Config register CONFIG3H @ 0x300005
 12563                           ;	WDT Window Select bits
 12564                           ;	WDTCWS = WDTCWS_7, window always open (100%); software control; keyed access not requi
      +                          red
 12565                           ;	WDT input clock selector
 12566                           ;	WDTCCS = SC, Software Control
 12567   300005                     	org	3145733
 12568   300005  FF                 	db	255
 12569                           
 12570                           ;Config register CONFIG4L @ 0x300006
 12571                           ;	Write Protection Block 0
 12572                           ;	WRT0 = OFF, Block 0 (000800-003FFFh) not write-protected
 12573                           ;	Write Protection Block 1
 12574                           ;	WRT1 = OFF, Block 1 (004000-007FFFh) not write-protected
 12575                           ;	Write Protection Block 2
 12576                           ;	WRT2 = OFF, Block 2 (008000-00BFFFh) not write-protected
 12577                           ;	Write Protection Block 3
 12578                           ;	WRT3 = OFF, Block 3 (00C000-00FFFFh) not write-protected
 12579   300006                     	org	3145734
 12580   300006  FF                 	db	255
 12581                           
 12582                           ;Config register CONFIG4H @ 0x300007
 12583                           ;	Configuration Register Write Protection bit
 12584                           ;	WRTC = OFF, Configuration registers (300000-30000Bh) not write-protected
 12585                           ;	Boot Block Write Protection bit
 12586                           ;	WRTB = OFF, Boot Block (000000-0007FFh) not write-protected
 12587                           ;	Data EEPROM Write Protection bit
 12588                           ;	WRTD = OFF, Data EEPROM not write-protected
 12589                           ;	Scanner Enable bit
 12590                           ;	SCANE = ON, Scanner module is available for use, SCANMD bit can control the module
 12591                           ;	Low Voltage Programming Enable bit
 12592                           ;	LVP = ON, Low voltage programming enabled. MCLR/VPP pin function is MCLR. MCLRE config
      +                          uration bit is ignored
 12593   300007                     	org	3145735
 12594   300007  FF                 	db	255
 12595                           
 12596                           ;Config register CONFIG5L @ 0x300008
 12597                           ;	UserNVM Program Memory Code Protection bit
 12598                           ;	CP = OFF, UserNVM code protection disabled
 12599                           ;	DataNVM Memory Code Protection bit
 12600                           ;	CPD = OFF, DataNVM code protection disabled
 12601   300008                     	org	3145736
 12602   300008  FF                 	db	255
 12603                           
 12604                           ;Config register CONFIG5H @ 0x300009
 12605                           ;	unspecified, using default values
 12606   300009                     	org	3145737
 12607   300009  FF                 	db	255
 12608                           
 12609                           ;Config register CONFIG6L @ 0x30000A
 12610                           ;	Table Read Protection Block 0
 12611                           ;	EBTR0 = OFF, Block 0 (000800-003FFFh) not protected from table reads executed in other
      +                           blocks
 12612                           ;	Table Read Protection Block 1
 12613                           ;	EBTR1 = OFF, Block 1 (004000-007FFFh) not protected from table reads executed in other
      +                           blocks
 12614                           ;	Table Read Protection Block 2
 12615                           ;	EBTR2 = OFF, Block 2 (008000-00BFFFh) not protected from table reads executed in other
      +                           blocks
 12616                           ;	Table Read Protection Block 3
 12617                           ;	EBTR3 = OFF, Block 3 (00C000-00FFFFh) not protected from table reads executed in other
      +                           blocks
 12618   30000A                     	org	3145738
 12619   30000A  FF                 	db	255
 12620                           
 12621                           ;Config register CONFIG6H @ 0x30000B
 12622                           ;	Boot Block Table Read Protection bit
 12623                           ;	EBTRB = OFF, Boot Block (000000-0007FFh) not protected from table reads executed in ot
      +                          her blocks
 12624   30000B                     	org	3145739
 12625   30000B  FF                 	db	255
 12626                           tosu	equ	0xFFF
 12627                           tosh	equ	0xFFE
 12628                           tosl	equ	0xFFD
 12629                           stkptr	equ	0xFFC
 12630                           pclatu	equ	0xFFB
 12631                           pclath	equ	0xFFA
 12632                           pcl	equ	0xFF9
 12633                           tblptru	equ	0xFF8
 12634                           tblptrh	equ	0xFF7
 12635                           tblptrl	equ	0xFF6
 12636                           tablat	equ	0xFF5
 12637                           prodh	equ	0xFF4
 12638                           prodl	equ	0xFF3
 12639                           indf0	equ	0xFEF
 12640                           postinc0	equ	0xFEE
 12641                           postdec0	equ	0xFED
 12642                           preinc0	equ	0xFEC
 12643                           plusw0	equ	0xFEB
 12644                           fsr0h	equ	0xFEA
 12645                           fsr0l	equ	0xFE9
 12646                           wreg	equ	0xFE8
 12647                           indf1	equ	0xFE7
 12648                           postinc1	equ	0xFE6
 12649                           postdec1	equ	0xFE5
 12650                           preinc1	equ	0xFE4
 12651                           plusw1	equ	0xFE3
 12652                           fsr1h	equ	0xFE2
 12653                           fsr1l	equ	0xFE1
 12654                           bsr	equ	0xFE0
 12655                           indf2	equ	0xFDF
 12656                           postinc2	equ	0xFDE
 12657                           postdec2	equ	0xFDD
 12658                           preinc2	equ	0xFDC
 12659                           plusw2	equ	0xFDB
 12660                           fsr2h	equ	0xFDA
 12661                           fsr2l	equ	0xFD9
 12662                           status	equ	0xFD8

Data Sizes:
    Strings     119
    Constant    32
    Data        0
    BSS         89
    Persistent  10
    Stack       0

Auto Spaces:
    Space          Size  Autos    Used
    COMRAM           94     44      69
    BANK0           160     82     156
    BANK1           256     13      13
    BANK2           256      0       0
    BANK3           256      0       0
    BANK4           256      0       0
    BANK5           256      0       0
    BANK6           256      0       0
    BANK7           256      0       0
    BANK8           256      0       0
    BANK9           256      0       0
    BANK10          256      0       0
    BANK11          256      0       0
    BANK12          256      0       0
    BANK13          256      0       0
    BANK14          136      0       0

Pointer List with Targets:

    I2C1_Read1ByteRegister@returnValue.data	PTR unsigned char  size(2) Largest target is 0

    I2C1_Read2ByteRegister@returnValue.data	PTR unsigned char  size(2) Largest target is 0

    I2C1_Write1ByteRegister@data.data	PTR unsigned char  size(2) Largest target is 0

    I2C1_Write2ByteRegister@data.data	PTR unsigned char  size(2) Largest target is 0

    I2C1_DO_TX$3109$0	PTR void  size(2) Largest target is 5
		 -> I2C1_ReadDataBlock@bufferBlock(COMRAM[4]), I2C1_Write2ByteRegister@data(COMRAM[2]), I2C1_Write1ByteRegister@data(COMRAM[1]), I2C1_Read2ByteRegister@returnValue(COMRAM[2]), 
		 -> NULL(NULL[0]), I2C1_Read1ByteRegister@returnValue(COMRAM[1]), 

    I2C1_DO_RX$3115$0	PTR void  size(2) Largest target is 5
		 -> I2C1_ReadDataBlock@bufferBlock(COMRAM[4]), I2C1_Write2ByteRegister@data(COMRAM[2]), I2C1_Write1ByteRegister@data(COMRAM[1]), I2C1_Read2ByteRegister@returnValue(COMRAM[2]), 
		 -> NULL(NULL[0]), I2C1_Read1ByteRegister@returnValue(COMRAM[1]), 

    I2C1_DO_TX_EMPTY$3121$0	PTR void  size(2) Largest target is 5
		 -> I2C1_ReadDataBlock@bufferBlock(COMRAM[4]), I2C1_Write2ByteRegister@data(COMRAM[2]), I2C1_Write1ByteRegister@data(COMRAM[1]), I2C1_Read2ByteRegister@returnValue(COMRAM[2]), 
		 -> NULL(NULL[0]), I2C1_Read1ByteRegister@returnValue(COMRAM[1]), 

    I2C1_DO_RX_EMPTY$3127$0	PTR void  size(2) Largest target is 5
		 -> I2C1_ReadDataBlock@bufferBlock(COMRAM[4]), I2C1_Write2ByteRegister@data(COMRAM[2]), I2C1_Write1ByteRegister@data(COMRAM[1]), I2C1_Read2ByteRegister@returnValue(COMRAM[2]), 
		 -> NULL(NULL[0]), I2C1_Read1ByteRegister@returnValue(COMRAM[1]), 

    I2C1_DO_TX_EMPTY$3126	PTR void  size(2) Largest target is 5
		 -> I2C1_ReadDataBlock@bufferBlock(COMRAM[4]), I2C1_Write2ByteRegister@data(COMRAM[2]), I2C1_Write1ByteRegister@data(COMRAM[1]), I2C1_Read2ByteRegister@returnValue(COMRAM[2]), 
		 -> NULL(NULL[0]), I2C1_Read1ByteRegister@returnValue(COMRAM[1]), 

    I2C1_DO_TX_EMPTY$3121	PTR FTN(PTR void ,)enum E360 size(2) Largest target is 1
		 -> I2C1_CallbackReturnReset(), I2C1_CallbackReturnStop(), Absolute function(), rdBlkRegCompleteHandler(), 
		 -> wr2RegCompleteHandler(), wr1RegCompleteHandler(), rd2RegCompleteHandler(), rd1RegCompleteHandler(), 

    I2C1_DO_RX$3120	PTR void  size(2) Largest target is 5
		 -> I2C1_ReadDataBlock@bufferBlock(COMRAM[4]), I2C1_Write2ByteRegister@data(COMRAM[2]), I2C1_Write1ByteRegister@data(COMRAM[1]), I2C1_Read2ByteRegister@returnValue(COMRAM[2]), 
		 -> NULL(NULL[0]), I2C1_Read1ByteRegister@returnValue(COMRAM[1]), 

    I2C1_DO_RX$3115	PTR FTN(PTR void ,)enum E360 size(2) Largest target is 1
		 -> I2C1_CallbackReturnReset(), I2C1_CallbackReturnStop(), Absolute function(), rdBlkRegCompleteHandler(), 
		 -> wr2RegCompleteHandler(), wr1RegCompleteHandler(), rd2RegCompleteHandler(), rd1RegCompleteHandler(), 

    I2C1_DO_TX$3114	PTR void  size(2) Largest target is 5
		 -> I2C1_ReadDataBlock@bufferBlock(COMRAM[4]), I2C1_Write2ByteRegister@data(COMRAM[2]), I2C1_Write1ByteRegister@data(COMRAM[1]), I2C1_Read2ByteRegister@returnValue(COMRAM[2]), 
		 -> NULL(NULL[0]), I2C1_Read1ByteRegister@returnValue(COMRAM[1]), 

    I2C1_DO_TX$3109	PTR FTN(PTR void ,)enum E360 size(2) Largest target is 1
		 -> I2C1_CallbackReturnReset(), I2C1_CallbackReturnStop(), Absolute function(), rdBlkRegCompleteHandler(), 
		 -> wr2RegCompleteHandler(), wr1RegCompleteHandler(), rd2RegCompleteHandler(), rd1RegCompleteHandler(), 

    I2C1_MasterFsm$3108	const PTR FTN()enum E10029 size(2) Largest target is 1
		 -> I2C1_DO_ADDRESS_NACK(), I2C1_DO_RESET(), I2C1_DO_RX_NACK_RESTART(), I2C1_DO_RX_NACK_STOP(), 
		 -> I2C1_DO_RX_ACK(), I2C1_DO_SEND_STOP(), I2C1_DO_SEND_RESTART(), I2C1_DO_SEND_RESTART_WRITE(), 
		 -> I2C1_DO_SEND_RESTART_READ(), I2C1_DO_TX_EMPTY(), I2C1_DO_RCEN(), I2C1_DO_RX(), 
		 -> I2C1_DO_TX(), I2C1_DO_SEND_ADR_WRITE(), I2C1_DO_SEND_ADR_READ(), I2C1_DO_IDLE(), 

    I2C1_CallbackReturnStop@funPtr	PTR void  size(2) Largest target is 5
		 -> I2C1_ReadDataBlock@bufferBlock(COMRAM[4]), I2C1_Write2ByteRegister@data(COMRAM[2]), I2C1_Write1ByteRegister@data(COMRAM[1]), I2C1_Read2ByteRegister@returnValue(COMRAM[2]), 
		 -> NULL(NULL[0]), I2C1_Read1ByteRegister@returnValue(COMRAM[1]), 

    I2C1_CallbackReturnReset@funPtr	PTR void  size(2) Largest target is 5
		 -> I2C1_ReadDataBlock@bufferBlock(COMRAM[4]), I2C1_Write2ByteRegister@data(COMRAM[2]), I2C1_Write1ByteRegister@data(COMRAM[1]), I2C1_Read2ByteRegister@returnValue(COMRAM[2]), 
		 -> NULL(NULL[0]), I2C1_Read1ByteRegister@returnValue(COMRAM[1]), 

    cb$0	PTR void  size(2) Largest target is 5
		 -> I2C1_ReadDataBlock@bufferBlock(COMRAM[4]), I2C1_Write2ByteRegister@data(COMRAM[2]), I2C1_Write1ByteRegister@data(COMRAM[1]), I2C1_Read2ByteRegister@returnValue(COMRAM[2]), 
		 -> NULL(NULL[0]), I2C1_Read1ByteRegister@returnValue(COMRAM[1]), 

    cb$0	PTR void  size(2) Largest target is 5
		 -> I2C1_ReadDataBlock@bufferBlock(COMRAM[4]), I2C1_Write2ByteRegister@data(COMRAM[2]), I2C1_Write1ByteRegister@data(COMRAM[1]), I2C1_Read2ByteRegister@returnValue(COMRAM[2]), 
		 -> NULL(NULL[0]), I2C1_Read1ByteRegister@returnValue(COMRAM[1]), 

    S397$0$0	PTR void  size(2) Largest target is 5
		 -> I2C1_ReadDataBlock@bufferBlock(COMRAM[4]), I2C1_Write2ByteRegister@data(COMRAM[2]), I2C1_Write1ByteRegister@data(COMRAM[1]), I2C1_Read2ByteRegister@returnValue(COMRAM[2]), 
		 -> NULL(NULL[0]), I2C1_Read1ByteRegister@returnValue(COMRAM[1]), 

    fputs@s	PTR const unsigned char  size(2) Largest target is 32
		 -> dbuf(BANK0[32]), 

    fputs@fp	PTR struct _IO_FILE size(2) Largest target is 0
		 -> NULL(NULL[0]), 

    S2618$source	PTR const unsigned char  size(2) Largest target is 0

    fputc@fp...source	PTR const unsigned char  size(2) Largest target is 0

    S2618$buffer	PTR unsigned char  size(2) Largest target is 0

    fputc@fp...buffer	PTR unsigned char  size(2) Largest target is 0

    fputc@fp	PTR struct _IO_FILE size(2) Largest target is 0
		 -> NULL(NULL[0]), 

    atoi@s	PTR const unsigned char  size(2) Largest target is 26
		 -> STR_6(CODE[25]), STR_5(CODE[26]), STR_4(CODE[21]), STR_3(CODE[12]), 
		 -> STR_2(CODE[13]), STR_1(CODE[22]), 

    vfprintf@ap	PTR PTR void  size(2) Largest target is 2
		 -> printf@ap(BANK0[2]), 

    vfprintf@fp	PTR struct _IO_FILE size(2) Largest target is 0
		 -> NULL(NULL[0]), 

    vfprintf@fmt	PTR const unsigned char  size(2) Largest target is 26
		 -> STR_6(CODE[25]), STR_5(CODE[26]), STR_4(CODE[21]), STR_3(CODE[12]), 
		 -> STR_2(CODE[13]), STR_1(CODE[22]), 

    vfprintf@cfmt	PTR unsigned char  size(2) Largest target is 26
		 -> STR_6(CODE[25]), STR_5(CODE[26]), STR_4(CODE[21]), STR_3(CODE[12]), 
		 -> STR_2(CODE[13]), STR_1(CODE[22]), 

    vfpfcnvrt@fp	PTR struct _IO_FILE size(2) Largest target is 0
		 -> NULL(NULL[0]), 

    vfpfcnvrt@cp	PTR unsigned char  size(2) Largest target is 26
		 -> STR_6(CODE[25]), STR_5(CODE[26]), STR_4(CODE[21]), STR_3(CODE[12]), 
		 -> STR_2(CODE[13]), STR_1(CODE[22]), 

    vfpfcnvrt@ap	PTR PTR void  size(2) Largest target is 2
		 -> printf@ap(BANK0[2]), 

    vfpfcnvrt@fmt	PTR PTR unsigned char  size(2) Largest target is 2
		 -> vfprintf@cfmt(BANK0[2]), 

    S2657$vp	PTR void  size(2) Largest target is 0

    convarg.vp	PTR void  size(2) Largest target is 0

    utoa@fp	PTR struct _IO_FILE size(2) Largest target is 0
		 -> NULL(NULL[0]), 

    dtoa@fp	PTR struct _IO_FILE size(2) Largest target is 0
		 -> NULL(NULL[0]), 

    pad@fp	PTR struct _IO_FILE size(2) Largest target is 0
		 -> NULL(NULL[0]), 

    pad@buf	PTR unsigned char  size(2) Largest target is 32
		 -> dbuf(BANK0[32]), 

    printf@fmt	PTR const unsigned char  size(2) Largest target is 26
		 -> STR_6(CODE[25]), STR_5(CODE[26]), STR_4(CODE[21]), STR_3(CODE[12]), 
		 -> STR_2(CODE[13]), STR_1(CODE[22]), 

    printf@ap	PTR void [1] size(2) Largest target is 2
		 -> ?_printf(BANK0[2]), 

    TMR2_SetInterruptHandler@InterruptHandler	PTR FTN()void  size(2) Largest target is 1
		 -> timer_callback(), TMR2_DefaultInterruptHandler(), 

    TMR2_InterruptHandler	PTR FTN()void  size(2) Largest target is 1
		 -> timer_callback(), TMR2_DefaultInterruptHandler(), Absolute function(), 

    EUSART1_SetErrorHandler@interruptHandler	PTR FTN()void  size(2) Largest target is 1
		 -> EUSART1_DefaultErrorHandler(), 

    EUSART1_ErrorHandler	PTR FTN()void  size(2) Largest target is 1
		 -> EUSART1_DefaultErrorHandler(), Absolute function(), 

    EUSART1_SetOverrunErrorHandler@interruptHandler	PTR FTN()void  size(2) Largest target is 1
		 -> EUSART1_DefaultOverrunErrorHandler(), 

    EUSART1_OverrunErrorHandler	PTR FTN()void  size(2) Largest target is 1
		 -> EUSART1_DefaultOverrunErrorHandler(), Absolute function(), 

    EUSART1_SetFramingErrorHandler@interruptHandler	PTR FTN()void  size(2) Largest target is 1
		 -> EUSART1_DefaultFramingErrorHandler(), 

    EUSART1_FramingErrorHandler	PTR FTN()void  size(2) Largest target is 1
		 -> EUSART1_DefaultFramingErrorHandler(), Absolute function(), 

    I2C1_SetCallback@ptr	PTR void  size(2) Largest target is 5
		 -> I2C1_ReadDataBlock@bufferBlock(COMRAM[4]), I2C1_Write2ByteRegister@data(COMRAM[2]), I2C1_Write1ByteRegister@data(COMRAM[1]), I2C1_Read2ByteRegister@returnValue(COMRAM[2]), 
		 -> NULL(NULL[0]), I2C1_Read1ByteRegister@returnValue(COMRAM[1]), 

    I2C1_SetCallback@cb	PTR FTN(PTR void ,)enum E360 size(2) Largest target is 1
		 -> Absolute function(), rdBlkRegCompleteHandler(), wr2RegCompleteHandler(), wr1RegCompleteHandler(), 
		 -> rd2RegCompleteHandler(), rd1RegCompleteHandler(), 

    I2C1_SetInterruptHandler@InterruptHandler	PTR FTN()void  size(2) Largest target is 1
		 -> I2C1_MasterIsr(), 

    MSSP1_InterruptHandler	PTR FTN()void  size(2) Largest target is 1
		 -> I2C1_MasterIsr(), Absolute function(), 

    I2C1_SetAddressNackCallback@ptr	PTR void  size(2) Largest target is 0
		 -> NULL(NULL[0]), 

    I2C1_SetAddressNackCallback@cb	PTR FTN(PTR void ,)enum E360 size(2) Largest target is 1
		 -> Absolute function(), 

    I2C1_SetDataCompleteCallback@ptr	PTR void  size(2) Largest target is 5
		 -> I2C1_ReadDataBlock@bufferBlock(COMRAM[4]), I2C1_Write2ByteRegister@data(COMRAM[2]), I2C1_Write1ByteRegister@data(COMRAM[1]), I2C1_Read2ByteRegister@returnValue(COMRAM[2]), 
		 -> NULL(NULL[0]), I2C1_Read1ByteRegister@returnValue(COMRAM[1]), 

    I2C1_SetDataCompleteCallback@cb	PTR FTN(PTR void ,)enum E360 size(2) Largest target is 1
		 -> Absolute function(), rdBlkRegCompleteHandler(), wr2RegCompleteHandler(), wr1RegCompleteHandler(), 
		 -> rd2RegCompleteHandler(), rd1RegCompleteHandler(), 

    I2C1_SetBuffer@buffer	PTR void  size(2) Largest target is 5
		 -> I2C1_ReadDataBlock@reg(COMRAM[1]), I2C1_ReadDataBlock@bufferBlock(COMRAM[4]), I2C1_Write2ByteRegister@reg(COMRAM[1]), I2C1_Write2ByteRegister@data(COMRAM[2]), 
		 -> I2C1_Write1ByteRegister@reg(COMRAM[1]), I2C1_Write1ByteRegister@data(COMRAM[1]), I2C1_Read2ByteRegister@reg(COMRAM[1]), I2C1_Read2ByteRegister@returnValue(COMRAM[2]), 
		 -> NULL(NULL[0]), I2C1_Read1ByteRegister@reg(COMRAM[1]), I2C1_Read1ByteRegister@returnValue(COMRAM[1]), 

    S397$data_ptr	PTR unsigned char  size(2) Largest target is 5
		 -> I2C1_ReadDataBlock@reg(COMRAM[1]), I2C1_ReadDataBlock@bufferBlock(COMRAM[4]), I2C1_Write2ByteRegister@reg(COMRAM[1]), I2C1_Write2ByteRegister@data(COMRAM[2]), 
		 -> I2C1_Write1ByteRegister@reg(COMRAM[1]), I2C1_Write1ByteRegister@data(COMRAM[1]), I2C1_Read2ByteRegister@reg(COMRAM[1]), I2C1_Read2ByteRegister@returnValue(COMRAM[2]), 
		 -> NULL(NULL[0]), I2C1_Read1ByteRegister@reg(COMRAM[1]), I2C1_Read1ByteRegister@returnValue(COMRAM[1]), 

    I2C1_Status.data_ptr	PTR unsigned char  size(2) Largest target is 5
		 -> I2C1_Read1ByteRegister@returnValue.data(COMRAM[3]), I2C1_Read2ByteRegister@returnValue.data(COMRAM[3]), I2C1_Write1ByteRegister@data.data(COMRAM[3]), I2C1_Write2ByteRegister@data.data(COMRAM[3]), 
		 -> I2C1_ReadDataBlock@reg(COMRAM[1]), I2C1_ReadDataBlock@bufferBlock(COMRAM[4]), bufferBlock.data(COMRAM[3]), I2C1_Write2ByteRegister@reg(COMRAM[1]), 
		 -> I2C1_Write2ByteRegister@data(COMRAM[2]), I2C1_Write1ByteRegister@reg(COMRAM[1]), I2C1_Write1ByteRegister@data(COMRAM[1]), I2C1_Read2ByteRegister@reg(COMRAM[1]), 
		 -> I2C1_Read2ByteRegister@returnValue(COMRAM[2]), NULL(NULL[0]), I2C1_Read1ByteRegister@reg(COMRAM[1]), I2C1_Read1ByteRegister@returnValue(COMRAM[1]), 

    S397$callbackPayload	PTR void [6] size(2) Largest target is 5
		 -> I2C1_ReadDataBlock@bufferBlock(COMRAM[4]), I2C1_Write2ByteRegister@data(COMRAM[2]), I2C1_Write1ByteRegister@data(COMRAM[1]), I2C1_Read2ByteRegister@returnValue(COMRAM[2]), 
		 -> NULL(NULL[0]), I2C1_Read1ByteRegister@returnValue(COMRAM[1]), 

    I2C1_Status.callbackPayload	PTR void [6] size(2) Largest target is 5
		 -> I2C1_ReadDataBlock@bufferBlock(COMRAM[4]), I2C1_Write2ByteRegister@data(COMRAM[2]), I2C1_Write1ByteRegister@data(COMRAM[1]), I2C1_Read2ByteRegister@returnValue(COMRAM[2]), 
		 -> NULL(NULL[0]), I2C1_Read1ByteRegister@returnValue(COMRAM[1]), 

    S397$callbackTable	PTR FTN(PTR void ,)enum E360[6] size(2) Largest target is 1
		 -> I2C1_CallbackReturnReset(), I2C1_CallbackReturnStop(), Absolute function(), rdBlkRegCompleteHandler(), 
		 -> wr2RegCompleteHandler(), wr1RegCompleteHandler(), rd2RegCompleteHandler(), rd1RegCompleteHandler(), 

    I2C1_Status.callbackTable	PTR FTN(PTR void ,)enum E360[6] size(2) Largest target is 1
		 -> I2C1_CallbackReturnReset(), I2C1_CallbackReturnStop(), Absolute function(), rdBlkRegCompleteHandler(), 
		 -> wr2RegCompleteHandler(), wr1RegCompleteHandler(), rd2RegCompleteHandler(), rd1RegCompleteHandler(), 

    i2c1_fsmStateTable	const PTR FTN()enum E10029[16] size(2) Largest target is 1
		 -> I2C1_DO_ADDRESS_NACK(), I2C1_DO_RESET(), I2C1_DO_RX_NACK_RESTART(), I2C1_DO_RX_NACK_STOP(), 
		 -> I2C1_DO_RX_ACK(), I2C1_DO_SEND_STOP(), I2C1_DO_SEND_RESTART(), I2C1_DO_SEND_RESTART_WRITE(), 
		 -> I2C1_DO_SEND_RESTART_READ(), I2C1_DO_TX_EMPTY(), I2C1_DO_RCEN(), I2C1_DO_RX(), 
		 -> I2C1_DO_TX(), I2C1_DO_SEND_ADR_WRITE(), I2C1_DO_SEND_ADR_READ(), I2C1_DO_IDLE(), 

    IOCAF0_SetInterruptHandler@InterruptHandler	PTR FTN()void  size(2) Largest target is 1
		 -> motorTrigger(), IOCAF0_DefaultInterruptHandler(), 

    IOCAF0_InterruptHandler	PTR FTN()void  size(2) Largest target is 1
		 -> motorTrigger(), Absolute function(), IOCAF0_DefaultInterruptHandler(), 

    rdBlkRegCompleteHandler@ptr.data	PTR unsigned char  size(2) Largest target is 0

    rdBlkRegCompleteHandler@ptr	PTR void  size(2) Largest target is 5
		 -> I2C1_ReadDataBlock@bufferBlock(COMRAM[4]), I2C1_Write2ByteRegister@data(COMRAM[2]), I2C1_Write1ByteRegister@data(COMRAM[1]), I2C1_Read2ByteRegister@returnValue(COMRAM[2]), 
		 -> NULL(NULL[0]), I2C1_Read1ByteRegister@returnValue(COMRAM[1]), 

    wr2RegCompleteHandler@ptr	PTR void  size(2) Largest target is 5
		 -> I2C1_ReadDataBlock@bufferBlock(COMRAM[4]), I2C1_Write2ByteRegister@data(COMRAM[2]), I2C1_Write1ByteRegister@data(COMRAM[1]), I2C1_Read2ByteRegister@returnValue(COMRAM[2]), 
		 -> NULL(NULL[0]), I2C1_Read1ByteRegister@returnValue(COMRAM[1]), 

    wr1RegCompleteHandler@ptr	PTR void  size(2) Largest target is 5
		 -> I2C1_ReadDataBlock@bufferBlock(COMRAM[4]), I2C1_Write2ByteRegister@data(COMRAM[2]), I2C1_Write1ByteRegister@data(COMRAM[1]), I2C1_Read2ByteRegister@returnValue(COMRAM[2]), 
		 -> NULL(NULL[0]), I2C1_Read1ByteRegister@returnValue(COMRAM[1]), 

    rd2RegCompleteHandler@ptr	PTR void  size(2) Largest target is 5
		 -> I2C1_ReadDataBlock@bufferBlock(COMRAM[4]), I2C1_Write2ByteRegister@data(COMRAM[2]), I2C1_Write1ByteRegister@data(COMRAM[1]), I2C1_Read2ByteRegister@returnValue(COMRAM[2]), 
		 -> NULL(NULL[0]), I2C1_Read1ByteRegister@returnValue(COMRAM[1]), 

    rd1RegCompleteHandler@ptr	PTR void  size(2) Largest target is 5
		 -> I2C1_ReadDataBlock@bufferBlock(COMRAM[4]), I2C1_Write2ByteRegister@data(COMRAM[2]), I2C1_Write1ByteRegister@data(COMRAM[1]), I2C1_Read2ByteRegister@returnValue(COMRAM[2]), 
		 -> NULL(NULL[0]), I2C1_Read1ByteRegister@returnValue(COMRAM[1]), 

    S97$data	PTR unsigned char  size(2) Largest target is 0

    bufferBlock.data	PTR unsigned char  size(2) Largest target is 0


Critical Paths under _main in COMRAM

    _windSpeedCalc->_hallRecord
    _hallRecord->_hallRead
    _TMR2_ReadTimer->_TMR2_Counter8BitGet
    ___xxtofl->___lwdiv
    ___fldiv->___flmul
    _tempRead->_I2C1_Read1ByteRegister
    _motorStop->_motorController
    _hallInit->_hallRead
    _hallRead->_I2C1_Read1ByteRegister
    _utoa->_pad
    _dtoa->_pad
    _pad->_fputs
    _fputs->_fputc
    _fputc->_putch
    _putch->_EUSART1_Write
    _abs->___aomod
    _atoi->___wmul
    _motorTrigger->_motorDeploy
    _motorTrigger->_motorStow
    _motorStow->_motorController
    _motorDeploy->_motorController
    _motorController->_I2C1_Write1ByteRegister
    _I2C1_Write1ByteRegister->_I2C1_SetAddressNackCallback
    _I2C1_Write1ByteRegister->_I2C1_SetDataCompleteCallback
    _motorFaultRead->_I2C1_Read1ByteRegister
    _I2C1_Read1ByteRegister->_I2C1_SetAddressNackCallback
    _I2C1_Read1ByteRegister->_I2C1_SetDataCompleteCallback
    _I2C1_SetDataCompleteCallback->_I2C1_SetCallback
    _I2C1_SetAddressNackCallback->_I2C1_SetCallback
    _I2C1_Open->_I2C1_SetInterruptHandler
    _I2C1_MasterWrite->_I2C1_MasterOperation
    _TMR2_Initialize->_TMR2_SetInterruptHandler
    _PIN_MANAGER_Initialize->_IOCAF0_SetInterruptHandler
    _EUSART1_Initialize->_EUSART1_SetErrorHandler
    _EUSART1_Initialize->_EUSART1_SetFramingErrorHandler
    _EUSART1_Initialize->_EUSART1_SetOverrunErrorHandler

Critical Paths under _INTERRUPT_InterruptManager in COMRAM

    _I2C1_MasterIsr->_I2C1_MasterFsm
    _I2C1_MasterFsm->_I2C1_DO_ADDRESS_NACK
    _I2C1_MasterFsm->_I2C1_DO_RX
    _I2C1_MasterFsm->_I2C1_DO_TX
    _I2C1_MasterFsm->_I2C1_DO_TX_EMPTY
    _I2C1_DO_TX_EMPTY->_I2C1_CallbackReturnReset
    _I2C1_DO_TX_EMPTY->_I2C1_CallbackReturnStop
    _I2C1_DO_TX_EMPTY->_rd1RegCompleteHandler
    _I2C1_DO_TX_EMPTY->_rd2RegCompleteHandler
    _I2C1_DO_TX_EMPTY->_rdBlkRegCompleteHandler
    _I2C1_DO_TX_EMPTY->_wr1RegCompleteHandler
    _I2C1_DO_TX_EMPTY->_wr2RegCompleteHandler
    _I2C1_DO_TX->_I2C1_CallbackReturnReset
    _I2C1_DO_TX->_I2C1_CallbackReturnStop
    _I2C1_DO_TX->_rd1RegCompleteHandler
    _I2C1_DO_TX->_rd2RegCompleteHandler
    _I2C1_DO_TX->_rdBlkRegCompleteHandler
    _I2C1_DO_TX->_wr1RegCompleteHandler
    _I2C1_DO_TX->_wr2RegCompleteHandler
    _I2C1_DO_SEND_ADR_WRITE->_I2C1_MasterSendTxData
    _I2C1_DO_RX->_I2C1_CallbackReturnReset
    _I2C1_DO_RX->_I2C1_CallbackReturnStop
    _I2C1_DO_RX->_rd1RegCompleteHandler
    _I2C1_DO_RX->_rd2RegCompleteHandler
    _I2C1_DO_RX->_rdBlkRegCompleteHandler
    _I2C1_DO_RX->_wr1RegCompleteHandler
    _I2C1_DO_RX->_wr2RegCompleteHandler
    _I2C1_DO_ADDRESS_NACK->_I2C1_CallbackReturnReset
    _I2C1_DO_ADDRESS_NACK->_I2C1_CallbackReturnStop
    _I2C1_DO_ADDRESS_NACK->_rd1RegCompleteHandler
    _I2C1_DO_ADDRESS_NACK->_rd2RegCompleteHandler
    _I2C1_DO_ADDRESS_NACK->_rdBlkRegCompleteHandler
    _I2C1_DO_ADDRESS_NACK->_wr1RegCompleteHandler
    _I2C1_DO_ADDRESS_NACK->_wr2RegCompleteHandler
    _wr2RegCompleteHandler->i2_I2C1_SetDataCompleteCallback
    _wr1RegCompleteHandler->i2_I2C1_SetDataCompleteCallback
    _rdBlkRegCompleteHandler->i2_I2C1_SetDataCompleteCallback
    _rd2RegCompleteHandler->i2_I2C1_SetDataCompleteCallback
    _rd1RegCompleteHandler->i2_I2C1_SetDataCompleteCallback
    i2_I2C1_SetDataCompleteCallback->i2_I2C1_SetCallback

Critical Paths under _main in BANK0

    _main->_printf
    _windSpeedCalc->___fldiv
    ___fldiv->___flmul
    _printf->_vfprintf
    _vfprintf->_vfpfcnvrt
    _vfpfcnvrt->_dtoa
    _utoa->_pad
    _dtoa->___aodiv
    _dtoa->_pad

Critical Paths under _INTERRUPT_InterruptManager in BANK0

    None.

Critical Paths under _main in BANK1

    None.

Critical Paths under _INTERRUPT_InterruptManager in BANK1

    None.

Critical Paths under _main in BANK2

    None.

Critical Paths under _INTERRUPT_InterruptManager in BANK2

    None.

Critical Paths under _main in BANK3

    None.

Critical Paths under _INTERRUPT_InterruptManager in BANK3

    None.

Critical Paths under _main in BANK4

    None.

Critical Paths under _INTERRUPT_InterruptManager in BANK4

    None.

Critical Paths under _main in BANK5

    None.

Critical Paths under _INTERRUPT_InterruptManager in BANK5

    None.

Critical Paths under _main in BANK6

    None.

Critical Paths under _INTERRUPT_InterruptManager in BANK6

    None.

Critical Paths under _main in BANK7

    None.

Critical Paths under _INTERRUPT_InterruptManager in BANK7

    None.

Critical Paths under _main in BANK8

    None.

Critical Paths under _INTERRUPT_InterruptManager in BANK8

    None.

Critical Paths under _main in BANK9

    None.

Critical Paths under _INTERRUPT_InterruptManager in BANK9

    None.

Critical Paths under _main in BANK10

    None.

Critical Paths under _INTERRUPT_InterruptManager in BANK10

    None.

Critical Paths under _main in BANK11

    None.

Critical Paths under _INTERRUPT_InterruptManager in BANK11

    None.

Critical Paths under _main in BANK12

    None.

Critical Paths under _INTERRUPT_InterruptManager in BANK12

    None.

Critical Paths under _main in BANK13

    None.

Critical Paths under _INTERRUPT_InterruptManager in BANK13

    None.

Critical Paths under _main in BANK14

    None.

Critical Paths under _INTERRUPT_InterruptManager in BANK14

    None.

Call Graph Tables:

 ---------------------------------------------------------------------------------
 (Depth) Function   	        Calls       Base Space   Used Autos Params    Refs
 ---------------------------------------------------------------------------------
 (0) _main                                                14    14      0   91785
                                             81 BANK0      1     1      0
                                              0 BANK1     13    13      0
                _EUSART1_is_tx_ready
         _IOCAF0_SetInterruptHandler
                  _SYSTEM_Initialize
           _TMR2_SetInterruptHandler
                             ___flge
                           _hallRead
                     _motorFaultRead
                       _motorTrigger
                             _printf
                        _system_init
                           _tempRead
                      _windSpeedCalc
 ---------------------------------------------------------------------------------
 (1) _windSpeedCalc                                       20    16      4   14048
                                             34 BANK0     20    16      4
                            ___fldiv
                            ___flmul
                            ___lwdiv
                           ___xxtofl
                         _hallRecord
 ---------------------------------------------------------------------------------
 (2) _hallRecord                                           1     1      0    7689
                                             43 COMRAM     1     1      0
                     _TMR2_ReadTimer
                           _hallRead
 ---------------------------------------------------------------------------------
 (3) _TMR2_ReadTimer                                       0     0      0      34
                _TMR2_Counter8BitGet
 ---------------------------------------------------------------------------------
 (4) _TMR2_Counter8BitGet                                  1     1      0      34
                                             25 COMRAM     1     1      0
 ---------------------------------------------------------------------------------
 (2) ___xxtofl                                            14    10      4     746
                                             32 COMRAM     8     4      4
                                              0 BANK0      6     6      0
                            ___lwdiv (ARG)
 ---------------------------------------------------------------------------------
 (2) ___lwdiv                                              7     3      4     421
                                             25 COMRAM     7     3      4
 ---------------------------------------------------------------------------------
 (2) ___flmul                                             25    17      8    2873
                                             25 COMRAM    12     4      8
                                              0 BANK0     13    13      0
 ---------------------------------------------------------------------------------
 (2) ___fldiv                                             25    17      8    2183
                                             37 COMRAM     4     4      0
                                             13 BANK0     21    13      8
                            ___flmul (ARG)
 ---------------------------------------------------------------------------------
 (1) _tempRead                                             0     0      0    7655
             _I2C1_Read1ByteRegister
 ---------------------------------------------------------------------------------
 (1) _system_init                                          0     0      0   16933
                    _TMR2_StartTimer
                           _hallInit
                          _motorStop
 ---------------------------------------------------------------------------------
 (2) _motorStop                                            0     0      0    9278
                    _motorController
 ---------------------------------------------------------------------------------
 (2) _hallInit                                             0     0      0    7655
                           _hallRead
 ---------------------------------------------------------------------------------
 (3) _hallRead                                             6     4      2    7655
                                             37 COMRAM     6     4      2
             _I2C1_Read1ByteRegister
 ---------------------------------------------------------------------------------
 (2) _TMR2_StartTimer                                      0     0      0       0
                         _TMR2_Start
 ---------------------------------------------------------------------------------
 (3) _TMR2_Start                                           0     0      0       0
 ---------------------------------------------------------------------------------
 (1) _printf                                              10     4      6   16856
                                             73 BANK0      8     2      6
                           _vfprintf
 ---------------------------------------------------------------------------------
 (2) _vfprintf                                             8     2      6   16217
                                             65 BANK0      8     2      6
                          _vfpfcnvrt
 ---------------------------------------------------------------------------------
 (3) _vfpfcnvrt                                           25    19      6   15693
                                             45 BANK0     20    14      6
                               _atoi
                               _dtoa
                              _fputc
                            _isdigit
                               _utoa
 ---------------------------------------------------------------------------------
 (4) _utoa                                                32    22     10    4364
                                             10 BANK0     32    22     10
                            ___lodiv
                            ___lomod
                                _pad
 ---------------------------------------------------------------------------------
 (5) ___lomod                                             17     1     16     412
                                             25 COMRAM    17     1     16
 ---------------------------------------------------------------------------------
 (5) ___lodiv                                             25     9     16     421
                                             25 COMRAM    16     0     16
                                              0 BANK0      9     9      0
 ---------------------------------------------------------------------------------
 (4) _dtoa                                                35    25     10    5252
                                             10 BANK0     35    25     10
                            ___aodiv
                            ___aomod
                                _abs
                                _pad
 ---------------------------------------------------------------------------------
 (5) _pad                                                 11     5      6    2983
                                             43 COMRAM     1     1      0
                                              0 BANK0     10     4      6
                              _fputc
                              _fputs
 ---------------------------------------------------------------------------------
 (6) _fputs                                                7     3      4    1326
                                             36 COMRAM     7     3      4
                              _fputc
 ---------------------------------------------------------------------------------
 (7) _fputc                                                9     5      4     826
                                             27 COMRAM     9     5      4
                              _putch
 ---------------------------------------------------------------------------------
 (8) _putch                                                1     1      0      62
                                             26 COMRAM     1     1      0
                      _EUSART1_Write
 ---------------------------------------------------------------------------------
 (9) _EUSART1_Write                                        1     1      0      31
                                             25 COMRAM     1     1      0
 ---------------------------------------------------------------------------------
 (5) _abs                                                  4     2      2     183
                                              0 BANK0      4     2      2
                            ___aomod (ARG)
 ---------------------------------------------------------------------------------
 (5) ___aomod                                             18     2     16     613
                                             25 COMRAM    18     2     16
 ---------------------------------------------------------------------------------
 (5) ___aodiv                                             26    10     16     625
                                             25 COMRAM    16     0     16
                                              0 BANK0     10    10      0
 ---------------------------------------------------------------------------------
 (4) _atoi                                                 9     7      2    3454
                                             31 COMRAM     9     7      2
                             ___wmul
                            _isdigit
                            _isspace
 ---------------------------------------------------------------------------------
 (5) _isspace                                              5     3      2     259
                                             25 COMRAM     5     3      2
 ---------------------------------------------------------------------------------
 (4) _isdigit                                              4     2      2     371
                                             25 COMRAM     4     2      2
 ---------------------------------------------------------------------------------
 (5) ___wmul                                               6     2      4    2282
                                             25 COMRAM     6     2      4
 ---------------------------------------------------------------------------------
 (1) _motorTrigger                                         0     0      0   18556
                        _motorDeploy
                          _motorStow
 ---------------------------------------------------------------------------------
 (2) _motorStow                                            2     2      0    9278
                                             41 COMRAM     2     2      0
                    _motorController
 ---------------------------------------------------------------------------------
 (2) _motorDeploy                                          2     2      0    9278
                                             41 COMRAM     2     2      0
                    _motorController
 ---------------------------------------------------------------------------------
 (3) _motorController                                      4     2      2    9278
                                             37 COMRAM     4     2      2
            _I2C1_Write1ByteRegister
 ---------------------------------------------------------------------------------
 (4) _I2C1_Write1ByteRegister                              3     1      2    7351
                                             34 COMRAM     3     1      2
                         _I2C1_Close
                   _I2C1_MasterWrite
                          _I2C1_Open
        _I2C1_SetAddressNackCallback
                     _I2C1_SetBuffer
       _I2C1_SetDataCompleteCallback
 ---------------------------------------------------------------------------------
 (1) _motorFaultRead                                       4     2      2    7866
                                             37 COMRAM     4     2      2
             _I2C1_Read1ByteRegister
 ---------------------------------------------------------------------------------
 (4) _I2C1_Read1ByteRegister                               3     2      1    7655
                                             34 COMRAM     3     2      1
                         _I2C1_Close
                   _I2C1_MasterWrite
                          _I2C1_Open
        _I2C1_SetAddressNackCallback
                     _I2C1_SetBuffer
       _I2C1_SetDataCompleteCallback
 ---------------------------------------------------------------------------------
 (5) _I2C1_SetDataCompleteCallback                         4     0      4    2629
                                             30 COMRAM     4     0      4
                   _I2C1_SetCallback
 ---------------------------------------------------------------------------------
 (5) _I2C1_SetBuffer                                       4     0      4    1872
                                             25 COMRAM     4     0      4
 ---------------------------------------------------------------------------------
 (5) _I2C1_SetAddressNackCallback                          4     0      4    2259
                                             30 COMRAM     4     0      4
                   _I2C1_SetCallback
 ---------------------------------------------------------------------------------
 (6) _I2C1_SetCallback                                     5     1      4    1117
                                             25 COMRAM     5     1      4
 ---------------------------------------------------------------------------------
 (5) _I2C1_Open                                            2     2      0     189
                                             27 COMRAM     2     2      0
                _I2C1_MasterClearIrq
               _I2C1_MasterEnableIrq
                    _I2C1_MasterOpen
           _I2C1_SetInterruptHandler
 ---------------------------------------------------------------------------------
 (6) _I2C1_SetInterruptHandler                             2     0      2     121
                                             25 COMRAM     2     0      2
 ---------------------------------------------------------------------------------
 (6) _I2C1_MasterOpen                                      0     0      0       0
 ---------------------------------------------------------------------------------
 (6) _I2C1_MasterEnableIrq                                 0     0      0       0
 ---------------------------------------------------------------------------------
 (5) _I2C1_MasterWrite                                     0     0      0      68
               _I2C1_MasterOperation
 ---------------------------------------------------------------------------------
 (6) _I2C1_MasterOperation                                 2     2      0      68
                                             25 COMRAM     2     2      0
                   _I2C1_MasterStart
 ---------------------------------------------------------------------------------
 (7) _I2C1_MasterStart                                     0     0      0       0
 ---------------------------------------------------------------------------------
 (5) _I2C1_Close                                           1     1      0      37
                                             25 COMRAM     1     1      0
                _I2C1_MasterClearIrq
                   _I2C1_MasterClose
              _I2C1_MasterDisableIrq
 ---------------------------------------------------------------------------------
 (6) _I2C1_MasterDisableIrq                                0     0      0       0
 ---------------------------------------------------------------------------------
 (6) _I2C1_MasterClose                                     0     0      0       0
 ---------------------------------------------------------------------------------
 (6) _I2C1_MasterClearIrq                                  0     0      0       0
 ---------------------------------------------------------------------------------
 (1) ___flge                                              12     4      8     626
                                             25 COMRAM    12     4      8
 ---------------------------------------------------------------------------------
 (1) _SYSTEM_Initialize                                    0     0      0     785
                 _EUSART1_Initialize
                    _I2C1_Initialize
               _INTERRUPT_Initialize
              _OSCILLATOR_Initialize
             _PIN_MANAGER_Initialize
                     _PMD_Initialize
                    _TMR2_Initialize
 ---------------------------------------------------------------------------------
 (2) _TMR2_Initialize                                      0     0      0     211
           _TMR2_SetInterruptHandler
 ---------------------------------------------------------------------------------
 (1) _TMR2_SetInterruptHandler                             2     0      2     211
                                             25 COMRAM     2     0      2
 ---------------------------------------------------------------------------------
 (2) _PMD_Initialize                                       0     0      0       0
 ---------------------------------------------------------------------------------
 (2) _PIN_MANAGER_Initialize                               0     0      0     211
         _IOCAF0_SetInterruptHandler
 ---------------------------------------------------------------------------------
 (3) _IOCAF0_SetInterruptHandler                           2     0      2     211
                                             25 COMRAM     2     0      2
 ---------------------------------------------------------------------------------
 (2) _OSCILLATOR_Initialize                                0     0      0       0
 ---------------------------------------------------------------------------------
 (2) _INTERRUPT_Initialize                                 0     0      0       0
 ---------------------------------------------------------------------------------
 (2) _I2C1_Initialize                                      0     0      0       0
 ---------------------------------------------------------------------------------
 (2) _EUSART1_Initialize                                   0     0      0     363
            _EUSART1_SetErrorHandler
     _EUSART1_SetFramingErrorHandler
     _EUSART1_SetOverrunErrorHandler
 ---------------------------------------------------------------------------------
 (3) _EUSART1_SetOverrunErrorHandler                       2     0      2     121
                                             25 COMRAM     2     0      2
 ---------------------------------------------------------------------------------
 (3) _EUSART1_SetFramingErrorHandler                       2     0      2     121
                                             25 COMRAM     2     0      2
 ---------------------------------------------------------------------------------
 (3) _EUSART1_SetErrorHandler                              2     0      2     121
                                             25 COMRAM     2     0      2
 ---------------------------------------------------------------------------------
 (1) _EUSART1_is_tx_ready                                  1     1      0      37
                                             25 COMRAM     1     1      0
 ---------------------------------------------------------------------------------
 Estimated maximum stack depth 9
 ---------------------------------------------------------------------------------
 (Depth) Function   	        Calls       Base Space   Used Autos Params    Refs
 ---------------------------------------------------------------------------------
 (10) _INTERRUPT_InterruptManager                         10    10      0   17934
                                             15 COMRAM    10    10      0
                   Absolute function *
                     _I2C1_MasterIsr *
                           _TMR2_ISR
 ---------------------------------------------------------------------------------
 (11) _TMR2_ISR                                            0     0      0       0
                   Absolute function *
       _TMR2_DefaultInterruptHandler *
                     _timer_callback *
 ---------------------------------------------------------------------------------
 (12) _timer_callback                                      0     0      0       0
 ---------------------------------------------------------------------------------
 (12) _TMR2_DefaultInterruptHandler                        0     0      0       0
 ---------------------------------------------------------------------------------
 (11) _I2C1_MasterIsr                                      0     0      0   17934
                     _I2C1_MasterFsm
 ---------------------------------------------------------------------------------
 (12) _I2C1_MasterFsm                                      2     2      0   17934
                                             13 COMRAM     2     2      0
               _I2C1_DO_ADDRESS_NACK *
                       _I2C1_DO_IDLE *
                       _I2C1_DO_RCEN *
                      _I2C1_DO_RESET *
                         _I2C1_DO_RX *
                     _I2C1_DO_RX_ACK *
            _I2C1_DO_RX_NACK_RESTART *
               _I2C1_DO_RX_NACK_STOP *
              _I2C1_DO_SEND_ADR_READ *
             _I2C1_DO_SEND_ADR_WRITE *
               _I2C1_DO_SEND_RESTART *
          _I2C1_DO_SEND_RESTART_READ *
         _I2C1_DO_SEND_RESTART_WRITE *
                  _I2C1_DO_SEND_STOP *
                         _I2C1_DO_TX *
                   _I2C1_DO_TX_EMPTY *
                  _I2C1_MasterIsNack
              i2_I2C1_MasterClearIrq
 ---------------------------------------------------------------------------------
 (13) i2_I2C1_MasterClearIrq                               0     0      0       0
 ---------------------------------------------------------------------------------
 (13) _I2C1_DO_TX_EMPTY                                    2     2      0    4467
                                             11 COMRAM     2     2      0
                   Absolute function *
           _I2C1_CallbackReturnReset *
            _I2C1_CallbackReturnStop *
               _I2C1_DO_SEND_RESTART
                  _I2C1_DO_SEND_STOP
                  _I2C1_MasterSetIrq
              _rd1RegCompleteHandler *
              _rd2RegCompleteHandler *
            _rdBlkRegCompleteHandler *
              _wr1RegCompleteHandler *
              _wr2RegCompleteHandler *
 ---------------------------------------------------------------------------------
 (14) _I2C1_MasterSetIrq                                   0     0      0       0
 ---------------------------------------------------------------------------------
 (13) _I2C1_DO_TX                                          2     2      0    4489
                                             11 COMRAM     2     2      0
                   Absolute function *
           _I2C1_CallbackReturnReset *
            _I2C1_CallbackReturnStop *
          _I2C1_DO_SEND_RESTART_READ
         _I2C1_DO_SEND_RESTART_WRITE
                  _I2C1_DO_SEND_STOP
                  _I2C1_MasterIsNack
              _I2C1_MasterSendTxData
              _rd1RegCompleteHandler *
              _rd2RegCompleteHandler *
            _rdBlkRegCompleteHandler *
              _wr1RegCompleteHandler *
              _wr2RegCompleteHandler *
 ---------------------------------------------------------------------------------
 (13) _I2C1_MasterIsNack                                   0     0      0       0
 ---------------------------------------------------------------------------------
 (14) _I2C1_DO_SEND_RESTART_WRITE                          0     0      0       0
           _I2C1_MasterEnableRestart
 ---------------------------------------------------------------------------------
 (14) _I2C1_DO_SEND_RESTART_READ                           0     0      0       0
           _I2C1_MasterEnableRestart
 ---------------------------------------------------------------------------------
 (13) _I2C1_DO_SEND_ADR_WRITE                              0     0      0      22
              _I2C1_MasterSendTxData
 ---------------------------------------------------------------------------------
 (13) _I2C1_DO_SEND_ADR_READ                               0     0      0      22
              _I2C1_MasterSendTxData
 ---------------------------------------------------------------------------------
 (14) _I2C1_MasterSendTxData                               1     1      0      22
                                              0 COMRAM     1     1      0
 ---------------------------------------------------------------------------------
 (13) _I2C1_DO_RX_ACK                                      0     0      0       0
                 _I2C1_MasterSendAck
 ---------------------------------------------------------------------------------
 (13) _I2C1_DO_RX                                          2     2      0    4467
                                             11 COMRAM     2     2      0
                   Absolute function *
           _I2C1_CallbackReturnReset *
            _I2C1_CallbackReturnStop *
            _I2C1_DO_RX_NACK_RESTART
               _I2C1_DO_RX_NACK_STOP
               _I2C1_MasterGetRxData
                 _I2C1_MasterSendAck
              _rd1RegCompleteHandler *
              _rd2RegCompleteHandler *
            _rdBlkRegCompleteHandler *
              _wr1RegCompleteHandler *
              _wr2RegCompleteHandler *
 ---------------------------------------------------------------------------------
 (14) _I2C1_MasterSendAck                                  0     0      0       0
 ---------------------------------------------------------------------------------
 (14) _I2C1_MasterGetRxData                                0     0      0       0
 ---------------------------------------------------------------------------------
 (13) _I2C1_DO_RX_NACK_STOP                                0     0      0       0
                _I2C1_MasterSendNack
 ---------------------------------------------------------------------------------
 (13) _I2C1_DO_RX_NACK_RESTART                             0     0      0       0
                _I2C1_MasterSendNack
 ---------------------------------------------------------------------------------
 (14) _I2C1_MasterSendNack                                 0     0      0       0
 ---------------------------------------------------------------------------------
 (13) _I2C1_DO_RESET                                       0     0      0       0
 ---------------------------------------------------------------------------------
 (13) _I2C1_DO_RCEN                                        0     0      0       0
                 _I2C1_MasterStartRx
 ---------------------------------------------------------------------------------
 (14) _I2C1_MasterStartRx                                  0     0      0       0
 ---------------------------------------------------------------------------------
 (13) _I2C1_DO_IDLE                                        0     0      0       0
 ---------------------------------------------------------------------------------
 (13) _I2C1_DO_ADDRESS_NACK                                2     2      0    4467
                                             11 COMRAM     2     2      0
                   Absolute function *
           _I2C1_CallbackReturnReset *
            _I2C1_CallbackReturnStop *
               _I2C1_DO_SEND_RESTART
                  _I2C1_DO_SEND_STOP
              _rd1RegCompleteHandler *
              _rd2RegCompleteHandler *
            _rdBlkRegCompleteHandler *
              _wr1RegCompleteHandler *
              _wr2RegCompleteHandler *
 ---------------------------------------------------------------------------------
 (14) _wr2RegCompleteHandler                               2     0      2     836
                                              9 COMRAM     2     0      2
                   i2_I2C1_SetBuffer
     i2_I2C1_SetDataCompleteCallback
 ---------------------------------------------------------------------------------
 (14) _wr1RegCompleteHandler                               2     0      2     836
                                              9 COMRAM     2     0      2
                   i2_I2C1_SetBuffer
     i2_I2C1_SetDataCompleteCallback
 ---------------------------------------------------------------------------------
 (14) _rdBlkRegCompleteHandler                             2     0      2     858
                                              9 COMRAM     2     0      2
                   i2_I2C1_SetBuffer
     i2_I2C1_SetDataCompleteCallback
 ---------------------------------------------------------------------------------
 (14) _rd2RegCompleteHandler                               2     0      2     836
                                              9 COMRAM     2     0      2
                   i2_I2C1_SetBuffer
     i2_I2C1_SetDataCompleteCallback
 ---------------------------------------------------------------------------------
 (14) _rd1RegCompleteHandler                               2     0      2     836
                                              9 COMRAM     2     0      2
                   i2_I2C1_SetBuffer
     i2_I2C1_SetDataCompleteCallback
 ---------------------------------------------------------------------------------
 (15) i2_I2C1_SetDataCompleteCallback                      4     0      4     510
                                              5 COMRAM     4     0      4
                 i2_I2C1_SetCallback
 ---------------------------------------------------------------------------------
 (16) i2_I2C1_SetCallback                                  5     1      4     206
                                              0 COMRAM     5     1      4
 ---------------------------------------------------------------------------------
 (15) i2_I2C1_SetBuffer                                    4     0      4     304
                                              0 COMRAM     4     0      4
 ---------------------------------------------------------------------------------
 (14) _I2C1_DO_SEND_STOP                                   0     0      0       0
                    _I2C1_MasterStop
 ---------------------------------------------------------------------------------
 (15) _I2C1_MasterStop                                     0     0      0       0
 ---------------------------------------------------------------------------------
 (14) _I2C1_DO_SEND_RESTART                                0     0      0       0
           _I2C1_MasterEnableRestart
 ---------------------------------------------------------------------------------
 (15) _I2C1_MasterEnableRestart                            0     0      0       0
 ---------------------------------------------------------------------------------
 (14) _I2C1_CallbackReturnStop                             2     0      2       0
                                              9 COMRAM     2     0      2
 ---------------------------------------------------------------------------------
 (14) _I2C1_CallbackReturnReset                            2     0      2     265
                                              9 COMRAM     2     0      2
 ---------------------------------------------------------------------------------
 (12) Absolute function(Fake)                              0     0      0       0
 ---------------------------------------------------------------------------------
 Estimated maximum stack depth 16
 ---------------------------------------------------------------------------------

 Call Graph Graphs:

 _main (ROOT)
   _EUSART1_is_tx_ready
   _IOCAF0_SetInterruptHandler
   _SYSTEM_Initialize
     _EUSART1_Initialize
       _EUSART1_SetErrorHandler
       _EUSART1_SetFramingErrorHandler
       _EUSART1_SetOverrunErrorHandler
     _I2C1_Initialize
     _INTERRUPT_Initialize
     _OSCILLATOR_Initialize
     _PIN_MANAGER_Initialize
       _IOCAF0_SetInterruptHandler
     _PMD_Initialize
     _TMR2_Initialize
       _TMR2_SetInterruptHandler
   _TMR2_SetInterruptHandler
   ___flge
   _hallRead
     _I2C1_Read1ByteRegister
       _I2C1_Close
         _I2C1_MasterClearIrq
         _I2C1_MasterClose
         _I2C1_MasterDisableIrq
       _I2C1_MasterWrite
         _I2C1_MasterOperation
           _I2C1_MasterStart
       _I2C1_Open
         _I2C1_MasterClearIrq
         _I2C1_MasterEnableIrq
         _I2C1_MasterOpen
         _I2C1_SetInterruptHandler
       _I2C1_SetAddressNackCallback
         _I2C1_SetCallback
       _I2C1_SetBuffer
       _I2C1_SetDataCompleteCallback
         _I2C1_SetCallback
   _motorFaultRead
     _I2C1_Read1ByteRegister
   _motorTrigger
     _motorDeploy
       _motorController
         _I2C1_Write1ByteRegister
           _I2C1_Close
           _I2C1_MasterWrite
           _I2C1_Open
           _I2C1_SetAddressNackCallback
           _I2C1_SetBuffer
           _I2C1_SetDataCompleteCallback
     _motorStow
       _motorController
   _printf
     _vfprintf
       _vfpfcnvrt
         _atoi
           ___wmul
           _isdigit
           _isspace
         _dtoa
           ___aodiv
           ___aomod
           _abs
             ___aomod (ARG)
           _pad
             _fputc
               _putch
                 _EUSART1_Write
             _fputs
               _fputc
         _fputc
         _isdigit
         _utoa
           ___lodiv
           ___lomod
           _pad
   _system_init
     _TMR2_StartTimer
       _TMR2_Start
     _hallInit
       _hallRead
     _motorStop
       _motorController
   _tempRead
     _I2C1_Read1ByteRegister
   _windSpeedCalc
     ___fldiv
       ___flmul (ARG)
     ___flmul
     ___lwdiv
     ___xxtofl
       ___lwdiv (ARG)
     _hallRecord
       _TMR2_ReadTimer
         _TMR2_Counter8BitGet
       _hallRead

 _INTERRUPT_InterruptManager (ROOT)
   Absolute function(Fake) *
   _I2C1_MasterIsr *
     _I2C1_MasterFsm
       _I2C1_DO_ADDRESS_NACK *
         Absolute function(Fake) *
         _I2C1_CallbackReturnReset *
         _I2C1_CallbackReturnStop *
         _I2C1_DO_SEND_RESTART *
           _I2C1_MasterEnableRestart
         _I2C1_DO_SEND_STOP *
           _I2C1_MasterStop
         _rd1RegCompleteHandler *
           i2_I2C1_SetBuffer
           i2_I2C1_SetDataCompleteCallback
             i2_I2C1_SetCallback
         _rd2RegCompleteHandler *
           i2_I2C1_SetBuffer
           i2_I2C1_SetDataCompleteCallback
         _rdBlkRegCompleteHandler *
           i2_I2C1_SetBuffer
           i2_I2C1_SetDataCompleteCallback
         _wr1RegCompleteHandler *
           i2_I2C1_SetBuffer
           i2_I2C1_SetDataCompleteCallback
         _wr2RegCompleteHandler *
           i2_I2C1_SetBuffer
           i2_I2C1_SetDataCompleteCallback
       _I2C1_DO_IDLE *
       _I2C1_DO_RCEN *
         _I2C1_MasterStartRx
       _I2C1_DO_RESET *
       _I2C1_DO_RX *
         Absolute function(Fake) *
         _I2C1_CallbackReturnReset *
         _I2C1_CallbackReturnStop *
         _I2C1_DO_RX_NACK_RESTART *
           _I2C1_MasterSendNack
         _I2C1_DO_RX_NACK_STOP *
           _I2C1_MasterSendNack
         _I2C1_MasterGetRxData *
         _I2C1_MasterSendAck *
         _rd1RegCompleteHandler *
         _rd2RegCompleteHandler *
         _rdBlkRegCompleteHandler *
         _wr1RegCompleteHandler *
         _wr2RegCompleteHandler *
       _I2C1_DO_RX_ACK *
         _I2C1_MasterSendAck
       _I2C1_DO_RX_NACK_RESTART *
       _I2C1_DO_RX_NACK_STOP *
       _I2C1_DO_SEND_ADR_READ *
         _I2C1_MasterSendTxData
       _I2C1_DO_SEND_ADR_WRITE *
         _I2C1_MasterSendTxData
       _I2C1_DO_SEND_RESTART *
       _I2C1_DO_SEND_RESTART_READ *
         _I2C1_MasterEnableRestart
       _I2C1_DO_SEND_RESTART_WRITE *
         _I2C1_MasterEnableRestart
       _I2C1_DO_SEND_STOP *
       _I2C1_DO_TX *
         Absolute function(Fake) *
         _I2C1_CallbackReturnReset *
         _I2C1_CallbackReturnStop *
         _I2C1_DO_SEND_RESTART_READ *
         _I2C1_DO_SEND_RESTART_WRITE *
         _I2C1_DO_SEND_STOP *
         _I2C1_MasterIsNack *
         _I2C1_MasterSendTxData *
         _rd1RegCompleteHandler *
         _rd2RegCompleteHandler *
         _rdBlkRegCompleteHandler *
         _wr1RegCompleteHandler *
         _wr2RegCompleteHandler *
       _I2C1_DO_TX_EMPTY *
         Absolute function(Fake) *
         _I2C1_CallbackReturnReset *
         _I2C1_CallbackReturnStop *
         _I2C1_DO_SEND_RESTART *
         _I2C1_DO_SEND_STOP *
         _I2C1_MasterSetIrq *
         _rd1RegCompleteHandler *
         _rd2RegCompleteHandler *
         _rdBlkRegCompleteHandler *
         _wr1RegCompleteHandler *
         _wr2RegCompleteHandler *
       _I2C1_MasterIsNack *
       i2_I2C1_MasterClearIrq *
   _TMR2_ISR *
     Absolute function(Fake) *
     _TMR2_DefaultInterruptHandler *
     _timer_callback *

 Address spaces:
Name               Size   Autos  Total    Cost      Usage
BIGRAM             E87      0       0      59        0.0%
EEDATA             400      0       0       0        0.0%
BITBANK13          100      0       0      30        0.0%
BANK13             100      0       0      31        0.0%
BITBANK12          100      0       0      28        0.0%
BANK12             100      0       0      29        0.0%
BITBANK11          100      0       0      26        0.0%
BANK11             100      0       0      27        0.0%
BITBANK10          100      0       0      24        0.0%
BANK10             100      0       0      25        0.0%
BITBANK9           100      0       0      22        0.0%
BANK9              100      0       0      23        0.0%
BITBANK8           100      0       0      20        0.0%
BANK8              100      0       0      21        0.0%
BITBANK7           100      0       0      18        0.0%
BANK7              100      0       0      19        0.0%
BITBANK6           100      0       0      16        0.0%
BANK6              100      0       0      17        0.0%
BITBANK5           100      0       0      14        0.0%
BANK5              100      0       0      15        0.0%
BITBANK4           100      0       0      12        0.0%
BANK4              100      0       0      13        0.0%
BITBANK3           100      0       0      10        0.0%
BANK3              100      0       0      11        0.0%
BITBANK2           100      0       0       8        0.0%
BANK2              100      0       0       9        0.0%
BITBANK1           100      0       0       6        0.0%
BANK1              100      D       D       7        5.1%
BITBANK0            A0      0       0       4        0.0%
BANK0               A0     52      9C       5       97.5%
BITBANK14           88      0       0      32        0.0%
BANK14              88      0       0      33        0.0%
BITCOMRAM           5E      0       0       0        0.0%
COMRAM              5E     2C      45       1       73.4%
BITBIGSFRlhh        55      0       0      42        0.0%
BITBIGSFRhhhlhh     31      0       0      35        0.0%
BITBIGSFRllllll     28      0       0      57        0.0%
BITBIGSFRhhhlhl     1B      0       0      36        0.0%
BITBIGSFRlllllh     13      0       0      49        0.0%
BITBIGSFRhhhh        D      0       0      34        0.0%
BITBIGSFRlllllh      C      0       0      47        0.0%
BITBIGSFRlllllh      C      0       0      55        0.0%
BITBIGSFRlllllh      9      0       0      53        0.0%
BITBIGSFRlhll        8      0       0      44        0.0%
BITBIGSFRlllllh      6      0       0      54        0.0%
BITBIGSFRhhllh       4      0       0      39        0.0%
BITBIGSFRlllh        3      0       0      46        0.0%
BITBIGSFRllh         3      0       0      45        0.0%
BITBIGSFRlllllh      2      0       0      50        0.0%
BITBIGSFRlhlh        2      0       0      43        0.0%
BITBIGSFRhhlll       2      0       0      40        0.0%
BITBIGSFRhl          2      0       0      41        0.0%
BITBIGSFRlllllh      1      0       0      51        0.0%
BITBIGSFRlllllh      1      0       0      52        0.0%
BITBIGSFRhhlh        1      0       0      38        0.0%
BITBIGSFRhhhlll      1      0       0      37        0.0%
BITBIGSFRlllllh      1      0       0      48        0.0%
BITBIGSFRllllll      1      0       0      56        0.0%
BIGSFR               0      0       0     200        0.0%
BITSFR_2             0      0       0     200        0.0%
SFR_2                0      0       0     200        0.0%
BITSFR_1             0      0       0     200        0.0%
SFR_1                0      0       0     200        0.0%
BITSFR               0      0       0     200        0.0%
SFR                  0      0       0     200        0.0%
STACK                0      0       0       2        0.0%
NULL                 0      0       0       0        0.0%
ABS                  0      0      EE      58        0.0%
DATA                 0      0      EE       3        0.0%
CODE                 0      0       0       0        0.0%


Microchip Technology PIC18 Macro Assembler V2.40 build 20220703182018 
Symbol Table                                                                                   Thu Mar 23 22:44:46 2023

              __end_of_TMR2_SetInterruptHandler 3AF6                                    ___fldiv@aexp 0081  
                                  ___fldiv@bexp 0080                                    ___fldiv@sign 0079  
                                            l35 31F0                                              l53 32CE  
                           ___wmul@multiplicand 001C                             __end_of_system_init 3A88  
                                           l300 3A60                                             l320 3B2C  
                                           l304 2E82                                             l314 35BC  
                                           l330 39EE                                             l308 36F0  
                                           l190 3AFE                                             l350 308E  
                                           l511 3B7E                                             l327 38E2  
                                           l520 3B8A                                             l336 3A06  
                                           l345 3AEA                                             l179 2F98  
                                           l701 3B1C                                             l517 3B84  
                                           l472 3BB4                                             l650 363A  
                                           l490 3BB0                                             l571 3986  
                                           l469 394A                                             l654 3848  
                                           l574 3A1E                                             l902 3338  
                                           l655 384A                                             l831 3A86  
                                           l736 371C                                             l912 34B0  
                                           l760 3B72                                             l577 39BE  
                                           l745 3BAC                                             l594 3BB8  
                                           l674 39C2                                             l907 38BE  
                                           l683 3AE0                                             l748 3B78  
                                           l677 39D6                                             l925 3AB2  
                                           l757 3B24                                             l918 3968  
                                           l695 3B12                                             l928 3898  
                                           l880 37F6                                             l698 3B08  
                                           l874 3A4C                                             l779 3AF4  
                                           l883 2906                                             l877 3820  
                                           l896 39A2                                             l899 33A2  
                                           _PR2 000FBC                               ?i2_I2C1_SetBuffer 0001  
                         ?_I2C1_MasterOperation 0001                                             _abs 353C  
                                           _pad 2C92                                 _TMR2_Initialize 36F2  
                                           prod 000FF3                                             tosl 000FFD  
                                           wreg 000FE8                          ?_I2C1_MasterSendTxData 0001  
                          _I2C1_DO_RX_NACK_STOP 3B36                                    ___flmul@aexp 0061  
                     ?_I2C1_MasterEnableRestart 0001                                    ___flmul@bexp 0066  
                      fp__I2C1_DO_SEND_ADR_READ 0000                              ??i2_I2C1_SetBuffer 0005  
                       fp__I2C1_DO_SEND_RESTART 0000                                    ___flmul@sign 0060  
                                  ___flmul@temp 006B                                    ___flmul@prod 0067  
                          I2C1_SetBuffer@buffer 001A                                            l1042 2538  
                                          ?_abs 0060                         ??_rd2RegCompleteHandler 000C  
                                          l1055 269C                                            l1510 1B78  
                                          l1512 19D8                                            l1193 29C4  
                                          l1521 1A1E                                            l1426 317C  
                                          l1523 1A96                                            l1515 199C  
                                          l1419 3174                                            l1524 1A84  
                                          l1373 2AFC                                            l1198 2A0A  
                                          l1366 2ADC                                            l1606 3872  
                                          l1542 1060                                            l1711 357C  
                                          l1383 2BCC                                            l1551 12CE  
                                          l1376 2BAC                                            l1704 345C  
                                          l1552 12BC                                            l1633 2CD8  
                                          l1546 13C4                                            l1643 1C06  
                                          l1708 3574                                            l1636 2D1C  
                                          l1733 27E8                                            l1645 1C0E  
                                          l1661 205A                                            l1549 1256  
                                          l1638 2D3E                                            l1646 1C54  
                                          l1590 22EA                                            l1663 2062  
                                          l1559 1386                                            l1583 2252  
                                          l1736 27F0                                            l6000 21D6  
                                          l1657 1DF8                                            l6010 26B6  
                                          l1762 2F18                                            l1770 353A  
                                          l1586 23AE                                            l1739 36C4  
                                          l1747 34F6                                            l6020 2750  
                                          l6012 26D4                                            l6004 269E  
                                          l1692 17DC                                            l6100 15B6  
                                          l1669 21F6                                            l1597 2346  
                                          l6030 27CC                                            l6014 270A  
                                          l6006 26B2                                            l6110 1696  
                                          l6102 15F2                                            l6040 3B00  
                                          l6200 361E                                            l7000 349A  
                                          l6016 2712                                            l6104 1602  
                                          l6042 3B14                                            l6202 362A  
                                          l6026 2788                                            l6018 271A  
                                          l6114 16C6                                            l6106 1620  
                                          l6130 17B2                                            l6210 3A44  
                                          l6204 3636                                            l6036 3AF6  
                                          l6044 3AEC                                            l6220 333A  
                                          l6028 27BA                                            l6124 1772  
                                          l6116 16E4                                            l6108 163E  
                                          l6060 13C6                                            l6052 37F8  
                                          l6212 394C                                            l6300 1930  
                                          l6038 3B0A                                            l6150 2F62  
                                          l6142 2F1A                                            l6222 3348  
                                          l6230 32D0                                            l6118 1742  
                                          l6126 17A0                                            l6070 1430  
                                          l6062 13EC                                            l6046 3BAA  
                                          l6206 3B74                                            l6310 1978  
                                          l6302 1940                                            l6214 37CE  
                                          ?_pad 0060                                            l6160 2F70  
                                          l6152 2F64                                            l6144 2F5C  
                                          l6056 398A                                            l6224 3360  
                                          l6232 32DE                                            l6072 1466  
                                          l6064 13FA                                            l6208 3A38  
                                          l6320 19C6                                            l6312 198C  
                                          l6304 1950                                            l6240 17DE  
                                          l6400 1018                                            l6048 3B6E  
                                          l6216 37DE                                            l6170 2F8C  
                                          l6162 2F72                                            l6154 2F66  
                                          l6146 2F5E                                            l5610 3584  
                                          l5602 3B7A                                            l6058 3994  
                                          l6226 336E                                            l6234 32F6  
                                          l6090 1528                                            l6082 14B0  
                                          l6074 1474                                            l6066 1406  
                                          l6330 1A0E                                            l6322 19D6  
                                          l6314 199A                                            l6306 1960  
                                          l6250 181C                                            l6242 17EC  
                                          l6410 1050                                            l6402 101A  
                                          l6218 37EA                                            l6180 3BB6  
                                          l6172 2F90                                            l6164 2F7E  
                                          l6156 2F6C                                            l6148 2F60  
                                          l5604 3B80                                            l5620 35B2  
                                          l5612 3594                                            l5700 38D8  
                                          l6228 337C                                            l6236 3304  
                                          l6092 154E                                            l6084 14EC  
                                          l6076 1482                                            l6068 140A  
                                          l6340 1A4E                                            l6332 1A1C  
                                          l6324 19E8                                            l6316 19A6  
                                          l6308 1968                                            l6260 184C  
                                          l6252 182C                                            l6244 17FA  
                                          l6500 13AA                                            l6420 10A0  
                                          l6412 1070                                            l6404 102A  
                                          l6174 2F94                                            l6166 2F84  
                                          l6158 2F6E                                            l6182 39A4  
                                          l6190 370A                                            l5606 3BB2  
                                          l5710 36C6                                            l5622 35B6  
                                          l5614 3596                                            l5630 302A  
                                          l5702 38E0                                            l6238 3312  
                                          l6094 1588                                            l6086 1512  
                                          l6078 14A2                                            l6350 1AC0  
                                          l6342 1A7C                                            l6326 19FE  
                                          l6334 1A2E                                            l6318 19C4  
                                          l6270 1882                                            l6262 1852  
                                          l6254 182E                                            l6246 17FC  
                                          l6502 13B0                                            l6430 10F0  
                                          l6422 10AA                                            l6414 1080  
                                          l6406 103A                                            l6510 3112  
                                          l6600 3822                                            l6176 3A4E  
                                          l6184 3A08                                            l6168 2F88  
                                          l6192 370C                                            l5720 36EE  
                                          l5712 36CA                                            l5616 359A  
                                          l5624 35BA                                            l5608 3580  
                                          l5632 305E                                            l5704 39F0  
                                          l5800 2646                                            l5640 351A  
                                          l6096 15A8                                            l6088 151A  
                                          l6360 1B38                                            l6352 1AEA  
                                          l6336 1A3C                                            l6328 1A04  
                                          l6280 18C2                                            l6272 1892  
                                          l6264 1860                                            l6248 180C  
                                          l6256 1836                                            l6504 13B4  
                                          l6440 1132                                            l6432 10FC  
                                          l6424 10C0                                            l6408 104A  
                                          l6520 3148                                            l6512 3124  
                                          l6602 3826                                            l6178 3A5E  
                                          l6194 3718                                            l6186 36F2  
                                          l5714 36DA                                            l5618 35AA  
                                          l5706 3B26                                            l5650 2E02  
                                          l5642 2DE8                                            l5730 23B0  
                                          l5802 264C                                            l5570 39D2  
                                          l5634 34F8                                            l5810 2A0C  
                                          l6610 3A76                                            l6370 1B6E  
                                          l6362 1B54                                            l6346 1AA6  
                                          l6354 1AEE                                            l6338 1A40  
                                          l6282 18D2                                            l6290 18F2  
                                          l6274 1894                                            l6266 1862  
                                          l6258 1846                                            l6450 1194  
                                          l6442 1142                                            l6434 110A  
                                          l6426 10CC                                            l6418 1094  
                                          l6522 315E                                            l6514 312C  
                                          l6530 21FC                                            l6604 3836  
                                          l6196 35FE                                            l6188 3706  
                                          l5716 36DE                                            l5660 2E14  
                                          l5652 2E04                                            l5644 2DEC  
                                          l5628 3018                                            l5900 31EE  
                                          l5724 3874                                            l5740 23F6  
                                          l5732 23B6                                            l5804 265C  
                                          l5572 3ADA                                            l5580 2EA8  
                                          l5636 3504                                            l5820 2A62  
                                          l5812 2A18                                            l6612 3A7A  
                                          l6364 1B58                                            l6356 1B08  
                                          l6348 1AB2                                            l6292 1902  
                                          l6284 18DA                                            l6268 1872  
                                          l6276 189C                                            l6460 123C  
                                          l6452 11B0                                            l6444 115C  
                                          l6436 1116                                            l6428 10E4  
                                          l6380 0FA8                                            l6524 3166  
                                          l6516 3134                                            l6508 310A  
                                          l6532 220E                                            l6606 3844  
                                          l6198 3612                                            l5718 36EA  
                                          l5574 3BAE                                            l5590 3AE2  
                                          l5670 2E3C                                            l5662 2E1C  
                                          l5654 2E06                                            l5646 2DFC  
                                          l5910 328E                                            l5726 3890  
                                          l5750 244C                                            l5742 2416  
                                          l5734 23C4                                            l5806 267C  
                                          l5582 2EB2                                            l5638 3516  
                                          l5830 2AD6                                            l5822 2A74  
                                          l5814 2A36                                            l6614 3A7E  
                                          l6366 1B66                                            l6358 1B1E  
                                          l6294 1902                                            l6286 18DE  
                                          l6278 18AC                                            l6470 1278  
                                          l6462 1246                                            l6454 11DA  
                                          l6446 116C                                            l6438 1126  
                                          l6390 0FE8                                            l6382 0FB6  
                                          l6526 3168                                            l6518 3142  
                                          l6550 22D4                                            l6542 228C  
                                          l6534 221C                                            l6630 289C  
                                          l6622 27F2                                            l5592 3B86  
                                          l5680 2E64                                            l5672 2E44  
                                          l5664 2E24                                            l5656 2E0A  
                                          l5648 2E00                                            l5912 32A2  
                                          l5904 3264                                            l5760 24CE  
                                          l5752 2460                                            l5744 241A  
                                          l5736 23E4                                            l5568 39C2  
                                          l5584 2ED0                                            l5576 2E84  
                                          l5824 2AA2                                            l5816 2A40  
                                          l5840 2B46                                            l5832 2AFE  
                                          l6616 3A82                                            l6368 1B6C  
                                          l6480 12EA                                            l6472 1286  
                                          l6464 1254                                            l6456 1210  
                                          l6448 1188                                            l6392 0FEE  
                                          l6384 0FB8                                            l6528 316E  
                                          l6560 2354                                            l6552 22E0  
                                          l6544 2294                                            l6536 2262  
                                          l5920 3B22                                            l6632 28F6  
                                          l6624 27F6                                            l6800 1E12  
                                          l5594 392A                                            l5682 2E70  
                                          l5674 2E4C                                            l5666 2E2C  
                                          l5658 2E12                                            l5690 2E80  
                                          l6642 3470                                            l5914 32B6  
                                          l5906 3264                                            l5770 2518  
                                          l5762 24D0                                            l5754 246E  
                                          l5746 2426                                            l5738 23E8  
                                          l5586 2F06                                            l5578 2E96  
                                          l5850 2CA0                                            l5930 1BC0  
                                          l5826 2AC2                                            l5818 2A54  
                                          l5842 2B74                                            l5834 2B1C  
                                          l6618 3AA8                                            l6298 1916  
                                          l6490 1354                                            l6482 12F8  
                                          l6474 12B4                                            l6466 1266  
                                          l6458 121E                                            l6394 0FFE  
                                          l6386 0FC8                                            l6378 0F9A  
                                          l6570 239C                                            l6562 2356  
                                          l6554 231C                                            l6546 22A0  
                                          l6538 2278                                            l6626 2834  
                                          l6810 1E44                                            l6802 1E1E  
                                          l5596 3938                                            l5684 2E74  
                                          l5676 2E54                                            l5668 2E34  
                                          l6652 3484                                            l6636 345E  
                                          l5916 32BA                                            l5908 327A  
                                          l6660 38AA                                            l5764 24E2  
                                          l5756 2480                                            l5748 2444  
                                          l5780 256C                                            l5860 2CF8  
                                          l5852 2CB4                                            l5940 1C2C  
                                          l5932 1BE0                                            l5924 1B7A  
                                          l5828 2AC4                                            l5844 2B94  
                                          l5836 2B24                                            l6580 3434  
                                          l6492 136E                                            l6484 1322  
                                          l6468 1274                                            l6396 1004  
                                          l6388 0FD8                                            l6572 239E  
                                          l6564 235A                                            l6556 2328  
                                          l6548 22D2                                            l6628 2868  
                                          l6820 1E94                                            l6812 1E58  
                                          l6804 1E28                                            l6590 3972  
                                          l5598 3948                                            l5686 2E78  
                                          l5678 2E5C                                            l5694 39D8  
                                          l6646 347E                                            l6638 3462  
                                          l6662 38AE                                            l5870 369A  
                                          l5758 24AE                                            l5766 24E8  
                                          l5790 25C4                                            l5782 2570  
                                          l5774 253A                                            l5862 2CFE  
                                          l5854 2CC4                                            l5950 1C64  
                                          l5942 1C3C                                            l5934 1BFA  
                                          l5926 1B9A                                            l5846 2BA6  
                                          l5838 2B38                                            l6582 3452  
                                          l6670 3856                                            l6494 138A  
                                          l6478 12DE                                            l6486 1326  
                                          l6398 100A                                            l6566 237E  
                                          l6558 2336                                            l5918 3B1E  
                                          l6830 1F3C                                            l6822 1EC6  
                                          l6814 1E66                                            l6806 1E30  
                                          l6592 3976                                            l6680 2974  
                                          l5688 2E7C                                            l5696 38C0  
                                          l6664 38B6                                            l5880 34EC  
                                          l5768 24F8                                            l5792 25D8  
                                          l5784 257E                                            l5776 253E  
                                          l5864 2D2A                                            l5856 2CD0  
                                          l5848 2C92                                            l5952 1C6A  
                                          l5960 1D5E                                            l5944 1C48  
                                          l5936 1C16                                            l5928 1BB0  
                                          l6576 340A                                            l6496 139A  
                                          l6488 1340                                            l6568 238E  
                                          l6840 1FF2                                            l6832 1F40  
                                          l6824 1EE4                                            l6816 1E76  
                                          l6808 1E38                                            l6594 397A  
                                          l6586 396A                                            l6690 2A02  
                                          l6682 2984                                            l6674 2908  
                                          l5698 38D0                                            l5890 319A  
                                          l6666 38BA                                            l6658 389A  
                                          l5882 34F0                                            l5874 34B2  
                                          l5794 25E6                                            l5786 259E  
                                          l5778 254C                                            l5866 353C  
                                          l5858 2CE4                                            l5970 1DC8  
                                          l5962 1D7A                                            l5954 1CEE  
                                          l5946 1C50                                            l5938 1C26  
                                          l6578 3416                                            l6498 13A8  
                                          l6842 2018                                            l6826 1EEC  
                                          l6818 1E84                                            l6596 397E  
                                          l6588 396E                                            l6692 2A08  
                                          l6684 2992                                            l6676 2936  
                                          l5892 31AE                                            l5876 34B6  
                                          l5796 2614                                            l5788 25BC  
                                          l5868 3558                                            l5972 1DD8  
                                          l5964 1D98                                            l5956 1CF4  
                                          l5948 1C5C                                            l5980 208A  
                                          l6668 384C                                            l6828 1F1E  
                                          l6836 1F4A                                            l6598 3982  
                                          l6686 29A4                                            l6678 2946  
                                          l5894 31C2                                            l5886 3180  
                                          l5878 34CA                                            l5798 2634  
                                          l5966 1DB2                                            l5958 1CFA  
                                          l5990 2120                                            l5982 2094  
                                          l6838 1F5E                                            l6790 1DFA  
                                          l6688 29B2                                            l5896 31D6  
                                          l5888 3184                                            l5968 1DC2  
                                          l5992 2126                                            l5984 209C  
                                          l5976 2032                                            l6792 1DFE  
                                          l5898 31DA                                            l5986 20A2  
                                          l5994 218A                                            l5978 204C  
                                          l6794 1E02                                            l5996 219E  
                                          l5988 211A                                            l6796 1E04  
                                          l5998 21BC                                            l6798 1E06  
                                          l6996 1792                                            l6998 273A  
                                          STR_1 0F54                                            STR_2 0F7F  
                                          STR_3 0F8C                                            STR_4 0F6A  
                                          STR_5 0F21                                            STR_6 0F3B  
                                          _LATA 000F83                                            _LATB 000F84  
                                          _LATC 000F85                                            u4200 35AA  
                                          u5000 1A1C                                            u4201 35A6  
                                          u5001 1A18                                            u4210 302A  
                                          u4130 39D2                                            u5010 1A3C  
                                          _T2PR 000FBC                                            u4211 3026  
                                          u4131 39CE                                            u5011 1A38  
                                          u4300 246E                                            u4140 2E96  
                                          u4220 353A                                            u5020 1A4E  
                                          u5100 0FB6                                            u4301 246A  
                                          u4141 2E92                                            u4221 3536  
                                          u5021 1A4A                                            u5101 0FB2  
                                          u4230 2DFC                                            u4310 24AE  
                                          u4150 2EA8                                            u5030 1A7C  
                                          u5110 0FC8                                            u4231 2DF8  
                                          u4311 24AA                                            u4151 2EA4  
                                          u5031 1A78                                            u5111 0FC4  
                                          u4240 38D0                                            u4320 24F8  
                                          u4160 2ED0                                            u4400 2A36  
                                          u5040 1A92                                            u5200 1274  
                                          u5120 0FD8                                            u4241 38CC  
                                          u4321 24F4                                            u4161 2ECC  
                                          u4401 2A32                                            u5041 1A8E  
                                          u5201 1270                                            u5121 0FD4  
                                          u4250 36DA                                            u4330 254C  
                                          u4170 2F06                                            u4410 2A62  
                                          u5050 1AA6                                            u5210 1286  
                                          u5130 1018                                            u4251 36D6  
                                          u4331 2548                                            u4171 2F02  
                                          u4411 2A5E                                            u5051 1AA2  
                                          u5211 1282                                            u5131 1014  
                                          u4180 3938                                            u4260 23C4  
                                          u4340 257E                                            u4500 3558  
                                          u4420 2AA2                                            u5060 1AC0  
                                          u5220 12B4                                            u5140 102A  
                                          u5300 3142                                            u4181 3934  
                                          u4261 23C0                                            u4341 257A  
                                          u4501 3554                                            u4421 2A9E  
                                          u5061 1ABC                                            u5221 12B0  
                                          u5141 1026                                            u5301 313E  
                                          u4190 3594                                            u4510 36BE  
                                          u4270 23F6                                            u4350 25BC  
                                          u4430 2B1C                                            u5070 1B08  
                                          u5230 12CA                                            u5150 103A  
                                          u5310 315E                                            u4191 3590  
                                          u4511 36B8                                            u4271 23F2  
                                          u4351 25B8                                            u4431 2B18  
                                          u5071 1B04                                            u5231 12C6  
                                          u5151 1036                                            u5311 315A  
                                          u4520 36C0                                            u4360 25E6  
                                          u4600 1BAE                                            u4440 2B46  
                                          u5080 1B38                                            u5240 12DE  
                                          u5160 1070                                            u5400 238E  
                                          u5320 220E                                            u4281 2420  
                                          u4361 25E2                                            u4441 2B42  
                                          u5081 1B34                                            u5241 12DA  
                                          u5161 106C                                            u5401 238A  
                                          u5321 220A                                            u4530 34CA  
                                          u4290 2444                                            u4370 2614  
                                          u4610 1BC0                                            u4450 2B74  
                                          u5090 1B66                                            u5250 12F8  
                                          u5170 1080                                            u5410 239C  
                                          u5330 221C                                            u4531 34C6  
                                          u4291 2440                                            u4371 2610  
                                          u4611 1BBC                                            u4451 2B70  
                                          u5091 1B62                                            u5251 12F4  
                                          u5171 107C                                            u5411 2398  
                                          u5331 2218                                            u5500 2A02  
                                          u4540 34EC                                            u4380 265C  
                                          u4460 2CA0                                            u4620 1BFA  
                                          u4700 219E                                            u5420 3452  
                                          u5260 1340                                            u5180 11FA  
                                          u5340 2278                                            _PMD0 000EE1  
                                          u5501 29FE                                            u4541 34E8  
                                          u4381 2658                                            u4461 2C9C  
                                          u4621 1BF6                                            u4701 219A  
                                          u5421 344E                                            u5261 133C  
                                          u5341 2274                                            _PMD1 000EE2  
                                          u5430 3836                                            u4550 319A  
                                          u4470 2CC4                                            u4630 1C26  
                                          u4710 21BC                                            u5270 136E  
                                          u5190 1254                                            u5350 22CE  
                                          _PMD2 000EE3                                            u5431 3832  
                                          u4551 3196                                            u4471 2CC0  
                                          u4631 1C22                                            u4391 2A12  
                                          u4711 21B8                                            u5271 136A  
                                          u5191 1250                                            u5351 22CA  
                                          _PMD3 000EE4                                            u5440 3844  
                                          u4560 31EE                                            u4480 2D1C  
                                          u4640 1C3C                                            u4720 21D6  
                                          u4800 14EC                                            u5280 13A8  
                                          u5360 2318                                            _PMD4 000EE5  
                                          u5441 3840                                            u4561 31EA  
                                          u4481 2D18                                            u4641 1C38  
                                          u4721 21D2                                            u4801 14E8  
                                          u5281 13A4                                            u5185 11F0  
                                          u5361 2314                                            _PMD5 000EE6  
                                          u4570 327A                                            u5450 38AA  
                                          u4730 26D4                                            u4490 2D2A  
                                          u4650 1D7A                                            u4810 1512  
                                          u5290 3124                                            u5370 2336  
                                          u4571 3276                                            u5451 38A6  
                                          u4731 26D0                                            u4491 2D26  
                                          u4651 1D76                                            u4811 150E  
                                          u5291 3120                                            u5371 2332  
                                          u5460 2936                                            u4580 32CE  
                                          u4740 2706                                            u4660 1D98  
                                          u4820 154E                                            u4900 1860  
                                          u5380 2346                                            u5700 1F5E  
                                          u5461 2932                                            u4581 32CA  
                                          u4741 2702                                            u4661 1D94  
                                          u4821 154A                                            u4901 185C  
                                          u5381 2342                                            u5701 1F5A  
                                          u5470 2974                                            u4750 27BA  
                                          u4670 1DB2                                            u4590 1BAC  
                                          u4830 15F2                                            u4910 1872  
                                          u5390 2354                                            u5710 2002  
                                          u5471 2970                                            u4751 27B6  
                                          u4671 1DAE                                            u4591 1BA6  
                                          u4831 15EE                                            u4911 186E  
                                          u5391 2350                                            u5711 1FFC  
                                          u5480 2992                                            u4760 27CC  
                                          u4680 1DC2                                            u4840 1620  
                                          u4920 1882                                            u5640 1E66  
                                          u5481 298E                                            u4761 27C8  
                                          u4681 1DBE                                            u4841 161C  
                                          u4921 187E                                            u5641 1E62  
                                          u5490 29B2                                            u4690 204C  
                                          u4850 163E                                            u4770 13EC  
                                          u4930 18C2                                            u5650 1E84  
                                          u5491 29AE                                            u4691 2048  
                                          u4851 163A                                            u4771 13E8  
                                          u4931 18BE                                            u5651 1E80  
                                          u4860 16E4                                            u4780 1430  
                                          u4940 1902                                            u5716 2004  
                                          u5660 1EC6                                            u4861 16E0  
                                          u4781 142C                                            u4941 18FE  
                                          u5661 1EC2                                            u4790 1474  
                                          u4950 1978                                            u4870 17FA  
                                          u5670 1EE4                                  ?_windSpeedCalc 0082  
                                          u4791 1470                                            u4951 1974  
                                          u4871 17F6                                            u5727 2020  
                                          u5671 1EE0                                            u4960 199A  
                                          u4880 180C                                            u5680 1F1E  
                                          u5737 32E8                                            u4961 1996  
                                          u4881 1808                                            u5681 1F1A  
                                          u4970 19C4                                            u4890 181C  
                                          u5690 1F3C                                            u5747 332A  
                                          u4971 19C0                                            u4891 1818  
                                          u5691 1F38                                            i2l92 37A0  
                                          u4980 19E8                                            u5757 3352  
                                          u4981 19E4                                            u4990 19FE  
                                          i2l95 3774                                            u5767 3394  
                                          u4991 19FA                                            i2l98 3748  
                                          _TMR2 000FBB                                            _WPUA 000F10  
                                          _WPUB 000F18                                            _WPUC 000F20  
                                          _WPUE 000F2D                         ??_wr2RegCompleteHandler 000C  
                              ??_I2C1_MasterFsm 000E                                   _EUSART1_Write 39C0  
                              ??_I2C1_MasterIsr 0010                       ??_I2C1_CallbackReturnStop 000C  
                                          abs@a 0060                                            _dbuf 00D8  
                                          _atoi 269E                                            _main 1DFA  
                                          _dtoa 1B7A                                            _prec 0037  
                                          pad@i 0066                                            pad@p 0064  
                                          fsr1h 000FE2                                            fsr2h 000FDA  
                                          indf2 000FDF                                            fsr1l 000FE1  
                                          pad@w 0068                                            fsr2l 000FD9  
                                          btemp 0046                                            _utoa 2032  
                                          prodh 000FF4                                            prodl 000FF3  
                                          start 00EA                                ??_I2C1_SetBuffer 001E  
                               ___fldiv@new_exp 007A                                 _motorController 3988  
                           _TMR2_Counter8BitGet 3B1E                                    ___param_bank 000000  
                            i2_I2C1_SetCallback 3090                   I2C1_CallbackReturnStop@funPtr 000A  
                                         ??_abs 0062                                           ??_pad 002C  
                                  main@hall_raw 0100                   __end_of_OSCILLATOR_Initialize 3A20  
                           ?i2_I2C1_SetCallback 0001                                 __end_of___aodiv 253A  
                             __end_of_I2C1_Open 2E84                                           ?_atoi 0020  
                                         ?_main 0001                                           ?_dtoa 006A  
                               __end_of___aomod 269E                                 __end_of___fldiv 1B7A  
                               __end_of___flmul 13C6                                           ?_utoa 006A  
                               __end_of___lodiv 2AFE                                           _T2CON 000FBD  
                               __end_of___lomod 2BCE                                           _T2HLT 000FBE  
                               __end_of___lwdiv 317E                                           _T2TMR 000FBB  
                                         _T2RST 000FC0                                           i2l101 37CC  
                                         i2l104 35FC                                           i2l330 3A36  
                                         i2l403 3014                                           i2l421 3B64  
                                         i2l350 3108                                           i2l502 3BA8  
                                         i2l430 3B4C                                           i2l327 3906  
                                         i2l360 3AD6                                           i2l424 3B5C  
                                         i2l520 3B96                                           i2l600 0066  
                                         i2l433 3B44                                           i2l353 3B90  
                                         i2l601 00BE                                           i2l442 3ABE  
                                         i2l602 009E                                           i2l523 3B9C  
                                         i2l363 3AA6                                           i2l427 3B54  
                                         i2l372 2C90                                           i2l436 3B3C  
                                         i2l357 3260                                           i2l366 3A96  
                                         i2l439 3B34                                           i2l607 00BE  
                                         i2l456 3BC8                                           i2l448 3408  
                                         i2l481 3BD0                                           i2l369 2C58  
                                         i2l385 2D76                                           i2l386 2DE4  
                                         i2l459 3BC4                                           i2l475 3BBC  
                                         i2l493 3BCC                                           i2l397 3ACA  
                                         i2l478 3B6C                                           i2l487 3BC0  
                                         i2l496 3A74                                           i2l499 3BA2  
                                         i2l782 3BD2                                           i2l839 3698  
                                         i2l776 366A                      __end_of_i2c1_fsmStateTable 0F21  
                                         _OSCEN 000EDC                                    vfpfcnvrt@fmt 008F  
                        ??_I2C1_MasterEnableIrq 001A                                           _TRISA 000F88  
                                         _TRISB 000F89                                           _TRISC 000F8A  
                        ??_I2C1_MasterGetRxData 0001                           ?_I2C1_DO_RX_NACK_STOP 0001  
                    ??_I2C1_CallbackReturnReset 000C                               ??_I2C1_MasterOpen 001A  
                             ??_I2C1_MasterStop 0001                            ?_TMR2_Counter8BitGet 0001  
                             ??_I2C1_Initialize 001A                                __end_of_TMR2_ISR 366C  
                                         _flags 003D                                     ?_TMR2_Start 0001  
                                         _fputc 2E84                                           _fputs 34F8  
                               __end_of_isdigit 36C6                                           atoi@n 0027  
                                         pad@fp 0060                                           atoi@s 0020  
                                         _width 0035                                           _putch 3AD8  
                                         dtoa@d 006C                                           dtoa@i 008B  
                                         dtoa@n 0082                                           dtoa@p 007E  
                                         dtoa@s 008A                                           dtoa@w 0080  
                               __end_of_isspace 34F8                                  ?_EUSART1_Write 0001  
                                         pclath 000FFA                                           pclatu 000FFB  
                                         tablat 000FF5                            ??i2_I2C1_SetCallback 0005  
                              ??_timer_callback 0001                                           ttemp5 0047  
                                         ttemp6 004A                                           ttemp7 004E  
                                         utoa@d 006C                                           utoa@i 0088  
                                         utoa@n 0080                                           utoa@p 007E  
                                         utoa@w 007C                                           status 000FD8  
                                         wtemp8 0047                                    ??_I2C1_DO_RX 000C  
                                  ??_I2C1_DO_TX 000C                                 _TMR2_StartTimer 3B74  
                              ___lodiv@dividend 001A              _EUSART1_DefaultFramingErrorHandler 000000  
                        ??_I2C1_DO_ADDRESS_NACK 000C                                    ??_I2C1_Close 001A  
                      fp__rd1RegCompleteHandler 0000                                 __initialization 3908  
                                   _system_init 3A76                                    __end_of_atoi 27F2  
                    __end_of_EUSART1_Initialize 363C                                    __end_of_main 2032  
                                  __end_of_dtoa 1DFA                        fp__wr1RegCompleteHandler 0000  
                                  __end_of_utoa 21F8                         __end_of_TMR2_Initialize 371E  
                   ?_INTERRUPT_InterruptManager 0001                    fp__I2C1_DO_SEND_RESTART_READ 0000  
                                        ??_atoi 0022                          ??_I2C1_MasterOperation 001A  
                      _TMR2_SetInterruptHandler 3AEC                                          ??_main 00B1  
                                        ??_dtoa 0074                                          ??_utoa 0074  
                                 __activetblptr 000003                              __end_of_I2C1_DO_RX 2DE6  
                            __end_of_I2C1_DO_TX 2C92                                ___lodiv@quotient 0060  
                         ??_TMR2_Counter8BitGet 001A                    ??_IOCAF0_SetInterruptHandler 001C  
                            __end_of_I2C1_Close 36F2                         ?_I2C1_Read1ByteRegister 0023  
                               ??_windSpeedCalc 002D                                          ?_fputc 001C  
                                        ?_fputs 0025                                          _ANSELA 000F11  
                                        ?_putch 0001                                          _ANSELB 000F19  
                                        _ANSELC 000F21                                          _RC1REG 000F99  
                                        _RC1STA 000F9D                                          _RC3PPS 000EFA  
                                        _RC4PPS 000EFB                                          _ODCONA 000F0F  
                                        _ODCONB 000F17                                          _RC6PPS 000EFD  
                                        _ODCONC 000F1F                                          i2l4002 35BE  
                                        i2l4010 3A62                                          i2l4004 35E6  
                                        i2l4006 35FA                                          i2l4014 3B68  
                                        i2l4022 3B56                                          i2l4030 3B4A  
                                        i2l4200 3A9C                                          i2l4016 3B5E  
                                        i2l4024 3B5A                                          i2l4040 3B2E  
                                        i2l4034 3BBA                                          i2l4202 3AA4  
                                        i2l4210 3A94                                          i2l4018 3B62  
                                        i2l4042 3B32                                          i2l4052 3BBE  
                                        i2l4060 3B98                                          i2l4028 3B46  
                                        i2l4062 3BC6                                          i2l4038 3B9E  
                                        i2l4206 3A88                                          i2l4222 2BEE  
                                        i2l4214 2BCE                                          i2l4054 3B4E  
                                        i2l4310 3B3E                                          i2l4046 3B36  
                                        i2l4304 2FBC                                          i2l4208 3A8C  
                                        i2l4240 2C8E                                          i2l4232 2BFE  
                                        i2l4056 3B52                                          i2l4312 3B42  
                                        i2l4048 3B3A                                          i2l4320 3ABC  
                                        i2l4066 3BC2                                          i2l4234 2C5C  
                                        i2l4226 2BF6                                          i2l4218 2BE6  
                                        i2l4250 2D4E                                          i2l4236 2C6E  
                                        i2l4252 2D54                                          i2l4316 3AB4  
                                        i2l4332 33B8                                          i2l4324 33A4  
                                        i2l4190 3ACC                                          i2l4238 2C88  
                                        i2l4262 2D7C                                          i2l4254 2D6C  
                                        i2l4318 3AB8                                          i2l4326 33A8  
                                        i2l4192 3AD0                                          i2l4272 2D8C  
                                        i2l4256 2D70                                          i2l4248 2D40  
                                        i2l4280 3AC4                                          i2l4328 33B0  
                                        i2l4194 3AD4                                          i2l4266 2D84  
                                        i2l4282 3AC8                                          i2l7002 33F2  
                                        i2l4338 33C0                                          i2l4530 366C  
                                        i2l4292 2FAA                                          i2l7004 2DBE  
                                        i2l4532 3670                                          i2l4294 2FAE  
                                        i2l4286 2F9A                                          i2l4198 3A98  
                                        i2l7006 2C32                                          i2l4278 3AC0  
                                        i2l4446 3B92                                          i2l4534 3686  
                                        i2l3760 3BCE                                          i2l3672 3092  
                                        i2l7008 2FEE                                          i2l4288 2FA2  
                                        i2l4536 3692                                          i2l5360 0074  
                                        i2l5352 0032                                          _INLVLA 000F0D  
                                        i2l3762 3BCA                                          i2l3930 38F4  
                                        i2l3674 30A4                                          i2l4298 2FB4  
                                        i2l4490 3206                                          i2l5362 0082  
                                        i2l5354 0040                                          _INLVLB 000F15  
                                        _INLVLC 000F1D                                          i2l3932 38FC  
                                        i2l3676 30D8                                          i2l3764 3BA4  
                                        i2l4492 321A                                          i2l5364 00AC  
                                        i2l5356 0050                                          _INLVLE 000F2A  
                                        i2l3934 3904                                          i2l4494 3220  
                                        i2l4486 31F2                                          i2l4910 3B8C  
                                        i2l5358 005E                                          i2l3928 38E4  
                                        i2l3936 3A20                                          i2l4488 31F6  
                                        i2l3970 3776                                          i2l4930 3652  
                                        i2l3972 378A                                          i2l3980 375E  
                                        i2l3974 379E                                          i2l3982 3772  
                                        i2l3990 3746                                          i2l4926 363C  
                                        i2l4928 3640                                          i2l3994 37A2  
                                        i2l3978 374A                                          i2l3986 371E  
                                        i2l3996 37B6                                          i2l3988 3732  
                                        i2l3998 37CA                         __end_of_motorController 39A4  
                                        _OSCFRQ 000EDE                                          _RX1PPS 000EB5  
                                        _TX1REG 000F9A                                          _TX1STA 000F9E  
                             ?_I2C1_MasterClose 0001                                   main@readCount 0102  
                              __end_of___xxtofl 23B0                         ??_I2C1_MasterDisableIrq 001A  
                             ?_I2C1_MasterStart 0001                               ?_I2C1_MasterWrite 0001  
                            ??_I2C1_MasterClose 001A                                _I2C1_DO_TX_EMPTY 2F9A  
                              __end_of_hallInit 3A4E                                __end_of_hallRead 3822  
                            ??_I2C1_MasterStart 001A                              ??_I2C1_MasterWrite 001C  
                                  vfprintf@cfmt 00A7                        ?_I2C1_Write1ByteRegister 0023  
                                        ___flge 2908                                    ?_motorDeploy 0001  
                                     ??___aodiv 002A                                       ??___aomod 002A  
                                        ___wmul 3874                                       ??___fldiv 0026  
                                     ??___flmul 0022                                       ??___lodiv 002A  
                                     ??___lomod 002A                                       ??___lwdiv 001E  
                      ?_EUSART1_SetErrorHandler 001A                                          clear_0 390E  
                                        clear_1 391A                                          isa$std 000001  
                                        _printf 384C                                   main@temp_data 0104  
                                        pad@buf 0062                ??_EUSART1_SetOverrunErrorHandler 001C  
               ?_EUSART1_SetOverrunErrorHandler 001A                                          dtoa@fp 006A  
                      ??_I2C1_DO_SEND_ADR_WRITE 0002                               ?_I2C1_SetCallback 001A  
                        ??_I2C1_DO_RX_NACK_STOP 0001                __end_of_I2C1_SetInterruptHandler 3AEC  
                         _I2C1_DO_SEND_ADR_READ 3A98                                          fputc@c 001C  
                                _PMD_Initialize 39A4                                __end_of_tempRead 3AB4  
                                        fputs@c 0029                                          fputs@i 002A  
                                        fputs@s 0025                                       ??_isdigit 001C  
                 ?_I2C1_SetDataCompleteCallback 001F                              ??_I2C1_SetCallback 001E  
                                  __mediumconst 0000                                       ??_isspace 001C  
                __end_of_I2C1_Read1ByteRegister 31F2                                          tblptrh 000FF7  
                                        tblptrl 000FF6                                          tblptru 000FF8  
                              __end_of_vfprintf 345E                                 ??_EUSART1_Write 001A  
                                        utoa@fp 006A                         __end_of_TMR2_StartTimer 3B7A  
      TMR2_SetInterruptHandler@InterruptHandler 001A        I2C1_SetInterruptHandler@InterruptHandler 001A  
    IOCAF0_SetInterruptHandler@InterruptHandler 001A                         _I2C1_DO_RX_NACK_RESTART 3B2E  
                    fp__I2C1_DO_RX_NACK_RESTART 0000                           i2_I2C1_MasterClearIrq 3B92  
                                    ___flge@ff1 001A                                      ___flge@ff2 001E  
                                  ___xxtofl@arg 0062                                    ___xxtofl@exp 0061  
                             _SYSTEM_Initialize 396A                                    ___xxtofl@val 0021  
                I2C1_SetDataCompleteCallback@cb 001F                i2I2C1_SetDataCompleteCallback@cb 0006  
                                    __accesstop 0060                         __end_of__initialization 3920  
               I2C1_MasterOperation@returnValue 001B                              ?_SYSTEM_Initialize 0001  
                                 ___rparam_used 000001                         _rdBlkRegCompleteHandler 35BE  
                    fp__rdBlkRegCompleteHandler 0000                                  __pcstackCOMRAM 0001  
                           ??_SYSTEM_Initialize 001C                __end_of_I2C1_MasterEnableRestart 3BD2  
                                     ?_TMR2_ISR 0001                                   __end_of_fputc 2F1A  
                                 __end_of_fputs 353C                                   __end_of_putch 3AE2  
                              ?_TMR2_Initialize 0001                          __end_of_PMD_Initialize 39C0  
                  ??_I2C1_DO_SEND_RESTART_WRITE 0001                         ??_I2C1_MasterSendTxData 0001  
                         __end_of_I2C1_DO_RESET 3AC0                                         ??_fputc 0020  
                     __end_of_SYSTEM_Initialize 3988                                         ??_fputs 0029  
                                       ??_putch 001B                                      __pbssBANK0 00B2  
                 __end_of_rd2RegCompleteHandler 3776                                ?_motorController 0026  
                          I2C1_Open@returnValue 001D                                      __pnvCOMRAM 0040  
                 __end_of_wr2RegCompleteHandler 37CE                 __end_of_I2C1_Write1ByteRegister 32D0  
                    i2I2C1_SetBuffer@bufferSize 0003                           _rd1RegCompleteHandler 3776  
                             _I2C1_DO_SEND_STOP 3B46                           _wr1RegCompleteHandler 371E  
               __end_of_EUSART1_SetErrorHandler 3B1E                        _EUSART1_is_tx_ready$1627 001A  
                      rd1RegCompleteHandler@ptr 000A                                   fp__I2C1_DO_RX 0000  
                                 fp__I2C1_DO_TX 0000                                 fp__I2C1_DO_IDLE 0000  
                               fp__I2C1_DO_RCEN 0000                                         ?___flge 001A  
                       fp__I2C1_DO_ADDRESS_NACK 0000                              ?_I2C1_DO_SEND_STOP 0001  
                                    _hallRecord 37CE                                         ?___wmul 001A  
                                    ??_TMR2_ISR 0001                                 _I2C1_MasterOpen 392A  
                               _I2C1_MasterStop 3BCA                                 _I2C1_Initialize 3A4E  
                               fp__motorTrigger 0000                               fp__I2C1_DO_RX_ACK 0000  
                                       ?_printf 00A9                                 ?_PMD_Initialize 0001  
                        ?_I2C1_DO_SEND_ADR_READ 0001                             ??_I2C1_DO_SEND_STOP 0001  
        __end_of_EUSART1_SetFramingErrorHandler 3B14                  _EUSART1_SetFramingErrorHandler 3B0A  
                                     ?___xxtofl 0021                               _I2C1_MasterIsNack 3A62  
                                       _SP1BRGH 000F9C              __end_of_IOCAF0_SetInterruptHandler 3B00  
                    _IOCAF0_SetInterruptHandler 3AF6                                         _SP1BRGL 000F9B  
                                       _OSCCON1 000ED8                                         _OSCCON3 000EDA  
                                     _I2C1_Open 2DE6                       ??_I2C1_DO_RX_NACK_RESTART 0001  
                                     ?_hallInit 0001                                       ?_hallRead 0026  
                                       _OSCTUNE 000EDD                               _I2C1_MasterSetIrq 3B98  
                                       _SSP1ADD 000F93                                         _SLRCONA 000F0E  
                                       _SLRCONB 000F16                                         _SLRCONC 000F1E  
                                       _SSP1BUF 000F92                        _I2C1_SetInterruptHandler 3AE2  
                                  ??_TMR2_Start 001A                              ?_I2C1_MasterIsNack 0001  
                        ?i2_I2C1_MasterClearIrq 0001                      ?_I2C1_DO_SEND_RESTART_READ 0001  
                           motorController@data 0029                                ?_TMR2_StartTimer 0001  
                ??_I2C1_SetDataCompleteCallback 0023                                ___lomod@dividend 001A  
                            ?_I2C1_MasterSetIrq 0001                              _i2c1_fsmStateTable 0F01  
                           ??_I2C1_MasterIsNack 0001                       __end_of_I2C1_DO_SEND_STOP 3B4E  
                     ??_rdBlkRegCompleteHandler 000C                              I2C1_SetCallback@cb 001A  
                           ??_I2C1_MasterSetIrq 0001                                         __Hparam 0000  
                                  _deployStatus 003E                                         __Lparam 0000  
                                     ?_tempRead 0001                      ??_TMR2_SetInterruptHandler 001C  
                                  ?_system_init 0001                                         ___aodiv 23B0  
                                       ___aomod 253A                                         ___fldiv 17DE  
                           fp__I2C1_DO_TX_EMPTY 0000                                         ___flmul 0F9A  
                                       ___lodiv 2A0C                                         ___lomod 2AFE  
                                       ___lwdiv 310A                                       ?_vfprintf 00A1  
                        windSpeedCalc@linearVel 008A                                    __psmallconst 0F00  
                            __end_of_TMR2_Start 3BAE                                         __pcinit 3908  
                                 ?_I2C1_DO_IDLE 0001                                   ?_I2C1_DO_RCEN 0001  
                                       __ramtop 0F00                             _EUSART1_is_tx_ready 3822  
                                       __ptext0 1DFA                                         __ptext1 27F2  
                                       __ptext2 37CE                                         __ptext3 3B6E  
                                       __ptext4 3B1E                                         __ptext5 21F8  
                                       __ptext6 310A                                         __ptext7 0F9A  
                                       __ptext8 17DE                                         __ptext9 3AA8  
                            _windSpeedCalc$3106 008E                              _windSpeedCalc$3107 0092  
                      _I2C1_MasterEnableRestart 3BCE                       __end_of_I2C1_MasterIsNack 3A76  
                  ?_I2C1_SetAddressNackCallback 001F                           _OSCILLATOR_Initialize 3A08  
                                     _T2CONbits 000FBD                                         _isdigit 369A  
                     __end_of_I2C1_MasterSetIrq 3B9E                                      ??___xxtofl 0025  
                      __end_of_I2C1_DO_TX_EMPTY 3016                                   ?_motorTrigger 0001  
                            _EUSART1_Initialize 35FE                        ??_PIN_MANAGER_Initialize 001C  
                                       _isspace 34B2                                       _IOCAFbits 000F0A  
                                     _T2HLTbits 000FBE                        wr1RegCompleteHandler@ptr 000A  
                                    ?_I2C1_Open 0001                                       _IOCANbits 000F0B  
                                     _IOCAPbits 000F0C                                      ??_hallInit 002C  
                                    ??_hallRead 0028                         fp__I2C1_DO_RX_NACK_STOP 0000  
                                       atoi@neg 0025                        ?_I2C1_CallbackReturnStop 000A  
             __end_of_I2C1_DO_SEND_RESTART_READ 3B66                            end_of_initialization 3920  
                    __end_of_I2C1_MasterSendAck 3BA4                                       _T2RSTbits 000FC0  
                           _I2C1_MasterClearIrq 3B86                             ?_EUSART1_Initialize 0001  
        __end_ofi2_I2C1_SetDataCompleteCallback 3A38                  i2_I2C1_SetDataCompleteCallback 3A20  
                          ?_EUSART1_is_tx_ready 0001                                         fputc@fp 001E  
                    __end_of_I2C1_MasterStartRx 3BC2                     _EUSART1_OverrunErrorHandler 00FA  
                                       fputs@fp 0027                          ?_rd1RegCompleteHandler 000A  
                        _I2C1_DO_SEND_ADR_WRITE 3A88                         motorFaultRead@motor_num 0026  
                             __end_of_motorStop 396A                               __end_of_motorStow 333A  
                  __end_of_I2C1_DO_SEND_RESTART 3B56                         __end_of_I2C1_MasterOpen 394C  
                        ?_wr1RegCompleteHandler 000A                         __end_of_I2C1_MasterStop 3BCE  
                       __end_of_I2C1_Initialize 3A62                       ?_I2C1_CallbackReturnReset 000A  
                 __end_of_I2C1_MasterDisableIrq 3B86                                      ??_tempRead 0026  
                                   _I2C1_Status 00B2                        fp__rd2RegCompleteHandler 0000  
                             __end_of_vfpfcnvrt 17DE                                         postdec2 000FDD  
                                   ?_hallRecord 0001                        fp__wr2RegCompleteHandler 0000  
                                       postinc0 000FEE                                         postinc1 000FE6  
                                       postinc2 000FDE                                  main@wind_speed 0107  
                              vfpfcnvrt@convarg 0097                               fp__I2C1_MasterIsr 0000  
                           _I2C1_MasterSendNack 3BA4             __end_of_I2C1_SetAddressNackCallback 3A08  
                   _I2C1_SetAddressNackCallback 39F0                                      ??_vfprintf 002D  
                          ?_I2C1_MasterClearIrq 0001                                  ??_I2C1_DO_IDLE 0001  
                          ??_EUSART1_Initialize 001C                                  ??_I2C1_DO_RCEN 0001  
            __end_of_I2C1_DO_SEND_RESTART_WRITE 3B5E                      _I2C1_DO_SEND_RESTART_WRITE 3B56  
                   __end_of_TMR2_Counter8BitGet 3B26                                       _PORTAbits 000F8D  
               __end_of_rdBlkRegCompleteHandler 35FE                                  ??_motorTrigger 002C  
                       _IOCAF0_InterruptHandler 0044                   ??_I2C1_SetAddressNackCallback 0023  
                     I2C1_Read1ByteRegister@reg 0023                                   ___xxtofl@sign 0060  
               I2C1_SetDataCompleteCallback@ptr 0021               i2I2C1_SetDataCompleteCallback@ptr 0008  
                   I2C1_Write1ByteRegister@data 0024                                     ___fldiv@grs 007C  
                                   ___fldiv@rem 0075                  I2C1_CallbackReturnReset@funPtr 000A  
                          ?_I2C1_MasterSendNack 0001                             EUSART1_Write@txData 001A  
                                _TMR2_ReadTimer 3B6E                           __end_of_windSpeedCalc 2908  
                         ??_EUSART1_is_tx_ready 001A                                  _motorFaultRead 345E  
                                   ___flmul@grs 0062                      rdBlkRegCompleteHandler@ptr 000A  
                              i2_I2C1_SetBuffer 38E4                              windSpeedCalc@dw_dt 0086  
                  __end_of_INTERRUPT_Initialize 3BBA                           ??_I2C1_MasterClearIrq 001A  
          __end_of_TMR2_DefaultInterruptHandler 3BD4                    _TMR2_DefaultInterruptHandler 3BD2  
                             fp__timer_callback 0000                                  __end_of___flge 2A0C  
                                   vfpfcnvrt@ap 0091                                     vfpfcnvrt@cp 009F  
                                   vfpfcnvrt@fp 008D                                  __end_of___wmul 389A  
                                _I2C1_DO_RX_ACK 3B3E                          ?_OSCILLATOR_Initialize 0001  
               __end_of_I2C1_CallbackReturnStop 3BCA                                  __end_of_printf 3874  
                 __end_of_I2C1_MasterSendTxData 3B6E                             start_initialization 3908  
                               ___lodiv@divisor 0022                                     ??_I2C1_Open 001C  
                               ___lodiv@counter 0068                                     __end_of_abs 357E  
                                   __end_of_pad 2D40                           ??_I2C1_MasterSendNack 0001  
                        __end_of_TMR2_ReadTimer 3B74                          __end_of_motorFaultRead 34B2  
                                   putch@txData 001B                           __end_of_EUSART1_Write 39D8  
                         i2I2C1_SetCallback@idx 0005                           i2I2C1_SetCallback@ptr 0003  
                      I2C1_SetBuffer@bufferSize 001C                                ?_I2C1_MasterOpen 0001  
                              ?_I2C1_MasterStop 0001                  I2C1_Write1ByteRegister@address 0025  
                              ?_I2C1_Initialize 0001                                     vfprintf@fmt 00A3  
                                      ??___flge 0022                                ??_PMD_Initialize 001A  
                        __end_of_I2C1_DO_RX_ACK 3B46                                        ??___wmul 001E  
                       ??_I2C1_DO_SEND_ADR_READ 0001                 fp__TMR2_DefaultInterruptHandler 0000  
                 ?_TMR2_DefaultInterruptHandler 0001                      ??_I2C1_SetInterruptHandler 001C  
                                      ??_printf 002D                                I2C1_Open@address 001C  
                                     ___fldiv@a 0071                                       ___fldiv@b 006D  
                       ??i2_I2C1_MasterClearIrq 0001                                       ___flmul@a 001E  
                                     ___flmul@b 001A                                     __pbssCOMRAM 002D  
                          _I2C1_DO_SEND_RESTART 3B4E                     ?_IOCAF0_SetInterruptHandler 001A  
                                 __pcstackBANK0 0060                                   __pcstackBANK1 0100  
                              ___aodiv@dividend 001A                          i2I2C1_SetBuffer@buffer 0001  
                               ?_TMR2_ReadTimer 0001                                 ?_motorFaultRead 0026  
                   ??_I2C1_DO_SEND_RESTART_READ 0001                            __end_of_I2C1_DO_IDLE 3AD8  
              ??_EUSART1_SetFramingErrorHandler 001C                 ?_EUSART1_SetFramingErrorHandler 001A  
                          __end_of_I2C1_DO_RCEN 3ACC                   I2C1_SetAddressNackCallback@cb 001F  
                                     __pnvBANK0 00F8                           _rd2RegCompleteHandler 374A  
                     fp__I2C1_DO_SEND_ADR_WRITE 0000                            __end_of_motorTrigger 38C0  
                              ___lwdiv@dividend 001A                          _PIN_MANAGER_Initialize 2F1A  
                         _wr2RegCompleteHandler 37A2                                       _dtoa$2695 007C  
                        _MSSP1_InterruptHandler 003B                      ??_I2C1_MasterEnableRestart 0001  
                      rd2RegCompleteHandler@ptr 000A                                       __pintcode 0008  
                                _I2C1_MasterFsm 31F2                                  _I2C1_MasterIsr 3B8C  
                              fp__I2C1_DO_RESET 0000                                        ?___aodiv 001A  
                                      ?___aomod 001A                                 ?_I2C1_DO_RX_ACK 0001  
                                      ?___fldiv 006D                                       __ptext100 3BA4  
                                     __ptext101 3BBE                                       __ptext110 3090  
                                     __ptext102 3BC2                                ___aodiv@quotient 0062  
                                     __ptext111 38E4                                       __ptext103 3BC6  
                                     __ptext112 3BCA                                       __ptext104 35BE  
                                     __ptext113 3BCE                                       __ptext105 371E  
                                     __ptext114 0000                                       __ptext106 374A  
                                     __ptext107 3776                                       __ptext108 37A2  
                                     __ptext109 3A20                                        ?___flmul 001A  
                                     _hall_time 002D                                        ?___lodiv 001A  
                                      ?___lomod 001A                                        ?___lwdiv 001A  
                              _I2C1_MasterClose 3BB2                        ??_I2C1_Read1ByteRegister 0024  
                                _I2C1_SetBuffer 38C0                    ??_INTERRUPT_InterruptManager 0010  
                              _I2C1_MasterStart 3BAE                              motorController@dir 0027  
                              _I2C1_MasterWrite 3B26                                 ___lomod@divisor 0022  
                                      _BAUD1CON 000F9F                                     __smallconst 0F00  
                       _I2C1_Write1ByteRegister 3262                                 ___lomod@counter 002A  
            _EUSART1_DefaultOverrunErrorHandler 000000                                        ?_isdigit 001A  
                         ?_I2C1_DO_SEND_RESTART 0001                            _EUSART1_ErrorHandler 00F8  
                                      ?_isspace 001A                               ?_I2C1_DO_TX_EMPTY 0001  
                       _EUSART1_SetErrorHandler 3B14                __end_of_I2C1_CallbackReturnReset 3BC6  
                              ___lwdiv@quotient 001F                              ??_I2C1_DO_TX_EMPTY 000C  
                                      _T2CLKCON 000FBF                         ??_rd1RegCompleteHandler 000C  
                       ?_I2C1_DO_SEND_ADR_WRITE 0001                       I2C1_MasterSendTxData@data 0001  
                          _INTERRUPT_Initialize 3BB6                         ??_wr1RegCompleteHandler 000C  
                              main@motor1_fault 0105                                main@motor2_fault 0106  
                              _I2C1_SetCallback 3016                                  ___wmul@product 001E  
       EUSART1_SetErrorHandler@interruptHandler 001A                                        _LATBbits 000F84  
                                    _I2C1_DO_RX 2D40                                      _I2C1_DO_TX 2BCE  
                                      _PIE3bits 000EC5                                        _PIE4bits 000EC6  
                                    _I2C1_Close 36C6                          __end_of_I2C1_MasterFsm 3262  
                        __end_of_I2C1_MasterIsr 3B92                    __end_of_I2C1_MasterEnableIrq 3B80  
                                      i2u232_40 38F4                                        i2u400_40 0074  
                                      i2u232_41 38F0                                        i2u400_41 0070  
                  __end_of_I2C1_MasterGetRxData 3BBE                                        i2u401_40 0082  
                                      i2u401_41 007E                                        i2u403_40 00AC  
                                      i2u402_48 0088                                        i2u403_41 00A8  
                                      i2u402_49 009A                                        i2u404_40 00BA  
                                      i2u404_41 00B6                                        i2u237_40 3A72  
                                      i2u260_48 2D9A                                        i2u333_40 3652  
                                      i2u237_41 3A6C                                        i2u260_49 2DAC  
                                      i2u333_41 364E                                        i2u237_46 3A74  
                                      i2u261_48 2FCA                                        i2u261_49 2FDC  
                                      i2u262_48 33CE                                        i2u334_48 3658  
                                      i2u262_49 33E0                                        i2u334_49 366A  
                                      i2u256_40 2BE2                                        i2u256_41 2BDE  
                                      i2u273_40 3206                                        i2u273_41 3202  
                                      i2u258_40 2C88                                        i2u257_48 2C0C  
                                      i2u274_40 321A                                        i2u258_41 2C84  
                                      i2u257_49 2C20                                        i2u274_41 3216  
                                      i2u259_40 2D6C                                        i2u259_41 2D68  
                                      i2u275_48 324A                                        i2u276_40 3686  
                                      i2u275_49 325C                                        i2u276_41 3682  
                                      _PIR3bits 000ECD                                        i2u199_40 30A4  
                                      i2u199_41 30A0                                        _PIR4bits 000ECE  
                                      i2u397_40 0040                                        i2u397_41 003C  
                                      i2u398_40 0050                                        i2u398_41 004C  
                                      i2u399_40 005E                                        i2u399_41 005A  
                                 ??_motorDeploy 002A                              _I2C1_MasterSendAck 3B9E  
                                     _motorStop 394C                                       _motorStow 32D0  
                                  ??_hallRecord 002C                       _I2C1_DO_SEND_RESTART_READ 3B5E  
                                _timer_callback 366C                                        _SSP1CON1 000F96  
                                      _SSP1CON2 000F97                                        _TMR2_ISR 363C  
                        __end_of_I2C1_SetBuffer 38E4                                        _SSP1STAT 000F95  
          __end_of_I2C1_SetDataCompleteCallback 39F0                ??i2_I2C1_SetDataCompleteCallback 000A  
               ?i2_I2C1_SetDataCompleteCallback 0006                    _I2C1_SetDataCompleteCallback 39D8  
                            _I2C1_MasterStartRx 3BBE                                       _vfpfcnvrt 13C6  
                   ?_I2C1_DO_SEND_RESTART_WRITE 0001                      I2C1_Write1ByteRegister@reg 0023  
                          motorController@speed 0026                             ?_I2C1_MasterSendAck 0001  
                             ___wmul@multiplier 001A                        ?_I2C1_DO_RX_NACK_RESTART 0001  
                      __end_ofi2_I2C1_SetBuffer 3908                            fp__I2C1_DO_SEND_STOP 0000  
                           ?_I2C1_MasterStartRx 0001                    __end_of_I2C1_DO_ADDRESS_NACK 340A  
                ??_TMR2_DefaultInterruptHandler 0001                       ?_TMR2_SetInterruptHandler 001A  
                      wr2RegCompleteHandler@ptr 000A                                    _isspace$2752 001E  
                __end_of_I2C1_DO_SEND_ADR_WRITE 3A98                                   _I2C1_DO_RESET 3AB4  
                    __end_ofi2_I2C1_SetCallback 310A                           ?_INTERRUPT_Initialize 0001  
                         I2C1_Close@returnValue 001A                        ?_rdBlkRegCompleteHandler 000A  
                           I2C1_SetCallback@idx 001E                              __end_of_hallRecord 37F8  
                           I2C1_SetCallback@ptr 001C                            ??_I2C1_MasterSendAck 0001  
                             ??_TMR2_Initialize 001C                          ?_rd2RegCompleteHandler 000A  
                          i2I2C1_SetCallback@cb 0001                    __end_of_I2C1_MasterOperation 35BE  
                        ?_wr2RegCompleteHandler 000A                            ??_I2C1_MasterStartRx 0001  
                                      __Hrparam 0000                                 ?_I2C1_MasterFsm 0001  
                               ?_I2C1_MasterIsr 0001                          __end_of_timer_callback 369A  
                                    vfprintf@ap 00A5                                        __Lrparam 0000  
                                    vfprintf@fp 00A1                                      ?_motorStop 0001  
                                    ?_motorStow 0001                           _I2C1_MasterDisableIrq 3B80  
                       ??_OSCILLATOR_Initialize 001A                                 ?_I2C1_SetBuffer 001A  
                                    ?_vfpfcnvrt 008D                       ??_I2C1_Write1ByteRegister 0025  
                               ___aodiv@divisor 0022                                 ___aodiv@counter 0060  
             I2C1_Read1ByteRegister@returnValue 0025                             __end_of_motorDeploy 33A4  
                        ??_I2C1_DO_SEND_RESTART 0001                               ??_motorController 0028  
                     ??_EUSART1_SetErrorHandler 001C                     _EUSART1_DefaultErrorHandler 000000  
                                      ___xxtofl 21F8                     __end_of_EUSART1_is_tx_ready 384C  
                               ___lwdiv@divisor 001C                                  ?_I2C1_DO_RESET 0001  
                                      _hallInit 3A38                                        _hallRead 37F8  
                               ___lwdiv@counter 001E                                        __ptext10 3A76  
                                      __ptext11 394C                                        __ptext20 2AFE  
                                      __ptext12 3A38                                        __ptext21 2A0C  
                                      __ptext13 37F8                                        __ptext30 23B0  
                                      __ptext22 1B7A                                        __ptext14 3B74  
                                      __ptext31 269E                                        __ptext23 2C92  
                                      __ptext15 3BAA                                        __ptext40 345E  
                                      __ptext32 34B2                                        __ptext24 34F8  
                                      __ptext16 384C                                        __ptext41 317E  
                                      __ptext33 369A                                        __ptext25 2E84  
                                      __ptext17 340A                                        __ptext50 3B26  
                                      __ptext42 39D8                                        __ptext34 3874  
                                      __ptext26 3AD8                                        __ptext18 13C6  
                                      __ptext51 357E                                        __ptext43 38C0  
                                      __ptext35 389A                                        __ptext27 39C0  
                                      __ptext19 2032                                        __ptext60 3AEC  
                                      __ptext52 3BAE                                        __ptext44 39F0  
                                      __ptext36 32D0                                        __ptext28 353C  
                                      __ptext61 39A4                                        __ptext53 36C6  
                                      __ptext45 3016                                        __ptext37 333A  
                                      __ptext29 253A                                        __ptext70 3B14  
                                      __ptext62 2F1A                                        __ptext54 3B80  
                                      __ptext46 2DE6                                        __ptext38 3988  
                                      __ptext71 3822                                        __ptext63 3AF6  
                                      __ptext55 3BB2                                        __ptext47 3AE2  
                                      __ptext39 3262                                        __ptext80 3AB4  
                                      __ptext64 3A08                                        __ptext56 3B86  
                                      __ptext48 392A                                        __ptext81 3B2E  
                                      __ptext73 363C                                        __ptext65 3BB6  
                                      __ptext57 2908                                        __ptext49 3B7A  
                                      __ptext90 2BCE                                        __ptext82 3B36  
                                      __ptext74 3BD2                                        __ptext66 3A4E  
                                      __ptext58 396A                                        __ptext91 3A88  
                                      __ptext83 3B3E                                        __ptext75 366C  
                                      __ptext67 35FE                                        __ptext59 36F2  
                                      __ptext92 3A98                                        __ptext84 3B46  
                                      __ptext76 3B8C                                        __ptext68 3B00  
                                      __ptext93 3ACC                                        __ptext85 3B4E  
                                      __ptext77 31F2                                        __ptext69 3B0A  
                                      __ptext94 2F9A                                        __ptext86 3B56  
                                      __ptext78 3B92                                        __ptext95 3B98  
                                      __ptext87 3B5E                                        __ptext79 33A4  
                                      __ptext96 3A62                                        __ptext88 3AC0  
                                      __ptext97 3B66                                        __ptext89 2D40  
                                      _hall_pos 0031                                        __ptext98 3B9E  
                                      __ptext99 3BBA                                    _SSP1CON1bits 000F96  
                                  _SSP1CON2bits 000F97                        _I2C1_CallbackReturnReset 3BC2  
                   fp__I2C1_CallbackReturnReset 0000                                     ?_I2C1_DO_RX 0001  
                                   ?_I2C1_DO_TX 0001                     __end_of_I2C1_MasterClearIrq 3B8C  
                  __end_of_I2C1_DO_RX_NACK_STOP 3B3E                                     ?_I2C1_Close 0001  
                               ?_timer_callback 0001                                        _tempRead 3AA8  
                                    _RC1STAbits 000F9D  EUSART1_SetOverrunErrorHandler@interruptHandler 001A  
                                      isa$xinst 000000                                        _timer_ms 00D6  
                                      _timer_us 0039                                        int$flags 0046  
               __end_of_I2C1_DO_RX_NACK_RESTART 3B36                                      _ODCONBbits 000F17  
                      I2C1_MasterOperation@read 001A                                        _vfprintf 340A  
                             ??_TMR2_StartTimer 001A              __end_of_INTERRUPT_InterruptManager 00EA  
                    _INTERRUPT_InterruptManager 0008                                       printf@fmt 00A9  
                                  _SSP1STATbits 000F95                   __end_of_I2C1_DO_SEND_ADR_READ 3AA8  
                   _EUSART1_FramingErrorHandler 0042                                    _I2C1_DO_IDLE 3ACC  
                                  _I2C1_DO_RCEN 3AC0                                ___aomod@dividend 001A  
                   __end_of_I2C1_MasterSendNack 3BAA                                ??_TMR2_ReadTimer 001B  
                              ??_motorFaultRead 0028                                      _INTCONbits 000FF2  
                 fp__I2C1_DO_SEND_RESTART_WRITE 0000                                    _motorTrigger 389A  
                I2C1_SetAddressNackCallback@ptr 0021                            _I2C1_MasterEnableIrq 3B7A  
                          _I2C1_MasterGetRxData 3BBA                   __end_ofi2_I2C1_MasterClearIrq 3B98  
                         _I2C1_MasterSendTxData 3B66                                        isdigit@c 001A  
                        ??_INTERRUPT_Initialize 001A                                        intlevel2 0000  
                _IOCAF0_DefaultInterruptHandler 000000                                 main@threshCount 010B  
                      __end_of_I2C1_MasterClose 3BB6                          _I2C1_Read1ByteRegister 317E  
                                      isspace@c 001A                         ?_PIN_MANAGER_Initialize 0001  
                 I2C1_Read1ByteRegister@address 0024                        __end_of_I2C1_MasterStart 3BB2  
                      __end_of_I2C1_MasterWrite 3B2E          __end_of_EUSART1_SetOverrunErrorHandler 3B0A  
                _EUSART1_SetOverrunErrorHandler 3B00                                ??_I2C1_DO_RX_ACK 0001  
                       _I2C1_CallbackReturnStop 3BC6                      fp__I2C1_CallbackReturnStop 0000  
                          _I2C1_DO_ADDRESS_NACK 33A4                                   ??_system_init 002C  
                        ?_I2C1_MasterDisableIrq 0001                                     ??_motorStop 002A  
                                   ??_motorStow 002A                                     _motorDeploy 333A  
                                      printf@ap 00AF  EUSART1_SetFramingErrorHandler@interruptHandler 001A  
                               ___aomod@divisor 0022                      TMR2_Counter8BitGet@readVal 001A  
                                   ??_vfpfcnvrt 0093                                 ___aomod@counter 002A  
                            _eusart1RxLastError 003F                        __end_of_I2C1_SetCallback 3090  
                                    _SSP1DATPPS 000EB8                                      _SSP1CLKPPS 000EB7  
                               ??_I2C1_DO_RESET 0001                            _I2C1_MasterOperation 357E  
                         ?_I2C1_MasterEnableIrq 0001                           ?_I2C1_MasterGetRxData 0001  
                                    _TX1STAbits 000F9E                                      _TMR2_Start 3BAA  
                                  ___aodiv@sign 0061                  __end_of_PIN_MANAGER_Initialize 2F9A  
                                 _windSpeedCalc 27F2                       ?_I2C1_SetInterruptHandler 001A  
                 __end_of_rd1RegCompleteHandler 37A2                          motorController@address 0028  
                 __end_of_wr1RegCompleteHandler 374A                           _TMR2_InterruptHandler 0040  
                                  ___aomod@sign 002B                           ?_I2C1_DO_ADDRESS_NACK 0001  
