

Microchip MPLAB XC8 Assembler V2.40 build 20220703182018 
                                                                                               Wed Mar 22 23:01:11 2023

Microchip MPLAB XC8 C Compiler v2.40 (Free license) build 20220703182018 Og1 
     1                           	processor	18LF26K40
     2                           	fnconf	rparam,??,?,0
     3                           	pagewidth 120
     4                           	opt	flic
     5                           	psect	smallconst,global,reloc=2,class=SMALLCONST,delta=1,noexec
     6                           	psect	nvCOMRAM,global,class=COMRAM,space=1,delta=1,lowdata,noexec
     7                           	psect	cinit,global,reloc=2,class=CODE,delta=1
     8                           	psect	bssCOMRAM,global,class=COMRAM,space=1,delta=1,lowdata,noexec
     9                           	psect	bssBANK0,global,class=BANK0,space=1,delta=1,lowdata,noexec
    10                           	psect	cstackBANK1,global,class=BANK1,space=1,delta=1,lowdata,noexec
    11                           	psect	cstackBANK0,global,class=BANK0,space=1,delta=1,lowdata,noexec
    12                           	psect	cstackCOMRAM,global,class=COMRAM,space=1,delta=1,lowdata,noexec
    13                           	psect	text0,global,reloc=2,class=CODE,delta=1
    14                           	psect	text1,global,reloc=2,class=CODE,delta=1
    15                           	psect	text2,global,reloc=2,class=CODE,delta=1
    16                           	psect	text3,global,reloc=2,class=CODE,delta=1,group=2
    17                           	psect	text4,global,reloc=2,class=CODE,delta=1,group=2
    18                           	psect	text5,global,reloc=2,class=CODE,delta=1,group=2
    19                           	psect	text6,global,reloc=2,class=CODE,delta=1,group=2
    20                           	psect	text7,global,reloc=2,class=CODE,delta=1
    21                           	psect	text8,global,reloc=2,class=CODE,delta=1
    22                           	psect	text9,global,reloc=2,class=CODE,delta=1
    23                           	psect	text10,global,reloc=2,class=CODE,delta=1
    24                           	psect	text11,global,reloc=2,class=CODE,delta=1
    25                           	psect	text12,global,reloc=2,class=CODE,delta=1
    26                           	psect	text13,global,reloc=2,class=CODE,delta=1
    27                           	psect	text14,global,reloc=2,class=CODE,delta=1,group=3
    28                           	psect	text15,global,reloc=2,class=CODE,delta=1,group=1
    29                           	psect	text16,global,reloc=2,class=CODE,delta=1,group=1
    30                           	psect	text17,global,reloc=2,class=CODE,delta=1,group=1
    31                           	psect	text18,global,reloc=2,class=CODE,delta=1,group=2
    32                           	psect	text19,global,reloc=2,class=CODE,delta=1,group=2
    33                           	psect	text20,global,reloc=2,class=CODE,delta=1,group=1
    34                           	psect	text21,global,reloc=2,class=CODE,delta=1,group=1
    35                           	psect	text22,global,reloc=2,class=CODE,delta=1,group=3
    36                           	psect	text23,global,reloc=2,class=CODE,delta=1,group=3
    37                           	psect	text24,global,reloc=2,class=CODE,delta=1
    38                           	psect	text25,global,reloc=2,class=CODE,delta=1
    39                           	psect	text26,global,reloc=2,class=CODE,delta=1,group=3
    40                           	psect	text27,global,reloc=2,class=CODE,delta=1,group=2
    41                           	psect	text28,global,reloc=2,class=CODE,delta=1,group=2
    42                           	psect	text29,global,reloc=2,class=CODE,delta=1,group=3
    43                           	psect	text30,global,reloc=2,class=CODE,delta=1,group=3
    44                           	psect	text31,global,reloc=2,class=CODE,delta=1,group=3
    45                           	psect	text32,global,reloc=2,class=CODE,delta=1,group=2
    46                           	psect	text33,global,reloc=2,class=CODE,delta=1
    47                           	psect	text34,global,reloc=2,class=CODE,delta=1
    48                           	psect	text35,global,reloc=2,class=CODE,delta=1
    49                           	psect	text36,global,reloc=2,class=CODE,delta=1
    50                           	psect	text37,global,reloc=2,class=CODE,delta=1
    51                           	psect	text38,global,reloc=2,class=CODE,delta=1
    52                           	psect	text39,global,reloc=2,class=CODE,delta=1
    53                           	psect	text40,global,reloc=2,class=CODE,delta=1
    54                           	psect	text41,global,reloc=2,class=CODE,delta=1
    55                           	psect	text42,global,reloc=2,class=CODE,delta=1
    56                           	psect	text43,global,reloc=2,class=CODE,delta=1
    57                           	psect	text44,global,reloc=2,class=CODE,delta=1
    58                           	psect	text45,global,reloc=2,class=CODE,delta=1,inline
    59                           	psect	text46,global,reloc=2,class=CODE,delta=1,inline
    60                           	psect	text47,global,reloc=2,class=CODE,delta=1
    61                           	psect	text48,global,reloc=2,class=CODE,delta=1
    62                           	psect	text49,global,reloc=2,class=CODE,delta=1,inline
    63                           	psect	text50,global,reloc=2,class=CODE,delta=1
    64                           	psect	text51,global,reloc=2,class=CODE,delta=1,inline
    65                           	psect	text52,global,reloc=2,class=CODE,delta=1,inline
    66                           	psect	text53,global,reloc=2,class=CODE,delta=1,inline
    67                           	psect	text54,global,reloc=2,class=CODE,delta=1,group=2
    68                           	psect	text55,global,reloc=2,class=CODE,delta=1
    69                           	psect	text56,global,reloc=2,class=CODE,delta=1
    70                           	psect	text57,global,reloc=2,class=CODE,delta=1
    71                           	psect	text58,global,reloc=2,class=CODE,delta=1
    72                           	psect	text59,global,reloc=2,class=CODE,delta=1
    73                           	psect	text60,global,reloc=2,class=CODE,delta=1
    74                           	psect	text61,global,reloc=2,class=CODE,delta=1
    75                           	psect	text62,global,reloc=2,class=CODE,delta=1
    76                           	psect	text63,global,reloc=2,class=CODE,delta=1
    77                           	psect	text64,global,reloc=2,class=CODE,delta=1
    78                           	psect	text65,global,reloc=2,class=CODE,delta=1
    79                           	psect	text66,global,reloc=2,class=CODE,delta=1
    80                           	psect	intcode,global,reloc=2,class=CODE,delta=1
    81                           	psect	text68,global,reloc=2,class=CODE,delta=1
    82                           	psect	text69,global,reloc=2,class=CODE,delta=1,inline
    83                           	psect	text70,global,reloc=2,class=CODE,delta=1,inline
    84                           	psect	text71,global,reloc=2,class=CODE,delta=1
    85                           	psect	text72,global,reloc=2,class=CODE,delta=1
    86                           	psect	text73,global,reloc=2,class=CODE,delta=1
    87                           	psect	text74,global,reloc=2,class=CODE,delta=1
    88                           	psect	text75,global,reloc=2,class=CODE,delta=1
    89                           	psect	text76,global,reloc=2,class=CODE,delta=1
    90                           	psect	text77,global,reloc=2,class=CODE,delta=1
    91                           	psect	text78,global,reloc=2,class=CODE,delta=1
    92                           	psect	text79,global,reloc=2,class=CODE,delta=1
    93                           	psect	text80,global,reloc=2,class=CODE,delta=1
    94                           	psect	text81,global,reloc=2,class=CODE,delta=1
    95                           	psect	text82,global,reloc=2,class=CODE,delta=1
    96                           	psect	text83,global,reloc=2,class=CODE,delta=1
    97                           	psect	text84,global,reloc=2,class=CODE,delta=1
    98                           	psect	text85,global,reloc=2,class=CODE,delta=1
    99                           	psect	text86,global,reloc=2,class=CODE,delta=1
   100                           	psect	text87,global,reloc=2,class=CODE,delta=1,inline
   101                           	psect	text88,global,reloc=2,class=CODE,delta=1,inline
   102                           	psect	text89,global,reloc=2,class=CODE,delta=1,inline
   103                           	psect	text90,global,reloc=2,class=CODE,delta=1,inline
   104                           	psect	text91,global,reloc=2,class=CODE,delta=1,inline
   105                           	psect	text92,global,reloc=2,class=CODE,delta=1,inline
   106                           	psect	text93,global,reloc=2,class=CODE,delta=1,inline
   107                           	psect	text94,global,reloc=2,class=CODE,delta=1
   108                           	psect	text95,global,reloc=2,class=CODE,delta=1
   109                           	psect	text96,global,reloc=2,class=CODE,delta=1
   110                           	psect	text97,global,reloc=2,class=CODE,delta=1
   111                           	psect	text98,global,reloc=2,class=CODE,delta=1
   112                           	psect	text99,global,reloc=2,class=CODE,delta=1
   113                           	psect	text100,global,reloc=2,class=CODE,delta=1
   114                           	psect	text101,global,reloc=2,class=CODE,delta=1
   115                           	psect	text102,global,reloc=2,class=CODE,delta=1
   116                           	psect	text103,global,reloc=2,class=CODE,delta=1
   117                           	psect	text104,global,reloc=2,class=CODE,delta=1,inline
   118                           	psect	text105,global,reloc=2,class=CODE,delta=1,inline
   119                           	psect	intsave_regs,global,class=BIGRAM,space=1,delta=1,noexec
   120                           	psect	text106,global,reloc=2,class=CODE,delta=1,inline
   121                           	psect	rparam,global,class=COMRAM,space=1,delta=1,noexec
   122                           	psect	temp,global,ovrld,common,class=COMRAM,space=1,delta=1
   123                           	psect	idloc,global,abs,ovrld,class=IDLOC,space=5,delta=1,noexec
   124                           	psect	config,global,abs,ovrld,class=CONFIG,space=4,delta=1,noexec
   125   000000                     
   126                           ; Generated 09/02/2023 GMT
   127                           ; 
   128                           ; Copyright © 2023, Microchip Technology Inc. and its subsidiaries ("Microchip")
   129                           ; All rights reserved.
   130                           ; 
   131                           ; This software is developed by Microchip Technology Inc. and its subsidiaries ("Microch
      +                          ip").
   132                           ; 
   133                           ; Redistribution and use in source and binary forms, with or without modification, are
   134                           ; permitted provided that the following conditions are met:
   135                           ; 
   136                           ;     1. Redistributions of source code must retain the above copyright notice, this lis
      +                          t of
   137                           ;        conditions and the following disclaimer.
   138                           ; 
   139                           ;     2. Redistributions in binary form must reproduce the above copyright notice, this 
      +                          list
   140                           ;        of conditions and the following disclaimer in the documentation and/or other
   141                           ;        materials provided with the distribution. Publication is not required when
   142                           ;        this file is used in an embedded application.
   143                           ; 
   144                           ;     3. Microchip's name may not be used to endorse or promote products derived from th
      +                          is
   145                           ;        software without specific prior written permission.
   146                           ; 
   147                           ; THIS SOFTWARE IS PROVIDED BY MICROCHIP "AS IS" AND ANY EXPRESS OR IMPLIED WARRANTIES,
   148                           ; INCLUDING, BUT NOT LIMITED TO, THE IMPLIED WARRANTIES OF MERCHANTABILITY AND FITNESS F
      +                          OR
   149                           ; PURPOSE ARE DISCLAIMED.  IN NO EVENT SHALL MICROCHIP BE LIABLE FOR ANY DIRECT, INDIREC
      +                          T,
   150                           ; INCIDENTAL, SPECIAL, EXEMPLARY, OR CONSEQUENTIAL DAMAGES (INCLUDING BUT NOT LIMITED TO
   151                           ; PROCUREMENT OF SUBSTITUTE GOODS OR SERVICES; LOSS OF USE, DATA OR PROFITS; OR BUSINESS
   152                           ; INTERRUPTION) HOWSOEVER CAUSED AND ON ANY THEORY OF LIABILITY, WHETHER IN CONTRACT, ST
      +                          RICT
   153                           ; LIABILITY, OR TORT (INCLUDING NEGLIGENCE OR OTHERWISE) ARISING IN ANY WAY OUT OF THE U
      +                          SE OF
   154                           ; THIS SOFTWARE, EVEN IF ADVISED OF THE POSSIBILITY OF SUCH DAMAGE.
   155                           ; 
   156                           ; 
   157                           ; Code-generator required, PIC18LF26K40 Definitions
   158                           ; 
   159                           ; SFR Addresses
   160   000000                     
   161 ;; Function _EUSART1_DefaultFramingErrorHandler is unused but had its address taken
   162   000000                     
   163 ;; Function _EUSART1_DefaultOverrunErrorHandler is unused but had its address taken
   164   000000                     
   165 ;; Function _EUSART1_DefaultErrorHandler is unused but had its address taken
   166   000000                     
   167                           	psect	smallconst
   168   000F00                     __psmallconst:
   169                           	callstack 0
   170   000F00  00                 	db	0
   171   000F01                     _i2c1_fsmStateTable:
   172                           	callstack 0
   173   000F01  68                 	db	low _I2C1_DO_IDLE
   174   000F02  39                 	db	high _I2C1_DO_IDLE
   175   000F03  26                 	db	low _I2C1_DO_SEND_ADR_READ
   176   000F04  39                 	db	high _I2C1_DO_SEND_ADR_READ
   177   000F05  16                 	db	low _I2C1_DO_SEND_ADR_WRITE
   178   000F06  39                 	db	high _I2C1_DO_SEND_ADR_WRITE
   179   000F07  6C                 	db	low _I2C1_DO_TX
   180   000F08  2B                 	db	high _I2C1_DO_TX
   181   000F09  DE                 	db	low _I2C1_DO_RX
   182   000F0A  2C                 	db	high _I2C1_DO_RX
   183   000F0B  5C                 	db	low _I2C1_DO_RCEN
   184   000F0C  39                 	db	high _I2C1_DO_RCEN
   185   000F0D  B8                 	db	low _I2C1_DO_TX_EMPTY
   186   000F0E  2E                 	db	high _I2C1_DO_TX_EMPTY
   187   000F0F  E6                 	db	low _I2C1_DO_SEND_RESTART_READ
   188   000F10  39                 	db	high _I2C1_DO_SEND_RESTART_READ
   189   000F11  DE                 	db	low _I2C1_DO_SEND_RESTART_WRITE
   190   000F12  39                 	db	high _I2C1_DO_SEND_RESTART_WRITE
   191   000F13  D6                 	db	low _I2C1_DO_SEND_RESTART
   192   000F14  39                 	db	high _I2C1_DO_SEND_RESTART
   193   000F15  CE                 	db	low _I2C1_DO_SEND_STOP
   194   000F16  39                 	db	high _I2C1_DO_SEND_STOP
   195   000F17  C6                 	db	low _I2C1_DO_RX_ACK
   196   000F18  39                 	db	high _I2C1_DO_RX_ACK
   197   000F19  BE                 	db	low _I2C1_DO_RX_NACK_STOP
   198   000F1A  39                 	db	high _I2C1_DO_RX_NACK_STOP
   199   000F1B  B6                 	db	low _I2C1_DO_RX_NACK_RESTART
   200   000F1C  39                 	db	high _I2C1_DO_RX_NACK_RESTART
   201   000F1D  50                 	db	low _I2C1_DO_RESET
   202   000F1E  39                 	db	high _I2C1_DO_RESET
   203   000F1F  30                 	db	low _I2C1_DO_ADDRESS_NACK
   204   000F20  33                 	db	high _I2C1_DO_ADDRESS_NACK
   205   000F21                     __end_of_i2c1_fsmStateTable:
   206                           	callstack 0
   207   000000                     _T2CON	set	4029
   208   000000                     _TX1REG	set	3994
   209   000000                     _SP1BRGH	set	3996
   210   000000                     _TX1STA	set	3998
   211   000000                     _OSCTUNE	set	3805
   212   000000                     _OSCFRQ	set	3806
   213   000F21                     STR_1:
   214   000F21  52                 	db	82	;'R'
   215   000F22  65                 	db	101	;'e'
   216   000F23  61                 	db	97	;'a'
   217   000F24  64                 	db	100	;'d'
   218   000F25  69                 	db	105	;'i'
   219   000F26  6E                 	db	110	;'n'
   220   000F27  67                 	db	103	;'g'
   221   000F28  25                 	db	37
   222   000F29  69                 	db	105	;'i'
   223   000F2A  3A                 	db	58	;':'
   224   000F2B  0A                 	db	10
   225   000F2C  0D                 	db	13
   226   000F2D  09                 	db	9
   227   000F2E  54                 	db	84	;'T'
   228   000F2F  65                 	db	101	;'e'
   229   000F30  6D                 	db	109	;'m'
   230   000F31  70                 	db	112	;'p'
   231   000F32  3D                 	db	61	;'='
   232   000F33  25                 	db	37
   233   000F34  75                 	db	117	;'u'
   234   000F35  43                 	db	67	;'C'
   235   000F36  0A                 	db	10
   236   000F37  0D                 	db	13
   237   000F38  09                 	db	9
   238   000F39  48                 	db	72	;'H'
   239   000F3A  61                 	db	97	;'a'
   240   000F3B  6C                 	db	108	;'l'
   241   000F3C  6C                 	db	108	;'l'
   242   000F3D  3D                 	db	61	;'='
   243   000F3E  25                 	db	37
   244   000F3F  75                 	db	117	;'u'
   245   000F40  0A                 	db	10
   246   000F41  0D                 	db	13
   247   000F42  09                 	db	9
   248   000F43  57                 	db	87	;'W'
   249   000F44  69                 	db	105	;'i'
   250   000F45  6E                 	db	110	;'n'
   251   000F46  64                 	db	100	;'d'
   252   000F47  20                 	db	32
   253   000F48  53                 	db	83	;'S'
   254   000F49  70                 	db	112	;'p'
   255   000F4A  65                 	db	101	;'e'
   256   000F4B  65                 	db	101	;'e'
   257   000F4C  64                 	db	100	;'d'
   258   000F4D  3D                 	db	61	;'='
   259   000F4E  25                 	db	37
   260   000F4F  35                 	db	53	;'5'
   261   000F50  2E                 	db	46
   262   000F51  35                 	db	53	;'5'
   263   000F52  64                 	db	100	;'d'
   264   000F53  0A                 	db	10
   265   000F54  0D                 	db	13
   266   000F55  09                 	db	9
   267   000F56  4D                 	db	77	;'M'
   268   000F57  6F                 	db	111	;'o'
   269   000F58  74                 	db	116	;'t'
   270   000F59  6F                 	db	111	;'o'
   271   000F5A  72                 	db	114	;'r'
   272   000F5B  20                 	db	32
   273   000F5C  31                 	db	49	;'1'
   274   000F5D  20                 	db	32
   275   000F5E  46                 	db	70	;'F'
   276   000F5F  61                 	db	97	;'a'
   277   000F60  75                 	db	117	;'u'
   278   000F61  6C                 	db	108	;'l'
   279   000F62  74                 	db	116	;'t'
   280   000F63  20                 	db	32
   281   000F64  43                 	db	67	;'C'
   282   000F65  6F                 	db	111	;'o'
   283   000F66  64                 	db	100	;'d'
   284   000F67  65                 	db	101	;'e'
   285   000F68  3D                 	db	61	;'='
   286   000F69  25                 	db	37
   287   000F6A  75                 	db	117	;'u'
   288   000F6B  0A                 	db	10
   289   000F6C  0D                 	db	13
   290   000F6D  09                 	db	9
   291   000F6E  4D                 	db	77	;'M'
   292   000F6F  6F                 	db	111	;'o'
   293   000F70  74                 	db	116	;'t'
   294   000F71  6F                 	db	111	;'o'
   295   000F72  72                 	db	114	;'r'
   296   000F73  20                 	db	32
   297   000F74  32                 	db	50	;'2'
   298   000F75  20                 	db	32
   299   000F76  46                 	db	70	;'F'
   300   000F77  61                 	db	97	;'a'
   301   000F78  75                 	db	117	;'u'
   302   000F79  6C                 	db	108	;'l'
   303   000F7A  74                 	db	116	;'t'
   304   000F7B  20                 	db	32
   305   000F7C  43                 	db	67	;'C'
   306   000F7D  6F                 	db	111	;'o'
   307   000F7E  64                 	db	100	;'d'
   308   000F7F  65                 	db	101	;'e'
   309   000F80  3D                 	db	61	;'='
   310   000F81  25                 	db	37
   311   000F82  75                 	db	117	;'u'
   312   000F83  00                 	db	0
   313   000F84  00                 	db	0	; dummy byte at the end
   314   000000                     
   315                           	psect	nvCOMRAM
   316   000040                     __pnvCOMRAM:
   317                           	callstack 0
   318   000040                     _EUSART1_ErrorHandler:
   319                           	callstack 0
   320   000040                     	ds	2
   321   000042                     _EUSART1_OverrunErrorHandler:
   322                           	callstack 0
   323   000042                     	ds	2
   324   000044                     _EUSART1_FramingErrorHandler:
   325                           	callstack 0
   326   000044                     	ds	2
   327   000000                     _ODCONBbits	set	3863
   328   000000                     _PR2	set	4028
   329   000000                     _TMR2	set	4027
   330   000000                     _T2CONbits	set	4029
   331   000000                     _T2RSTbits	set	4032
   332   000000                     _T2HLTbits	set	4030
   333   000000                     _RC1STAbits	set	3997
   334   000000                     _TX1STAbits	set	3998
   335   000000                     _SSP1STATbits	set	3989
   336   000000                     _SSP1CON2bits	set	3991
   337   000000                     _SSP1CON1bits	set	3990
   338   000000                     _LATBbits	set	3972
   339   000000                     _RX1PPS	set	3765
   340   000000                     _SSP1CLKPPS	set	3767
   341   000000                     _INLVLA	set	3853
   342   000000                     _SLRCONA	set	3854
   343   000000                     _ODCONA	set	3855
   344   000000                     _WPUA	set	3856
   345   000000                     _ANSELA	set	3857
   346   000000                     _ANSELB	set	3865
   347   000000                     _ANSELC	set	3873
   348   000000                     _LATA	set	3971
   349   000000                     _TRISA	set	3976
   350   000000                     _LATC	set	3973
   351   000000                     _LATB	set	3972
   352   000000                     _PORTAbits	set	3981
   353   000000                     _INTCONbits	set	4082
   354   000000                     _TRISC	set	3978
   355   000000                     _TRISB	set	3977
   356   000000                     _INLVLE	set	3882
   357   000000                     _WPUE	set	3885
   358   000000                     _INLVLC	set	3869
   359   000000                     _SLRCONC	set	3870
   360   000000                     _ODCONC	set	3871
   361   000000                     _WPUC	set	3872
   362   000000                     _INLVLB	set	3861
   363   000000                     _SLRCONB	set	3862
   364   000000                     _ODCONB	set	3863
   365   000000                     _WPUB	set	3864
   366   000000                     _PIE3bits	set	3781
   367   000000                     _PIR3bits	set	3789
   368   000000                     _SSP1DATPPS	set	3768
   369   000000                     _RC3PPS	set	3834
   370   000000                     _RC6PPS	set	3837
   371   000000                     _RC4PPS	set	3835
   372   000000                     _SSP1BUF	set	3986
   373   000000                     _SSP1ADD	set	3987
   374   000000                     _SSP1STAT	set	3989
   375   000000                     _RC1REG	set	3993
   376   000000                     _SP1BRGL	set	3995
   377   000000                     _RC1STA	set	3997
   378   000000                     _BAUD1CON	set	3999
   379   000000                     _SSP1CON2	set	3991
   380   000000                     _SSP1CON1	set	3990
   381   000000                     _PIR4bits	set	3790
   382   000000                     _OSCCON1	set	3800
   383   000000                     _OSCCON3	set	3802
   384   000000                     _OSCEN	set	3804
   385   000000                     _PMD0	set	3809
   386   000000                     _PMD5	set	3814
   387   000000                     _PMD4	set	3813
   388   000000                     _PMD3	set	3812
   389   000000                     _PMD2	set	3811
   390   000000                     _PMD1	set	3810
   391   000000                     _T2TMR	set	4027
   392   000000                     _T2PR	set	4028
   393   000000                     _T2HLT	set	4030
   394   000000                     _T2CLKCON	set	4031
   395   000000                     _T2RST	set	4032
   396                           
   397                           ; #config settings
   398                           
   399                           	psect	cinit
   400   0037BE                     __pcinit:
   401                           	callstack 0
   402   0037BE                     start_initialization:
   403                           	callstack 0
   404   0037BE                     __initialization:
   405                           	callstack 0
   406                           
   407                           ; Clear objects allocated to BANK0 (68 bytes)
   408   0037BE  EE00  F0BC         	lfsr	0,__pbssBANK0
   409   0037C2  0E44               	movlw	68
   410   0037C4                     clear_0:
   411   0037C4  6AEE               	clrf	postinc0,c
   412   0037C6  06E8               	decf	wreg,f,c
   413   0037C8  E1FD               	bnz	clear_0
   414                           
   415                           ; Clear objects allocated to COMRAM (16 bytes)
   416   0037CA  EE00  F030         	lfsr	0,__pbssCOMRAM
   417   0037CE  0E10               	movlw	16
   418   0037D0                     clear_1:
   419   0037D0  6AEE               	clrf	postinc0,c
   420   0037D2  06E8               	decf	wreg,f,c
   421   0037D4  E1FD               	bnz	clear_1
   422   0037D6                     end_of_initialization:
   423                           	callstack 0
   424   0037D6                     __end_of__initialization:
   425                           	callstack 0
   426   0037D6  9046               	bcf	int$flags,0,c	;clear compiler interrupt flag (level 1)
   427   0037D8  9246               	bcf	int$flags,1,c	;clear compiler interrupt flag (level 2)
   428   0037DA  0100               	movlb	0
   429   0037DC  EFF3  F00E         	goto	_main	;jump to C main() function
   430                           
   431                           	psect	bssCOMRAM
   432   000030                     __pbssCOMRAM:
   433                           	callstack 0
   434   000030                     _hall_time:
   435                           	callstack 0
   436   000030                     	ds	4
   437   000034                     _hall_pos:
   438                           	callstack 0
   439   000034                     	ds	4
   440   000038                     _width:
   441                           	callstack 0
   442   000038                     	ds	2
   443   00003A                     _prec:
   444                           	callstack 0
   445   00003A                     	ds	2
   446   00003C                     _MSSP1_InterruptHandler:
   447                           	callstack 0
   448   00003C                     	ds	2
   449   00003E                     _flags:
   450                           	callstack 0
   451   00003E                     	ds	1
   452   00003F                     _eusart1RxLastError:
   453                           	callstack 0
   454   00003F                     	ds	1
   455                           
   456                           	psect	bssBANK0
   457   0000BC                     __pbssBANK0:
   458                           	callstack 0
   459   0000BC                     _I2C1_Status:
   460                           	callstack 0
   461   0000BC                     	ds	36
   462   0000E0                     _dbuf:
   463                           	callstack 0
   464   0000E0                     	ds	32
   465                           
   466                           	psect	cstackBANK1
   467   000100                     __pcstackBANK1:
   468                           	callstack 0
   469   000100                     main@hall_raw:
   470                           	callstack 0
   471                           
   472                           ; 2 bytes @ 0x0
   473   000100                     	ds	2
   474   000102                     main@readCount:
   475                           	callstack 0
   476                           
   477                           ; 2 bytes @ 0x2
   478   000102                     	ds	2
   479   000104                     main@temp_data:
   480                           	callstack 0
   481                           
   482                           ; 1 bytes @ 0x4
   483   000104                     	ds	1
   484   000105                     main@motor1_fault:
   485                           	callstack 0
   486                           
   487                           ; 1 bytes @ 0x5
   488   000105                     	ds	1
   489   000106                     main@motor2_fault:
   490                           	callstack 0
   491                           
   492                           ; 1 bytes @ 0x6
   493   000106                     	ds	1
   494   000107                     main@deployStatus:
   495                           	callstack 0
   496                           
   497                           ; 1 bytes @ 0x7
   498   000107                     	ds	1
   499   000108                     main@wind_speed:
   500                           	callstack 0
   501                           
   502                           ; 4 bytes @ 0x8
   503   000108                     	ds	4
   504   00010C                     main@threshCount:
   505                           	callstack 0
   506                           
   507                           ; 2 bytes @ 0xC
   508   00010C                     	ds	2
   509                           
   510                           	psect	cstackBANK0
   511   000060                     __pcstackBANK0:
   512                           	callstack 0
   513   000060                     ___aodiv@counter:
   514                           	callstack 0
   515   000060                     ___flmul@sign:
   516                           	callstack 0
   517   000060                     pad@fp:
   518                           	callstack 0
   519   000060                     ___lodiv@quotient:
   520                           	callstack 0
   521                           
   522                           ; 8 bytes @ 0x0
   523   000060                     	ds	1
   524   000061                     ___aodiv@sign:
   525                           	callstack 0
   526   000061                     ___flmul@aexp:
   527                           	callstack 0
   528                           
   529                           ; 1 bytes @ 0x1
   530   000061                     	ds	1
   531   000062                     pad@buf:
   532                           	callstack 0
   533   000062                     ___flmul@grs:
   534                           	callstack 0
   535   000062                     ___aodiv@quotient:
   536                           	callstack 0
   537                           
   538                           ; 8 bytes @ 0x2
   539   000062                     	ds	2
   540   000064                     pad@p:
   541                           	callstack 0
   542                           
   543                           ; 2 bytes @ 0x4
   544   000064                     	ds	2
   545   000066                     ___flmul@bexp:
   546                           	callstack 0
   547   000066                     pad@i:
   548                           	callstack 0
   549                           
   550                           ; 2 bytes @ 0x6
   551   000066                     	ds	1
   552   000067                     ___flmul@prod:
   553                           	callstack 0
   554                           
   555                           ; 4 bytes @ 0x7
   556   000067                     	ds	1
   557   000068                     ___lodiv@counter:
   558                           	callstack 0
   559   000068                     pad@w:
   560                           	callstack 0
   561                           
   562                           ; 2 bytes @ 0x8
   563   000068                     	ds	2
   564   00006A                     dtoa@fp:
   565                           	callstack 0
   566   00006A                     utoa@fp:
   567                           	callstack 0
   568                           
   569                           ; 2 bytes @ 0xA
   570   00006A                     	ds	1
   571   00006B                     ___flmul@temp:
   572                           	callstack 0
   573                           
   574                           ; 2 bytes @ 0xB
   575   00006B                     	ds	1
   576   00006C                     dtoa@d:
   577                           	callstack 0
   578   00006C                     utoa@d:
   579                           	callstack 0
   580                           
   581                           ; 8 bytes @ 0xC
   582   00006C                     	ds	1
   583   00006D                     ??___fldiv:
   584                           
   585                           ; 1 bytes @ 0xD
   586   00006D                     	ds	4
   587   000071                     ___fldiv@rem:
   588                           	callstack 0
   589                           
   590                           ; 4 bytes @ 0x11
   591   000071                     	ds	3
   592   000074                     ??_dtoa:
   593   000074                     ??_utoa:
   594                           
   595                           ; 1 bytes @ 0x14
   596   000074                     	ds	1
   597   000075                     ___fldiv@sign:
   598                           	callstack 0
   599                           
   600                           ; 1 bytes @ 0x15
   601   000075                     	ds	1
   602   000076                     ___fldiv@new_exp:
   603                           	callstack 0
   604                           
   605                           ; 2 bytes @ 0x16
   606   000076                     	ds	2
   607   000078                     ___fldiv@grs:
   608                           	callstack 0
   609                           
   610                           ; 4 bytes @ 0x18
   611   000078                     	ds	4
   612   00007C                     ___fldiv@bexp:
   613                           	callstack 0
   614   00007C                     _dtoa$2473:
   615                           	callstack 0
   616   00007C                     utoa@w:
   617                           	callstack 0
   618                           
   619                           ; 2 bytes @ 0x1C
   620   00007C                     	ds	1
   621   00007D                     ___fldiv@aexp:
   622                           	callstack 0
   623                           
   624                           ; 1 bytes @ 0x1D
   625   00007D                     	ds	1
   626   00007E                     ?_windSpeedCalc:
   627                           	callstack 0
   628   00007E                     dtoa@p:
   629                           	callstack 0
   630   00007E                     utoa@p:
   631                           	callstack 0
   632                           
   633                           ; 2 bytes @ 0x1E
   634   00007E                     	ds	2
   635   000080                     dtoa@w:
   636                           	callstack 0
   637   000080                     utoa@n:
   638                           	callstack 0
   639                           
   640                           ; 8 bytes @ 0x20
   641   000080                     	ds	2
   642   000082                     windSpeedCalc@dw_dt:
   643                           	callstack 0
   644   000082                     dtoa@n:
   645                           	callstack 0
   646                           
   647                           ; 8 bytes @ 0x22
   648   000082                     	ds	4
   649   000086                     windSpeedCalc@linearVel:
   650                           	callstack 0
   651                           
   652                           ; 4 bytes @ 0x26
   653   000086                     	ds	2
   654   000088                     utoa@i:
   655                           	callstack 0
   656                           
   657                           ; 2 bytes @ 0x28
   658   000088                     	ds	2
   659   00008A                     dtoa@s:
   660                           	callstack 0
   661   00008A                     _windSpeedCalc$2881:
   662                           	callstack 0
   663                           
   664                           ; 4 bytes @ 0x2A
   665   00008A                     	ds	1
   666   00008B                     dtoa@i:
   667                           	callstack 0
   668                           
   669                           ; 2 bytes @ 0x2B
   670   00008B                     	ds	2
   671   00008D                     vfpfcnvrt@fp:
   672                           	callstack 0
   673                           
   674                           ; 2 bytes @ 0x2D
   675   00008D                     	ds	1
   676   00008E                     _windSpeedCalc$2882:
   677                           	callstack 0
   678                           
   679                           ; 4 bytes @ 0x2E
   680   00008E                     	ds	1
   681   00008F                     vfpfcnvrt@fmt:
   682                           	callstack 0
   683                           
   684                           ; 2 bytes @ 0x2F
   685   00008F                     	ds	2
   686   000091                     vfpfcnvrt@ap:
   687                           	callstack 0
   688                           
   689                           ; 2 bytes @ 0x31
   690   000091                     	ds	2
   691   000093                     ??_vfpfcnvrt:
   692                           
   693                           ; 1 bytes @ 0x33
   694   000093                     	ds	4
   695   000097                     vfpfcnvrt@convarg:
   696                           	callstack 0
   697                           
   698                           ; 8 bytes @ 0x37
   699   000097                     	ds	8
   700   00009F                     vfpfcnvrt@cp:
   701                           	callstack 0
   702                           
   703                           ; 2 bytes @ 0x3F
   704   00009F                     	ds	2
   705   0000A1                     ?_vfprintf:
   706                           	callstack 0
   707   0000A1                     vfprintf@fp:
   708                           	callstack 0
   709                           
   710                           ; 2 bytes @ 0x41
   711   0000A1                     	ds	2
   712   0000A3                     vfprintf@fmt:
   713                           	callstack 0
   714                           
   715                           ; 2 bytes @ 0x43
   716   0000A3                     	ds	2
   717   0000A5                     vfprintf@ap:
   718                           	callstack 0
   719                           
   720                           ; 2 bytes @ 0x45
   721   0000A5                     	ds	2
   722   0000A7                     vfprintf@cfmt:
   723                           	callstack 0
   724                           
   725                           ; 2 bytes @ 0x47
   726   0000A7                     	ds	2
   727   0000A9                     ?_printf:
   728                           	callstack 0
   729   0000A9                     printf@fmt:
   730                           	callstack 0
   731                           
   732                           ; 2 bytes @ 0x49
   733   0000A9                     	ds	16
   734   0000B9                     printf@ap:
   735                           	callstack 0
   736                           
   737                           ; 2 bytes @ 0x59
   738   0000B9                     	ds	2
   739   0000BB                     ??_main:
   740                           
   741                           ; 1 bytes @ 0x5B
   742   0000BB                     	ds	1
   743                           
   744                           	psect	cstackCOMRAM
   745   000001                     __pcstackCOMRAM:
   746                           	callstack 0
   747   000001                     I2C1_MasterSendTxData@data:
   748                           	callstack 0
   749   000001                     i2I2C1_SetBuffer@buffer:
   750                           	callstack 0
   751   000001                     i2I2C1_SetCallback@cb:
   752                           	callstack 0
   753                           
   754                           ; 2 bytes @ 0x0
   755   000001                     	ds	1
   756   000002                     
   757                           ; 1 bytes @ 0x1
   758   000002                     	ds	1
   759   000003                     i2I2C1_SetBuffer@bufferSize:
   760                           	callstack 0
   761   000003                     i2I2C1_SetCallback@ptr:
   762                           	callstack 0
   763                           
   764                           ; 2 bytes @ 0x2
   765   000003                     	ds	2
   766   000005                     i2I2C1_SetCallback@idx:
   767                           	callstack 0
   768                           
   769                           ; 1 bytes @ 0x4
   770   000005                     	ds	1
   771   000006                     i2I2C1_SetDataCompleteCallback@cb:
   772                           	callstack 0
   773                           
   774                           ; 2 bytes @ 0x5
   775   000006                     	ds	2
   776   000008                     i2I2C1_SetDataCompleteCallback@ptr:
   777                           	callstack 0
   778                           
   779                           ; 2 bytes @ 0x7
   780   000008                     	ds	2
   781   00000A                     rd1RegCompleteHandler@ptr:
   782                           	callstack 0
   783   00000A                     rd2RegCompleteHandler@ptr:
   784                           	callstack 0
   785   00000A                     wr1RegCompleteHandler@ptr:
   786                           	callstack 0
   787   00000A                     wr2RegCompleteHandler@ptr:
   788                           	callstack 0
   789   00000A                     rdBlkRegCompleteHandler@ptr:
   790                           	callstack 0
   791   00000A                     I2C1_CallbackReturnReset@funPtr:
   792                           	callstack 0
   793                           
   794                           ; 2 bytes @ 0x9
   795   00000A                     	ds	2
   796   00000C                     ??_I2C1_DO_TX:
   797   00000C                     ??_I2C1_DO_RX:
   798   00000C                     ??_I2C1_DO_TX_EMPTY:
   799   00000C                     ??_I2C1_DO_ADDRESS_NACK:
   800   00000C                     
   801                           ; 1 bytes @ 0xB
   802   00000C                     	ds	2
   803   00000E                     ??_I2C1_MasterFsm:
   804                           
   805                           ; 1 bytes @ 0xD
   806   00000E                     	ds	2
   807   000010                     ??_INTERRUPT_InterruptManager:
   808                           
   809                           ; 1 bytes @ 0xF
   810   000010                     	ds	10
   811   00001A                     ?_isdigit:
   812                           	callstack 0
   813   00001A                     ?_isspace:
   814                           	callstack 0
   815   00001A                     ?___wmul:
   816                           	callstack 0
   817   00001A                     ?___lwdiv:
   818                           	callstack 0
   819   00001A                     ?___flmul:
   820                           	callstack 0
   821   00001A                     ?___aodiv:
   822                           	callstack 0
   823   00001A                     ?___aomod:
   824                           	callstack 0
   825   00001A                     ?___lodiv:
   826                           	callstack 0
   827   00001A                     ?___lomod:
   828                           	callstack 0
   829   00001A                     I2C1_Close@returnValue:
   830                           	callstack 0
   831   00001A                     I2C1_MasterOperation@read:
   832                           	callstack 0
   833   00001A                     _EUSART1_is_tx_ready$1681:
   834                           	callstack 0
   835   00001A                     EUSART1_Write@txData:
   836                           	callstack 0
   837   00001A                     TMR2_Counter8BitGet@readVal:
   838                           	callstack 0
   839   00001A                     I2C1_SetBuffer@buffer:
   840                           	callstack 0
   841   00001A                     I2C1_SetInterruptHandler@InterruptHandler:
   842                           	callstack 0
   843   00001A                     I2C1_SetCallback@cb:
   844                           	callstack 0
   845   00001A                     EUSART1_SetFramingErrorHandler@interruptHandler:
   846                           	callstack 0
   847   00001A                     EUSART1_SetOverrunErrorHandler@interruptHandler:
   848                           	callstack 0
   849   00001A                     EUSART1_SetErrorHandler@interruptHandler:
   850                           	callstack 0
   851   00001A                     ___wmul@multiplier:
   852                           	callstack 0
   853   00001A                     ___lwdiv@dividend:
   854                           	callstack 0
   855   00001A                     isdigit@c:
   856                           	callstack 0
   857   00001A                     isspace@c:
   858                           	callstack 0
   859   00001A                     ___flge@ff1:
   860                           	callstack 0
   861   00001A                     ___flmul@b:
   862                           	callstack 0
   863   00001A                     ___aodiv@dividend:
   864                           	callstack 0
   865   00001A                     ___aomod@dividend:
   866                           	callstack 0
   867   00001A                     ___lodiv@dividend:
   868                           	callstack 0
   869   00001A                     ___lomod@dividend:
   870                           	callstack 0
   871                           
   872                           ; 8 bytes @ 0x19
   873   00001A                     	ds	1
   874   00001B                     I2C1_MasterOperation@returnValue:
   875                           	callstack 0
   876   00001B                     putch@txData:
   877                           	callstack 0
   878                           
   879                           ; 1 bytes @ 0x1A
   880   00001B                     	ds	1
   881   00001C                     ??_isdigit:
   882   00001C                     ??_isspace:
   883   00001C                     I2C1_Open@address:
   884                           	callstack 0
   885   00001C                     I2C1_SetBuffer@bufferSize:
   886                           	callstack 0
   887   00001C                     I2C1_SetCallback@ptr:
   888                           	callstack 0
   889   00001C                     ___wmul@multiplicand:
   890                           	callstack 0
   891   00001C                     ___lwdiv@divisor:
   892                           	callstack 0
   893   00001C                     fputc@c:
   894                           	callstack 0
   895                           
   896                           ; 2 bytes @ 0x1B
   897   00001C                     	ds	1
   898   00001D                     I2C1_Open@returnValue:
   899                           	callstack 0
   900                           
   901                           ; 1 bytes @ 0x1C
   902   00001D                     	ds	1
   903   00001E                     I2C1_SetCallback@idx:
   904                           	callstack 0
   905   00001E                     ___lwdiv@counter:
   906                           	callstack 0
   907   00001E                     _isspace$2530:
   908                           	callstack 0
   909   00001E                     ___wmul@product:
   910                           	callstack 0
   911   00001E                     fputc@fp:
   912                           	callstack 0
   913   00001E                     ___flge@ff2:
   914                           	callstack 0
   915   00001E                     ___flmul@a:
   916                           	callstack 0
   917                           
   918                           ; 4 bytes @ 0x1D
   919   00001E                     	ds	1
   920   00001F                     I2C1_SetDataCompleteCallback@cb:
   921                           	callstack 0
   922   00001F                     I2C1_SetAddressNackCallback@cb:
   923                           	callstack 0
   924   00001F                     ___lwdiv@quotient:
   925                           	callstack 0
   926                           
   927                           ; 2 bytes @ 0x1E
   928   00001F                     	ds	1
   929   000020                     ??_fputc:
   930   000020                     ?_atoi:
   931                           	callstack 0
   932   000020                     atoi@s:
   933                           	callstack 0
   934                           
   935                           ; 2 bytes @ 0x1F
   936   000020                     	ds	1
   937   000021                     ?___xxtofl:
   938                           	callstack 0
   939   000021                     I2C1_SetDataCompleteCallback@ptr:
   940                           	callstack 0
   941   000021                     I2C1_SetAddressNackCallback@ptr:
   942                           	callstack 0
   943   000021                     ___xxtofl@val:
   944                           	callstack 0
   945                           
   946                           ; 4 bytes @ 0x20
   947   000021                     	ds	1
   948   000022                     ??___flmul:
   949   000022                     ??_atoi:
   950   000022                     ??___flge:
   951   000022                     ___aodiv@divisor:
   952                           	callstack 0
   953   000022                     ___aomod@divisor:
   954                           	callstack 0
   955   000022                     ___lodiv@divisor:
   956                           	callstack 0
   957   000022                     ___lomod@divisor:
   958                           	callstack 0
   959                           
   960                           ; 8 bytes @ 0x21
   961   000022                     	ds	1
   962   000023                     I2C1_Read1ByteRegister@reg:
   963                           	callstack 0
   964   000023                     I2C1_Write1ByteRegister@reg:
   965                           	callstack 0
   966                           
   967                           ; 1 bytes @ 0x22
   968   000023                     	ds	1
   969   000024                     I2C1_Read1ByteRegister@address:
   970                           	callstack 0
   971   000024                     I2C1_Write1ByteRegister@data:
   972                           	callstack 0
   973                           
   974                           ; 1 bytes @ 0x23
   975   000024                     	ds	1
   976   000025                     ??___xxtofl:
   977   000025                     I2C1_Read1ByteRegister@returnValue:
   978                           	callstack 0
   979   000025                     I2C1_Write1ByteRegister@address:
   980                           	callstack 0
   981   000025                     atoi@neg:
   982                           	callstack 0
   983   000025                     fputs@s:
   984                           	callstack 0
   985                           
   986                           ; 2 bytes @ 0x24
   987   000025                     	ds	1
   988   000026                     ?_hallRead:
   989                           	callstack 0
   990   000026                     ?___fldiv:
   991                           	callstack 0
   992   000026                     motorController@speed:
   993                           	callstack 0
   994   000026                     motorFaultRead@address:
   995                           	callstack 0
   996   000026                     ___fldiv@b:
   997                           	callstack 0
   998                           
   999                           ; 4 bytes @ 0x25
  1000   000026                     	ds	1
  1001   000027                     motorController@dir:
  1002                           	callstack 0
  1003   000027                     atoi@n:
  1004                           	callstack 0
  1005   000027                     fputs@fp:
  1006                           	callstack 0
  1007                           
  1008                           ; 2 bytes @ 0x26
  1009   000027                     	ds	1
  1010   000028                     ??_hallRead:
  1011   000028                     motorController@address:
  1012                           	callstack 0
  1013                           
  1014                           ; 1 bytes @ 0x27
  1015   000028                     	ds	1
  1016   000029                     motorController@data:
  1017                           	callstack 0
  1018   000029                     ___xxtofl@sign:
  1019                           	callstack 0
  1020   000029                     fputs@c:
  1021                           	callstack 0
  1022                           
  1023                           ; 1 bytes @ 0x28
  1024   000029                     	ds	1
  1025   00002A                     ??_motorDeploy:
  1026   00002A                     ??_motorStow:
  1027   00002A                     ___aomod@counter:
  1028                           	callstack 0
  1029   00002A                     ___lomod@counter:
  1030                           	callstack 0
  1031   00002A                     ___xxtofl@exp:
  1032                           	callstack 0
  1033   00002A                     fputs@i:
  1034                           	callstack 0
  1035   00002A                     ___fldiv@a:
  1036                           	callstack 0
  1037                           
  1038                           ; 4 bytes @ 0x29
  1039   00002A                     	ds	1
  1040   00002B                     ___aomod@sign:
  1041                           	callstack 0
  1042   00002B                     ___xxtofl@arg:
  1043                           	callstack 0
  1044                           
  1045                           ; 4 bytes @ 0x2A
  1046   00002B                     	ds	1
  1047   00002C                     ??_hallRecord:
  1048   00002C                     ??_system_init:
  1049   00002C                     ??_pad:
  1050   00002C                     ?_abs:
  1051                           	callstack 0
  1052   00002C                     abs@a:
  1053                           	callstack 0
  1054                           
  1055                           ; 2 bytes @ 0x2B
  1056   00002C                     	ds	2
  1057   00002E                     ??_abs:
  1058                           
  1059                           ; 1 bytes @ 0x2D
  1060   00002E                     	ds	1
  1061   00002F                     
  1062                           ; 1 bytes @ 0x2E
  1063   00002F                     	ds	1
  1064   000030                     
  1065                           ; 1 bytes @ 0x2F
  1066 ;;
  1067 ;;Main: autosize = 0, tempsize = 1, incstack = 0, save=0
  1068 ;;
  1069 ;; *************** function _main *****************
  1070 ;; Defined at:
  1071 ;;		line 143 in file "main.c"
  1072 ;; Parameters:    Size  Location     Type
  1073 ;;		None
  1074 ;; Auto vars:     Size  Location     Type
  1075 ;;  wind_speed      4    8[BANK1 ] PTR unsigned char 
  1076 ;;  threshCount     2   12[BANK1 ] int 
  1077 ;;  readCount       2    2[BANK1 ] int 
  1078 ;;  hall_raw        2    0[BANK1 ] unsigned short 
  1079 ;;  deployStatus    1    7[BANK1 ] _Bool 
  1080 ;;  motor2_fault    1    6[BANK1 ] unsigned char 
  1081 ;;  motor1_fault    1    5[BANK1 ] unsigned char 
  1082 ;;  temp_data       1    4[BANK1 ] unsigned char 
  1083 ;; Return value:  Size  Location     Type
  1084 ;;                  1    wreg      void 
  1085 ;; Registers used:
  1086 ;;		wreg, fsr1l, fsr1h, fsr2l, fsr2h, status,2, status,0, tblptrl, tblptrh, tblptru, prodl, prodh, cstack
  1087 ;; Tracked objects:
  1088 ;;		On entry : 0/0
  1089 ;;		On exit  : 0/0
  1090 ;;		Unchanged: 0/0
  1091 ;; Data sizes:     COMRAM   BANK0   BANK1   BANK2   BANK3   BANK4   BANK5   BANK6   BANK7   BANK8   BANK9  BANK10  BANK1
      +1  BANK12  BANK13  BANK14
  1092 ;;      Params:         0       0       0       0       0       0       0       0       0       0       0       0       
      +0       0       0       0
  1093 ;;      Locals:         0       0      14       0       0       0       0       0       0       0       0       0       
      +0       0       0       0
  1094 ;;      Temps:          0       1       0       0       0       0       0       0       0       0       0       0       
      +0       0       0       0
  1095 ;;      Totals:         0       1      14       0       0       0       0       0       0       0       0       0       
      +0       0       0       0
  1096 ;;Total ram usage:       15 bytes
  1097 ;; Hardware stack levels required when called: 16
  1098 ;; This function calls:
  1099 ;;		_EUSART1_is_tx_ready
  1100 ;;		_SYSTEM_Initialize
  1101 ;;		___flge
  1102 ;;		_hallRead
  1103 ;;		_motorDeploy
  1104 ;;		_motorFaultRead
  1105 ;;		_motorStow
  1106 ;;		_printf
  1107 ;;		_system_init
  1108 ;;		_tempRead
  1109 ;;		_windSpeedCalc
  1110 ;; This function is called by:
  1111 ;;		Startup code after reset
  1112 ;; This function uses a non-reentrant model
  1113 ;;
  1114                           
  1115                           	psect	text0
  1116   001DE6                     __ptext0:
  1117                           	callstack 0
  1118   001DE6                     _main:
  1119                           	callstack 15
  1120   001DE6                     
  1121                           ;main.c: 146:     SYSTEM_Initialize();
  1122   001DE6  EC01  F01C         	call	_SYSTEM_Initialize	;wreg free
  1123   001DEA                     
  1124                           ;main.c: 147:     system_init();
  1125   001DEA  ECB9  F01A         	call	_system_init	;wreg free
  1126   001DEE                     
  1127                           ;main.c: 149:     (INTCONbits.GIE = 1);
  1128   001DEE  8EF2               	bsf	242,7,c	;volatile
  1129   001DF0                     
  1130                           ;main.c: 150:     (INTCONbits.PEIE = 1);
  1131   001DF0  8CF2               	bsf	242,6,c	;volatile
  1132   001DF2                     
  1133                           ;main.c: 152:     uint8_t temp_data;;main.c: 153:     uint16_t hall_raw;;main.c: 154:   
      +                            double wind_speed;;main.c: 155:     int readCount = 0;
  1134   001DF2  0E00               	movlw	0
  1135   001DF4  0101               	movlb	1	; () banked
  1136   001DF6  6F03               	movwf	(main@readCount+1)& (0+255),b
  1137   001DF8  0E00               	movlw	0
  1138   001DFA  6F02               	movwf	main@readCount& (0+255),b
  1139   001DFC                     
  1140                           ; BSR set to: 1
  1141                           ;main.c: 157:     int threshCount = 0;
  1142   001DFC  0E00               	movlw	0
  1143   001DFE  6F0D               	movwf	(main@threshCount+1)& (0+255),b
  1144   001E00  0E00               	movlw	0
  1145   001E02  6F0C               	movwf	main@threshCount& (0+255),b
  1146   001E04                     
  1147                           ; BSR set to: 1
  1148                           ;main.c: 158:     _Bool deployStatus = 0;
  1149   001E04  0E00               	movlw	0
  1150   001E06  6F07               	movwf	main@deployStatus& (0+255),b
  1151   001E08                     l6190:
  1152                           
  1153                           ;main.c: 166:         temp_data = tempRead();
  1154   001E08  ECA2  F01C         	call	_tempRead	;wreg free
  1155   001E0C  0101               	movlb	1	; () banked
  1156   001E0E  6F04               	movwf	main@temp_data& (0+255),b
  1157   001E10                     
  1158                           ; BSR set to: 1
  1159                           ;main.c: 167:         hall_raw = hallRead();
  1160   001E10  EC6A  F01B         	call	_hallRead	;wreg free
  1161   001E14  C026  F100         	movff	?_hallRead,main@hall_raw
  1162   001E18  C027  F101         	movff	?_hallRead+1,main@hall_raw+1
  1163   001E1C                     
  1164                           ;main.c: 168:         wind_speed = windSpeedCalc();
  1165   001E1C  ECC9  F013         	call	_windSpeedCalc	;wreg free
  1166   001E20  C07E  F108         	movff	?_windSpeedCalc,main@wind_speed
  1167   001E24  C07F  F109         	movff	?_windSpeedCalc+1,main@wind_speed+1
  1168   001E28  C080  F10A         	movff	?_windSpeedCalc+2,main@wind_speed+2
  1169   001E2C  C081  F10B         	movff	?_windSpeedCalc+3,main@wind_speed+3
  1170   001E30                     
  1171                           ;main.c: 170:         if (PORTAbits.RA1==0)
  1172   001E30  B28D               	btfsc	141,1,c	;volatile
  1173   001E32  EF1D  F00F         	goto	u5071
  1174   001E36  EF1F  F00F         	goto	u5070
  1175   001E3A                     u5071:
  1176   001E3A  EF24  F00F         	goto	l6200
  1177   001E3E                     u5070:
  1178   001E3E                     
  1179                           ;main.c: 171:             motor1_fault = motorFaultRead(0xD1);
  1180   001E3E  0ED1               	movlw	209
  1181   001E40  EC9B  F01C         	call	_motorFaultRead
  1182   001E44  0101               	movlb	1	; () banked
  1183   001E46  6F05               	movwf	main@motor1_fault& (0+255),b
  1184   001E48                     l6200:
  1185                           
  1186                           ;main.c: 172:         if (PORTAbits.RA2==0)
  1187   001E48  B48D               	btfsc	141,2,c	;volatile
  1188   001E4A  EF29  F00F         	goto	u5081
  1189   001E4E  EF2B  F00F         	goto	u5080
  1190   001E52                     u5081:
  1191   001E52  EF30  F00F         	goto	l6204
  1192   001E56                     u5080:
  1193   001E56                     
  1194                           ;main.c: 173:             motor2_fault = motorFaultRead(0xC1);
  1195   001E56  0EC1               	movlw	193
  1196   001E58  EC9B  F01C         	call	_motorFaultRead
  1197   001E5C  0101               	movlb	1	; () banked
  1198   001E5E  6F06               	movwf	main@motor2_fault& (0+255),b
  1199   001E60                     l6204:
  1200                           
  1201                           ;main.c: 175:         if(wind_speed>10 && threshCount<5)
  1202   001E60  0E00               	movlw	0
  1203   001E62  6E1A               	movwf	___flge@ff1^0,c
  1204   001E64  0E00               	movlw	0
  1205   001E66  6E1B               	movwf	(___flge@ff1+1)^0,c
  1206   001E68  0E20               	movlw	32
  1207   001E6A  6E1C               	movwf	(___flge@ff1+2)^0,c
  1208   001E6C  0E41               	movlw	65
  1209   001E6E  6E1D               	movwf	(___flge@ff1+3)^0,c
  1210   001E70  C108  F01E         	movff	main@wind_speed,___flge@ff2
  1211   001E74  C109  F01F         	movff	main@wind_speed+1,___flge@ff2+1
  1212   001E78  C10A  F020         	movff	main@wind_speed+2,___flge@ff2+2
  1213   001E7C  C10B  F021         	movff	main@wind_speed+3,___flge@ff2+3
  1214   001E80  EC53  F014         	call	___flge	;wreg free
  1215   001E84  B0D8               	btfsc	status,0,c
  1216   001E86  EF47  F00F         	goto	u5091
  1217   001E8A  EF49  F00F         	goto	u5090
  1218   001E8E                     u5091:
  1219   001E8E  EF5C  F00F         	goto	l6210
  1220   001E92                     u5090:
  1221   001E92  0101               	movlb	1	; () banked
  1222   001E94  BF0D               	btfsc	(main@threshCount+1)& (0+255),7,b
  1223   001E96  EF58  F00F         	goto	u5100
  1224   001E9A  510D               	movf	(main@threshCount+1)& (0+255),w,b
  1225   001E9C  E107               	bnz	u5101
  1226   001E9E  0E05               	movlw	5
  1227   001EA0  5D0C               	subwf	main@threshCount& (0+255),w,b
  1228   001EA2  B0D8               	btfsc	status,0,c
  1229   001EA4  EF56  F00F         	goto	u5101
  1230   001EA8  EF58  F00F         	goto	u5100
  1231   001EAC                     u5101:
  1232   001EAC  EF5C  F00F         	goto	l6210
  1233   001EB0                     u5100:
  1234   001EB0                     
  1235                           ; BSR set to: 1
  1236                           ;main.c: 176:             threshCount++;
  1237   001EB0  4B0C               	infsnz	main@threshCount& (0+255),f,b
  1238   001EB2  2B0D               	incf	(main@threshCount+1)& (0+255),f,b
  1239   001EB4  EF9D  F00F         	goto	l6228
  1240   001EB8                     l6210:
  1241   001EB8  0E00               	movlw	0
  1242   001EBA  6E1A               	movwf	___flge@ff1^0,c
  1243   001EBC  0E00               	movlw	0
  1244   001EBE  6E1B               	movwf	(___flge@ff1+1)^0,c
  1245   001EC0  0E20               	movlw	32
  1246   001EC2  6E1C               	movwf	(___flge@ff1+2)^0,c
  1247   001EC4  0E41               	movlw	65
  1248   001EC6  6E1D               	movwf	(___flge@ff1+3)^0,c
  1249   001EC8  C108  F01E         	movff	main@wind_speed,___flge@ff2
  1250   001ECC  C109  F01F         	movff	main@wind_speed+1,___flge@ff2+1
  1251   001ED0  C10A  F020         	movff	main@wind_speed+2,___flge@ff2+2
  1252   001ED4  C10B  F021         	movff	main@wind_speed+3,___flge@ff2+3
  1253   001ED8  EC53  F014         	call	___flge	;wreg free
  1254   001EDC  B0D8               	btfsc	status,0,c
  1255   001EDE  EF73  F00F         	goto	u5111
  1256   001EE2  EF75  F00F         	goto	u5110
  1257   001EE6                     u5111:
  1258   001EE6  EF98  F00F         	goto	l6224
  1259   001EEA                     u5110:
  1260   001EEA  0101               	movlb	1	; () banked
  1261   001EEC  BF0D               	btfsc	(main@threshCount+1)& (0+255),7,b
  1262   001EEE  EF82  F00F         	goto	u5121
  1263   001EF2  510D               	movf	(main@threshCount+1)& (0+255),w,b
  1264   001EF4  E109               	bnz	u5120
  1265   001EF6  0E05               	movlw	5
  1266   001EF8  5D0C               	subwf	main@threshCount& (0+255),w,b
  1267   001EFA  A0D8               	btfss	status,0,c
  1268   001EFC  EF82  F00F         	goto	u5121
  1269   001F00  EF84  F00F         	goto	u5120
  1270   001F04                     u5121:
  1271   001F04  EF98  F00F         	goto	l6224
  1272   001F08                     u5120:
  1273   001F08                     
  1274                           ; BSR set to: 1
  1275                           ;main.c: 178:             if(deployStatus){
  1276   001F08  5107               	movf	main@deployStatus& (0+255),w,b
  1277   001F0A  B4D8               	btfsc	status,2,c
  1278   001F0C  EF8A  F00F         	goto	u5131
  1279   001F10  EF8C  F00F         	goto	u5130
  1280   001F14                     u5131:
  1281   001F14  EF93  F00F         	goto	l6220
  1282   001F18                     u5130:
  1283   001F18                     
  1284                           ; BSR set to: 1
  1285                           ;main.c: 179:                 motorDeploy();
  1286   001F18  EC63  F019         	call	_motorDeploy	;wreg free
  1287   001F1C                     
  1288                           ;main.c: 180:                 deployStatus = 1;
  1289   001F1C  0E01               	movlw	1
  1290   001F1E  0101               	movlb	1	; () banked
  1291   001F20  6F07               	movwf	main@deployStatus& (0+255),b
  1292                           
  1293                           ;main.c: 181:             }
  1294   001F22  EF98  F00F         	goto	l6224
  1295   001F26                     l6220:
  1296                           
  1297                           ; BSR set to: 1
  1298                           ;main.c: 183:                 motorStow();
  1299   001F26  EC2E  F019         	call	_motorStow	;wreg free
  1300   001F2A                     
  1301                           ;main.c: 184:                 deployStatus = 0;
  1302   001F2A  0E00               	movlw	0
  1303   001F2C  0101               	movlb	1	; () banked
  1304   001F2E  6F07               	movwf	main@deployStatus& (0+255),b
  1305   001F30                     l6224:
  1306                           
  1307                           ;main.c: 186:             threshCount = 0;
  1308   001F30  0E00               	movlw	0
  1309   001F32  0101               	movlb	1	; () banked
  1310   001F34  6F0D               	movwf	(main@threshCount+1)& (0+255),b
  1311   001F36  0E00               	movlw	0
  1312   001F38  6F0C               	movwf	main@threshCount& (0+255),b
  1313   001F3A                     l6228:
  1314                           
  1315                           ; BSR set to: 1
  1316                           ;main.c: 194:         if(EUSART1_is_tx_ready()){
  1317   001F3A  EC7F  F01B         	call	_EUSART1_is_tx_ready	;wreg free
  1318   001F3E  0900               	iorlw	0
  1319   001F40  B4D8               	btfsc	status,2,c
  1320   001F42  EFA5  F00F         	goto	u5141
  1321   001F46  EFA7  F00F         	goto	u5140
  1322   001F4A                     u5141:
  1323   001F4A  EF04  F00F         	goto	l6190
  1324   001F4E                     u5140:
  1325   001F4E                     
  1326                           ;main.c: 195:             printf("Reading%i:\n\r\tTemp=%uC\n\r\tHall=%u\n\r\tWind Speed=
      +                          %5.5d\n\r\tMotor 1 Fault Code=%u\n\r\tMotor 2 Fault Code=%u", ++readCount, temp_data, ha
      +                          ll_raw, wind_speed, motor1_fault, motor2_fault);
  1327   001F4E  0E21               	movlw	low STR_1
  1328   001F50  0100               	movlb	0	; () banked
  1329   001F52  6FA9               	movwf	printf@fmt& (0+255),b
  1330   001F54  0E0F               	movlw	high STR_1
  1331   001F56  6FAA               	movwf	(printf@fmt+1)& (0+255),b
  1332   001F58  0101               	movlb	1	; () banked
  1333   001F5A  4B02               	infsnz	main@readCount& (0+255),f,b
  1334   001F5C  2B03               	incf	(main@readCount+1)& (0+255),f,b
  1335   001F5E  C102  F0AB         	movff	main@readCount,?_printf+2
  1336   001F62  C103  F0AC         	movff	main@readCount+1,?_printf+3
  1337   001F66  C104  F0AD         	movff	main@temp_data,?_printf+4
  1338   001F6A  0100               	movlb	0	; () banked
  1339   001F6C  6BAE               	clrf	(?_printf+5)& (0+255),b
  1340   001F6E  C100  F0AF         	movff	main@hall_raw,?_printf+6
  1341   001F72  C101  F0B0         	movff	main@hall_raw+1,?_printf+7
  1342   001F76  C108  F0B1         	movff	main@wind_speed,?_printf+8
  1343   001F7A  C109  F0B2         	movff	main@wind_speed+1,?_printf+9
  1344   001F7E  C10A  F0B3         	movff	main@wind_speed+2,?_printf+10
  1345   001F82  C10B  F0B4         	movff	main@wind_speed+3,?_printf+11
  1346   001F86  C105  F0B5         	movff	main@motor1_fault,?_printf+12
  1347   001F8A  6BB6               	clrf	(?_printf+13)& (0+255),b
  1348   001F8C  C106  F0B7         	movff	main@motor2_fault,?_printf+14
  1349   001F90  6BB8               	clrf	(?_printf+15)& (0+255),b
  1350   001F92  EC94  F01B         	call	_printf	;wreg free
  1351   001F96  BA84               	btfsc	132,5,c	;volatile
  1352   001F98  EFD0  F00F         	goto	u5151
  1353   001F9C  EFD3  F00F         	goto	u5150
  1354   001FA0                     u5151:
  1355   001FA0  0E01               	movlw	1
  1356   001FA2  EFD4  F00F         	goto	u5156
  1357   001FA6                     u5150:
  1358   001FA6  0E00               	movlw	0
  1359   001FA8                     u5156:
  1360   001FA8  0AFF               	xorlw	255
  1361   001FAA  0100               	movlb	0	; () banked
  1362   001FAC  6FBB               	movwf	??_main& (0+255),b
  1363   001FAE  3BBB               	swapf	??_main& (0+255),f,b
  1364   001FB0  47BB               	rlncf	??_main& (0+255),f,b
  1365   001FB2  5084               	movf	132,w,c	;volatile
  1366   001FB4  19BB               	xorwf	??_main& (0+255),w,b
  1367   001FB6  0BDF               	andlw	-33
  1368   001FB8  19BB               	xorwf	??_main& (0+255),w,b
  1369   001FBA  6E84               	movwf	132,c	;volatile
  1370   001FBC                     
  1371                           ; BSR set to: 0
  1372                           ;main.c: 197:             _delay((unsigned long)((10)*(16000000/4000.0)));
  1373   001FBC  0E34               	movlw	52
  1374   001FBE  0100               	movlb	0	; () banked
  1375   001FC0  6FBB               	movwf	??_main& (0+255),b
  1376   001FC2  0EF1               	movlw	241
  1377   001FC4                     u5167:
  1378   001FC4  2EE8               	decfsz	wreg,f,c
  1379   001FC6  D7FE               	bra	u5167
  1380   001FC8  2FBB               	decfsz	??_main& (0+255),f,b
  1381   001FCA  D7FC               	bra	u5167
  1382   001FCC  D000               	nop2	
  1383   001FCE  EF04  F00F         	goto	l6190
  1384   001FD2  EF63  F000         	goto	start
  1385   001FD6                     __end_of_main:
  1386                           	callstack 0
  1387                           
  1388 ;; *************** function _windSpeedCalc *****************
  1389 ;; Defined at:
  1390 ;;		line 122 in file "main.c"
  1391 ;; Parameters:    Size  Location     Type
  1392 ;;		None
  1393 ;; Auto vars:     Size  Location     Type
  1394 ;;  linearVel       4   38[BANK0 ] void 
  1395 ;;  dw_dt           4   34[BANK0 ] void 
  1396 ;; Return value:  Size  Location     Type
  1397 ;;                  4   30[BANK0 ] void 
  1398 ;; Registers used:
  1399 ;;		wreg, fsr2l, fsr2h, status,2, status,0, prodl, prodh, cstack
  1400 ;; Tracked objects:
  1401 ;;		On entry : 0/0
  1402 ;;		On exit  : 0/0
  1403 ;;		Unchanged: 0/0
  1404 ;; Data sizes:     COMRAM   BANK0   BANK1   BANK2   BANK3   BANK4   BANK5   BANK6   BANK7   BANK8   BANK9  BANK10  BANK1
      +1  BANK12  BANK13  BANK14
  1405 ;;      Params:         0       4       0       0       0       0       0       0       0       0       0       0       
      +0       0       0       0
  1406 ;;      Locals:         0      16       0       0       0       0       0       0       0       0       0       0       
      +0       0       0       0
  1407 ;;      Temps:          0       0       0       0       0       0       0       0       0       0       0       0       
      +0       0       0       0
  1408 ;;      Totals:         0      20       0       0       0       0       0       0       0       0       0       0       
      +0       0       0       0
  1409 ;;Total ram usage:       20 bytes
  1410 ;; Hardware stack levels used: 1
  1411 ;; Hardware stack levels required when called: 13
  1412 ;; This function calls:
  1413 ;;		___fldiv
  1414 ;;		___flmul
  1415 ;;		___lwdiv
  1416 ;;		___xxtofl
  1417 ;;		_hallRecord
  1418 ;; This function is called by:
  1419 ;;		_main
  1420 ;; This function uses a non-reentrant model
  1421 ;;
  1422                           
  1423                           	psect	text1
  1424   002792                     __ptext1:
  1425                           	callstack 0
  1426   002792                     _windSpeedCalc:
  1427                           	callstack 17
  1428   002792                     
  1429                           ;main.c: 123:    hallRecord();
  1430   002792  EC55  F01B         	call	_hallRecord	;wreg free
  1431   002796                     
  1432                           ;main.c: 124:    double dw_dt = (hall_pos[1] - hall_pos[0]) / (hall_time[1] - hall_time[
      +                          0]);
  1433   002796  5030               	movf	_hall_time^0,w,c
  1434   002798  5C32               	subwf	(_hall_time+2)^0,w,c
  1435   00279A  6E1C               	movwf	___lwdiv@divisor^0,c
  1436   00279C  5031               	movf	(_hall_time+1)^0,w,c
  1437   00279E  5833               	subwfb	(_hall_time+3)^0,w,c
  1438   0027A0  6E1D               	movwf	(___lwdiv@divisor+1)^0,c
  1439   0027A2  5034               	movf	_hall_pos^0,w,c
  1440   0027A4  5C36               	subwf	(_hall_pos+2)^0,w,c
  1441   0027A6  6E1A               	movwf	___lwdiv@dividend^0,c
  1442   0027A8  5035               	movf	(_hall_pos+1)^0,w,c
  1443   0027AA  5837               	subwfb	(_hall_pos+3)^0,w,c
  1444   0027AC  6E1B               	movwf	(___lwdiv@dividend+1)^0,c
  1445   0027AE  EC14  F018         	call	___lwdiv	;wreg free
  1446   0027B2  C01A  F021         	movff	?___lwdiv,___xxtofl@val
  1447   0027B6  C01B  F022         	movff	?___lwdiv+1,___xxtofl@val+1
  1448   0027BA  6A23               	clrf	(___xxtofl@val+2)^0,c
  1449   0027BC  6A24               	clrf	(___xxtofl@val+3)^0,c
  1450   0027BE  0E00               	movlw	0
  1451   0027C0  ECCE  F010         	call	___xxtofl
  1452   0027C4  C021  F082         	movff	?___xxtofl,windSpeedCalc@dw_dt
  1453   0027C8  C022  F083         	movff	?___xxtofl+1,windSpeedCalc@dw_dt+1
  1454   0027CC  C023  F084         	movff	?___xxtofl+2,windSpeedCalc@dw_dt+2
  1455   0027D0  C024  F085         	movff	?___xxtofl+3,windSpeedCalc@dw_dt+3
  1456   0027D4                     
  1457                           ;main.c: 125:    double linearVel = (dw_dt * 2.0 * 3.14159265358979323846 * 0.015) / 409
      +                          6 ;
  1458   0027D4  0E00               	movlw	0
  1459   0027D6  6E1E               	movwf	___flmul@a^0,c
  1460   0027D8  0E00               	movlw	0
  1461   0027DA  6E1F               	movwf	(___flmul@a+1)^0,c
  1462   0027DC  0E00               	movlw	0
  1463   0027DE  6E20               	movwf	(___flmul@a+2)^0,c
  1464   0027E0  0E40               	movlw	64
  1465   0027E2  6E21               	movwf	(___flmul@a+3)^0,c
  1466   0027E4  C082  F01A         	movff	windSpeedCalc@dw_dt,___flmul@b
  1467   0027E8  C083  F01B         	movff	windSpeedCalc@dw_dt+1,___flmul@b+1
  1468   0027EC  C084  F01C         	movff	windSpeedCalc@dw_dt+2,___flmul@b+2
  1469   0027F0  C085  F01D         	movff	windSpeedCalc@dw_dt+3,___flmul@b+3
  1470   0027F4  ECC3  F007         	call	___flmul	;wreg free
  1471   0027F8  C01A  F08A         	movff	?___flmul,_windSpeedCalc$2881
  1472   0027FC  C01B  F08B         	movff	?___flmul+1,_windSpeedCalc$2881+1
  1473   002800  C01C  F08C         	movff	?___flmul+2,_windSpeedCalc$2881+2
  1474   002804  C01D  F08D         	movff	?___flmul+3,_windSpeedCalc$2881+3
  1475   002808                     
  1476                           ;main.c: 125:    double linearVel = (dw_dt * 2.0 * 3.14159265358979323846 * 0.015) / 409
      +                          6 ;
  1477   002808  0EDB               	movlw	219
  1478   00280A  6E1E               	movwf	___flmul@a^0,c
  1479   00280C  0E0F               	movlw	15
  1480   00280E  6E1F               	movwf	(___flmul@a+1)^0,c
  1481   002810  0E49               	movlw	73
  1482   002812  6E20               	movwf	(___flmul@a+2)^0,c
  1483   002814  0E40               	movlw	64
  1484   002816  6E21               	movwf	(___flmul@a+3)^0,c
  1485   002818  C08A  F01A         	movff	_windSpeedCalc$2881,___flmul@b
  1486   00281C  C08B  F01B         	movff	_windSpeedCalc$2881+1,___flmul@b+1
  1487   002820  C08C  F01C         	movff	_windSpeedCalc$2881+2,___flmul@b+2
  1488   002824  C08D  F01D         	movff	_windSpeedCalc$2881+3,___flmul@b+3
  1489   002828  ECC3  F007         	call	___flmul	;wreg free
  1490   00282C  C01A  F08E         	movff	?___flmul,_windSpeedCalc$2882
  1491   002830  C01B  F08F         	movff	?___flmul+1,_windSpeedCalc$2882+1
  1492   002834  C01C  F090         	movff	?___flmul+2,_windSpeedCalc$2882+2
  1493   002838  C01D  F091         	movff	?___flmul+3,_windSpeedCalc$2882+3
  1494   00283C                     
  1495                           ;main.c: 125:    double linearVel = (dw_dt * 2.0 * 3.14159265358979323846 * 0.015) / 409
      +                          6 ;
  1496   00283C  0E8F               	movlw	143
  1497   00283E  6E1E               	movwf	___flmul@a^0,c
  1498   002840  0EC2               	movlw	194
  1499   002842  6E1F               	movwf	(___flmul@a+1)^0,c
  1500   002844  0E75               	movlw	117
  1501   002846  6E20               	movwf	(___flmul@a+2)^0,c
  1502   002848  0E3C               	movlw	60
  1503   00284A  6E21               	movwf	(___flmul@a+3)^0,c
  1504   00284C  C08E  F01A         	movff	_windSpeedCalc$2882,___flmul@b
  1505   002850  C08F  F01B         	movff	_windSpeedCalc$2882+1,___flmul@b+1
  1506   002854  C090  F01C         	movff	_windSpeedCalc$2882+2,___flmul@b+2
  1507   002858  C091  F01D         	movff	_windSpeedCalc$2882+3,___flmul@b+3
  1508   00285C  ECC3  F007         	call	___flmul	;wreg free
  1509   002860  C01A  F026         	movff	?___flmul,___fldiv@b
  1510   002864  C01B  F027         	movff	?___flmul+1,___fldiv@b+1
  1511   002868  C01C  F028         	movff	?___flmul+2,___fldiv@b+2
  1512   00286C  C01D  F029         	movff	?___flmul+3,___fldiv@b+3
  1513   002870  0E00               	movlw	0
  1514   002872  6E2A               	movwf	___fldiv@a^0,c
  1515   002874  0E00               	movlw	0
  1516   002876  6E2B               	movwf	(___fldiv@a+1)^0,c
  1517   002878  0E80               	movlw	128
  1518   00287A  6E2C               	movwf	(___fldiv@a+2)^0,c
  1519   00287C  0E45               	movlw	69
  1520   00287E  6E2D               	movwf	(___fldiv@a+3)^0,c
  1521   002880  ECE5  F00B         	call	___fldiv	;wreg free
  1522   002884  C026  F086         	movff	?___fldiv,windSpeedCalc@linearVel
  1523   002888  C027  F087         	movff	?___fldiv+1,windSpeedCalc@linearVel+1
  1524   00288C  C028  F088         	movff	?___fldiv+2,windSpeedCalc@linearVel+2
  1525   002890  C029  F089         	movff	?___fldiv+3,windSpeedCalc@linearVel+3
  1526   002894                     
  1527                           ;main.c: 126:    return linearVel;
  1528   002894  C086  F07E         	movff	windSpeedCalc@linearVel,?_windSpeedCalc
  1529   002898  C087  F07F         	movff	windSpeedCalc@linearVel+1,?_windSpeedCalc+1
  1530   00289C  C088  F080         	movff	windSpeedCalc@linearVel+2,?_windSpeedCalc+2
  1531   0028A0  C089  F081         	movff	windSpeedCalc@linearVel+3,?_windSpeedCalc+3
  1532   0028A4  0012               	return		;funcret
  1533   0028A6                     __end_of_windSpeedCalc:
  1534                           	callstack 0
  1535                           
  1536 ;; *************** function _hallRecord *****************
  1537 ;; Defined at:
  1538 ;;		line 114 in file "main.c"
  1539 ;; Parameters:    Size  Location     Type
  1540 ;;		None
  1541 ;; Auto vars:     Size  Location     Type
  1542 ;;		None
  1543 ;; Return value:  Size  Location     Type
  1544 ;;                  1    wreg      void 
  1545 ;; Registers used:
  1546 ;;		wreg, fsr2l, fsr2h, status,2, status,0, prodl, prodh, cstack
  1547 ;; Tracked objects:
  1548 ;;		On entry : 0/0
  1549 ;;		On exit  : 0/0
  1550 ;;		Unchanged: 0/0
  1551 ;; Data sizes:     COMRAM   BANK0   BANK1   BANK2   BANK3   BANK4   BANK5   BANK6   BANK7   BANK8   BANK9  BANK10  BANK1
      +1  BANK12  BANK13  BANK14
  1552 ;;      Params:         0       0       0       0       0       0       0       0       0       0       0       0       
      +0       0       0       0
  1553 ;;      Locals:         0       0       0       0       0       0       0       0       0       0       0       0       
      +0       0       0       0
  1554 ;;      Temps:          1       0       0       0       0       0       0       0       0       0       0       0       
      +0       0       0       0
  1555 ;;      Totals:         1       0       0       0       0       0       0       0       0       0       0       0       
      +0       0       0       0
  1556 ;;Total ram usage:        1 bytes
  1557 ;; Hardware stack levels used: 1
  1558 ;; Hardware stack levels required when called: 12
  1559 ;; This function calls:
  1560 ;;		_TMR2_ReadTimer
  1561 ;;		_hallRead
  1562 ;; This function is called by:
  1563 ;;		_windSpeedCalc
  1564 ;; This function uses a non-reentrant model
  1565 ;;
  1566                           
  1567                           	psect	text2
  1568   0036AA                     __ptext2:
  1569                           	callstack 0
  1570   0036AA                     _hallRecord:
  1571                           	callstack 17
  1572   0036AA                     
  1573                           ;main.c: 115:     hall_pos[0] = hall_pos[1];
  1574   0036AA  C036  F034         	movff	_hall_pos+2,_hall_pos
  1575   0036AE  C037  F035         	movff	_hall_pos+3,_hall_pos+1
  1576                           
  1577                           ;main.c: 116:     hall_time[0] = hall_time[1];
  1578   0036B2  C032  F030         	movff	_hall_time+2,_hall_time
  1579   0036B6  C033  F031         	movff	_hall_time+3,_hall_time+1
  1580   0036BA                     
  1581                           ;main.c: 118:     hall_pos[1] = hallRead();
  1582   0036BA  EC6A  F01B         	call	_hallRead	;wreg free
  1583   0036BE  C026  F036         	movff	?_hallRead,_hall_pos+2
  1584   0036C2  C027  F037         	movff	?_hallRead+1,_hall_pos+3
  1585   0036C6                     
  1586                           ;main.c: 119:     hall_time[1] = TMR2_ReadTimer();
  1587   0036C6  ECFE  F01C         	call	_TMR2_ReadTimer	;wreg free
  1588   0036CA  6E2C               	movwf	??_hallRecord^0,c
  1589   0036CC  502C               	movf	??_hallRecord^0,w,c
  1590   0036CE  6E32               	movwf	(_hall_time+2)^0,c
  1591   0036D0  6A33               	clrf	(_hall_time+3)^0,c
  1592   0036D2  0012               	return		;funcret
  1593   0036D4                     __end_of_hallRecord:
  1594                           	callstack 0
  1595                           
  1596 ;; *************** function ___xxtofl *****************
  1597 ;; Defined at:
  1598 ;;		line 10 in file "C:\Program Files\Microchip\xc8\v2.40\pic\sources\c99\common\xxtofl.c"
  1599 ;; Parameters:    Size  Location     Type
  1600 ;;  sign            1    wreg     unsigned char 
  1601 ;;  val             4   32[COMRAM] long 
  1602 ;; Auto vars:     Size  Location     Type
  1603 ;;  sign            1   40[COMRAM] unsigned char 
  1604 ;;  arg             4   42[COMRAM] unsigned long 
  1605 ;;  exp             1   41[COMRAM] unsigned char 
  1606 ;; Return value:  Size  Location     Type
  1607 ;;                  4   32[COMRAM] unsigned char 
  1608 ;; Registers used:
  1609 ;;		wreg, status,2, status,0
  1610 ;; Tracked objects:
  1611 ;;		On entry : 0/0
  1612 ;;		On exit  : 0/0
  1613 ;;		Unchanged: 0/0
  1614 ;; Data sizes:     COMRAM   BANK0   BANK1   BANK2   BANK3   BANK4   BANK5   BANK6   BANK7   BANK8   BANK9  BANK10  BANK1
      +1  BANK12  BANK13  BANK14
  1615 ;;      Params:         4       0       0       0       0       0       0       0       0       0       0       0       
      +0       0       0       0
  1616 ;;      Locals:         6       0       0       0       0       0       0       0       0       0       0       0       
      +0       0       0       0
  1617 ;;      Temps:          4       0       0       0       0       0       0       0       0       0       0       0       
      +0       0       0       0
  1618 ;;      Totals:        14       0       0       0       0       0       0       0       0       0       0       0       
      +0       0       0       0
  1619 ;;Total ram usage:       14 bytes
  1620 ;; Hardware stack levels used: 1
  1621 ;; Hardware stack levels required when called: 7
  1622 ;; This function calls:
  1623 ;;		Nothing
  1624 ;; This function is called by:
  1625 ;;		_windSpeedCalc
  1626 ;; This function uses a non-reentrant model
  1627 ;;
  1628                           
  1629                           	psect	text3
  1630   00219C                     __ptext3:
  1631                           	callstack 0
  1632   00219C                     ___xxtofl:
  1633                           	callstack 22
  1634                           
  1635                           ;incstack = 0
  1636                           ;___xxtofl@sign stored from wreg
  1637   00219C  6E29               	movwf	___xxtofl@sign^0,c
  1638   00219E  5029               	movf	___xxtofl@sign^0,w,c
  1639   0021A0  B4D8               	btfsc	status,2,c
  1640   0021A2  EFD5  F010         	goto	u4791
  1641   0021A6  EFD7  F010         	goto	u4790
  1642   0021AA                     u4791:
  1643   0021AA  EFF9  F010         	goto	l1471
  1644   0021AE                     u4790:
  1645   0021AE  BE24               	btfsc	(___xxtofl@val+3)^0,7,c
  1646   0021B0  EFDE  F010         	goto	u4800
  1647   0021B4  EFDC  F010         	goto	u4801
  1648   0021B8                     u4801:
  1649   0021B8  EFF9  F010         	goto	l1471
  1650   0021BC                     u4800:
  1651   0021BC  C021  F025         	movff	___xxtofl@val,??___xxtofl
  1652   0021C0  C022  F026         	movff	___xxtofl@val+1,??___xxtofl+1
  1653   0021C4  C023  F027         	movff	___xxtofl@val+2,??___xxtofl+2
  1654   0021C8  C024  F028         	movff	___xxtofl@val+3,??___xxtofl+3
  1655   0021CC  1E25               	comf	??___xxtofl^0,f,c
  1656   0021CE  1E26               	comf	(??___xxtofl+1)^0,f,c
  1657   0021D0  1E27               	comf	(??___xxtofl+2)^0,f,c
  1658   0021D2  1E28               	comf	(??___xxtofl+3)^0,f,c
  1659   0021D4  2A25               	incf	??___xxtofl^0,f,c
  1660   0021D6  0E00               	movlw	0
  1661   0021D8  2226               	addwfc	(??___xxtofl+1)^0,f,c
  1662   0021DA  2227               	addwfc	(??___xxtofl+2)^0,f,c
  1663   0021DC  2228               	addwfc	(??___xxtofl+3)^0,f,c
  1664   0021DE  C025  F02B         	movff	??___xxtofl,___xxtofl@arg
  1665   0021E2  C026  F02C         	movff	??___xxtofl+1,___xxtofl@arg+1
  1666   0021E6  C027  F02D         	movff	??___xxtofl+2,___xxtofl@arg+2
  1667   0021EA  C028  F02E         	movff	??___xxtofl+3,___xxtofl@arg+3
  1668   0021EE  EF01  F011         	goto	l5954
  1669   0021F2                     l1471:
  1670   0021F2  C021  F02B         	movff	___xxtofl@val,___xxtofl@arg
  1671   0021F6  C022  F02C         	movff	___xxtofl@val+1,___xxtofl@arg+1
  1672   0021FA  C023  F02D         	movff	___xxtofl@val+2,___xxtofl@arg+2
  1673   0021FE  C024  F02E         	movff	___xxtofl@val+3,___xxtofl@arg+3
  1674   002202                     l5954:
  1675   002202  5021               	movf	___xxtofl@val^0,w,c
  1676   002204  1022               	iorwf	(___xxtofl@val+1)^0,w,c
  1677   002206  1023               	iorwf	(___xxtofl@val+2)^0,w,c
  1678   002208  1024               	iorwf	(___xxtofl@val+3)^0,w,c
  1679   00220A  A4D8               	btfss	status,2,c
  1680   00220C  EF0A  F011         	goto	u4811
  1681   002210  EF0C  F011         	goto	u4810
  1682   002214                     u4811:
  1683   002214  EF16  F011         	goto	l5960
  1684   002218                     u4810:
  1685   002218  0E00               	movlw	0
  1686   00221A  6E21               	movwf	?___xxtofl^0,c
  1687   00221C  0E00               	movlw	0
  1688   00221E  6E22               	movwf	(?___xxtofl+1)^0,c
  1689   002220  0E00               	movlw	0
  1690   002222  6E23               	movwf	(?___xxtofl+2)^0,c
  1691   002224  0E00               	movlw	0
  1692   002226  6E24               	movwf	(?___xxtofl+3)^0,c
  1693   002228  EFA7  F011         	goto	l1474
  1694   00222C                     l5960:
  1695   00222C  0E96               	movlw	150
  1696   00222E  6E2A               	movwf	___xxtofl@exp^0,c
  1697   002230  EF20  F011         	goto	l5964
  1698   002234                     l5962:
  1699   002234  2A2A               	incf	___xxtofl@exp^0,f,c
  1700   002236  90D8               	bcf	status,0,c
  1701   002238  322E               	rrcf	(___xxtofl@arg+3)^0,f,c
  1702   00223A  322D               	rrcf	(___xxtofl@arg+2)^0,f,c
  1703   00223C  322C               	rrcf	(___xxtofl@arg+1)^0,f,c
  1704   00223E  322B               	rrcf	___xxtofl@arg^0,f,c
  1705   002240                     l5964:
  1706   002240  0E00               	movlw	0
  1707   002242  142B               	andwf	___xxtofl@arg^0,w,c
  1708   002244  6E25               	movwf	??___xxtofl^0,c
  1709   002246  0E00               	movlw	0
  1710   002248  142C               	andwf	(___xxtofl@arg+1)^0,w,c
  1711   00224A  6E26               	movwf	(??___xxtofl+1)^0,c
  1712   00224C  0E00               	movlw	0
  1713   00224E  142D               	andwf	(___xxtofl@arg+2)^0,w,c
  1714   002250  6E27               	movwf	(??___xxtofl+2)^0,c
  1715   002252  0EFE               	movlw	254
  1716   002254  142E               	andwf	(___xxtofl@arg+3)^0,w,c
  1717   002256  6E28               	movwf	(??___xxtofl+3)^0,c
  1718   002258  5025               	movf	??___xxtofl^0,w,c
  1719   00225A  1026               	iorwf	(??___xxtofl+1)^0,w,c
  1720   00225C  1027               	iorwf	(??___xxtofl+2)^0,w,c
  1721   00225E  1028               	iorwf	(??___xxtofl+3)^0,w,c
  1722   002260  A4D8               	btfss	status,2,c
  1723   002262  EF35  F011         	goto	u4821
  1724   002266  EF37  F011         	goto	u4820
  1725   00226A                     u4821:
  1726   00226A  EF1A  F011         	goto	l5962
  1727   00226E                     u4820:
  1728   00226E  EF45  F011         	goto	l1478
  1729   002272                     l5966:
  1730   002272  2A2A               	incf	___xxtofl@exp^0,f,c
  1731   002274  0E01               	movlw	1
  1732   002276  262B               	addwf	___xxtofl@arg^0,f,c
  1733   002278  0E00               	movlw	0
  1734   00227A  222C               	addwfc	(___xxtofl@arg+1)^0,f,c
  1735   00227C  222D               	addwfc	(___xxtofl@arg+2)^0,f,c
  1736   00227E  222E               	addwfc	(___xxtofl@arg+3)^0,f,c
  1737   002280  90D8               	bcf	status,0,c
  1738   002282  322E               	rrcf	(___xxtofl@arg+3)^0,f,c
  1739   002284  322D               	rrcf	(___xxtofl@arg+2)^0,f,c
  1740   002286  322C               	rrcf	(___xxtofl@arg+1)^0,f,c
  1741   002288  322B               	rrcf	___xxtofl@arg^0,f,c
  1742   00228A                     l1478:
  1743   00228A  0E00               	movlw	0
  1744   00228C  142B               	andwf	___xxtofl@arg^0,w,c
  1745   00228E  6E25               	movwf	??___xxtofl^0,c
  1746   002290  0E00               	movlw	0
  1747   002292  142C               	andwf	(___xxtofl@arg+1)^0,w,c
  1748   002294  6E26               	movwf	(??___xxtofl+1)^0,c
  1749   002296  0E00               	movlw	0
  1750   002298  142D               	andwf	(___xxtofl@arg+2)^0,w,c
  1751   00229A  6E27               	movwf	(??___xxtofl+2)^0,c
  1752   00229C  0EFF               	movlw	255
  1753   00229E  142E               	andwf	(___xxtofl@arg+3)^0,w,c
  1754   0022A0  6E28               	movwf	(??___xxtofl+3)^0,c
  1755   0022A2  5025               	movf	??___xxtofl^0,w,c
  1756   0022A4  1026               	iorwf	(??___xxtofl+1)^0,w,c
  1757   0022A6  1027               	iorwf	(??___xxtofl+2)^0,w,c
  1758   0022A8  1028               	iorwf	(??___xxtofl+3)^0,w,c
  1759   0022AA  A4D8               	btfss	status,2,c
  1760   0022AC  EF5A  F011         	goto	u4831
  1761   0022B0  EF5C  F011         	goto	u4830
  1762   0022B4                     u4831:
  1763   0022B4  EF39  F011         	goto	l5966
  1764   0022B8                     u4830:
  1765   0022B8  EF64  F011         	goto	l5974
  1766   0022BC                     l5972:
  1767   0022BC  062A               	decf	___xxtofl@exp^0,f,c
  1768   0022BE  90D8               	bcf	status,0,c
  1769   0022C0  362B               	rlcf	___xxtofl@arg^0,f,c
  1770   0022C2  362C               	rlcf	(___xxtofl@arg+1)^0,f,c
  1771   0022C4  362D               	rlcf	(___xxtofl@arg+2)^0,f,c
  1772   0022C6  362E               	rlcf	(___xxtofl@arg+3)^0,f,c
  1773   0022C8                     l5974:
  1774   0022C8  BE2D               	btfsc	(___xxtofl@arg+2)^0,7,c
  1775   0022CA  EF69  F011         	goto	u4841
  1776   0022CE  EF6B  F011         	goto	u4840
  1777   0022D2                     u4841:
  1778   0022D2  EF73  F011         	goto	l1485
  1779   0022D6                     u4840:
  1780   0022D6  0E02               	movlw	2
  1781   0022D8  602A               	cpfslt	___xxtofl@exp^0,c
  1782   0022DA  EF71  F011         	goto	u4851
  1783   0022DE  EF73  F011         	goto	u4850
  1784   0022E2                     u4851:
  1785   0022E2  EF5E  F011         	goto	l5972
  1786   0022E6                     u4850:
  1787   0022E6                     l1485:
  1788   0022E6  B02A               	btfsc	___xxtofl@exp^0,0,c
  1789   0022E8  EF78  F011         	goto	u4861
  1790   0022EC  EF7A  F011         	goto	u4860
  1791   0022F0                     u4861:
  1792   0022F0  EF7B  F011         	goto	l5980
  1793   0022F4                     u4860:
  1794   0022F4  9E2D               	bcf	(___xxtofl@arg+2)^0,7,c
  1795   0022F6                     l5980:
  1796   0022F6  90D8               	bcf	status,0,c
  1797   0022F8  322A               	rrcf	___xxtofl@exp^0,f,c
  1798   0022FA  C02A  F025         	movff	___xxtofl@exp,??___xxtofl
  1799   0022FE  6A26               	clrf	(??___xxtofl+1)^0,c
  1800   002300  6A27               	clrf	(??___xxtofl+2)^0,c
  1801   002302  6A28               	clrf	(??___xxtofl+3)^0,c
  1802   002304  C025  F028         	movff	??___xxtofl,??___xxtofl+3
  1803   002308  6A27               	clrf	(??___xxtofl+2)^0,c
  1804   00230A  6A26               	clrf	(??___xxtofl+1)^0,c
  1805   00230C  6A25               	clrf	??___xxtofl^0,c
  1806   00230E  5025               	movf	??___xxtofl^0,w,c
  1807   002310  122B               	iorwf	___xxtofl@arg^0,f,c
  1808   002312  5026               	movf	(??___xxtofl+1)^0,w,c
  1809   002314  122C               	iorwf	(___xxtofl@arg+1)^0,f,c
  1810   002316  5027               	movf	(??___xxtofl+2)^0,w,c
  1811   002318  122D               	iorwf	(___xxtofl@arg+2)^0,f,c
  1812   00231A  5028               	movf	(??___xxtofl+3)^0,w,c
  1813   00231C  122E               	iorwf	(___xxtofl@arg+3)^0,f,c
  1814   00231E  5029               	movf	___xxtofl@sign^0,w,c
  1815   002320  B4D8               	btfsc	status,2,c
  1816   002322  EF95  F011         	goto	u4871
  1817   002326  EF97  F011         	goto	u4870
  1818   00232A                     u4871:
  1819   00232A  EF9F  F011         	goto	l5990
  1820   00232E                     u4870:
  1821   00232E  BE24               	btfsc	(___xxtofl@val+3)^0,7,c
  1822   002330  EF9E  F011         	goto	u4880
  1823   002334  EF9C  F011         	goto	u4881
  1824   002338                     u4881:
  1825   002338  EF9F  F011         	goto	l5990
  1826   00233C                     u4880:
  1827   00233C  8E2E               	bsf	(___xxtofl@arg+3)^0,7,c
  1828   00233E                     l5990:
  1829   00233E  C02B  F021         	movff	___xxtofl@arg,?___xxtofl
  1830   002342  C02C  F022         	movff	___xxtofl@arg+1,?___xxtofl+1
  1831   002346  C02D  F023         	movff	___xxtofl@arg+2,?___xxtofl+2
  1832   00234A  C02E  F024         	movff	___xxtofl@arg+3,?___xxtofl+3
  1833   00234E                     l1474:
  1834   00234E  0012               	return		;funcret
  1835   002350                     __end_of___xxtofl:
  1836                           	callstack 0
  1837                           
  1838 ;; *************** function ___lwdiv *****************
  1839 ;; Defined at:
  1840 ;;		line 7 in file "C:\Program Files\Microchip\xc8\v2.40\pic\sources\c99\common\lwdiv.c"
  1841 ;; Parameters:    Size  Location     Type
  1842 ;;  dividend        2   25[COMRAM] unsigned int 
  1843 ;;  divisor         2   27[COMRAM] unsigned int 
  1844 ;; Auto vars:     Size  Location     Type
  1845 ;;  quotient        2   30[COMRAM] unsigned int 
  1846 ;;  counter         1   29[COMRAM] unsigned char 
  1847 ;; Return value:  Size  Location     Type
  1848 ;;                  2   25[COMRAM] unsigned int 
  1849 ;; Registers used:
  1850 ;;		wreg, status,2, status,0
  1851 ;; Tracked objects:
  1852 ;;		On entry : 0/0
  1853 ;;		On exit  : 0/0
  1854 ;;		Unchanged: 0/0
  1855 ;; Data sizes:     COMRAM   BANK0   BANK1   BANK2   BANK3   BANK4   BANK5   BANK6   BANK7   BANK8   BANK9  BANK10  BANK1
      +1  BANK12  BANK13  BANK14
  1856 ;;      Params:         4       0       0       0       0       0       0       0       0       0       0       0       
      +0       0       0       0
  1857 ;;      Locals:         3       0       0       0       0       0       0       0       0       0       0       0       
      +0       0       0       0
  1858 ;;      Temps:          0       0       0       0       0       0       0       0       0       0       0       0       
      +0       0       0       0
  1859 ;;      Totals:         7       0       0       0       0       0       0       0       0       0       0       0       
      +0       0       0       0
  1860 ;;Total ram usage:        7 bytes
  1861 ;; Hardware stack levels used: 1
  1862 ;; Hardware stack levels required when called: 7
  1863 ;; This function calls:
  1864 ;;		Nothing
  1865 ;; This function is called by:
  1866 ;;		_windSpeedCalc
  1867 ;; This function uses a non-reentrant model
  1868 ;;
  1869                           
  1870                           	psect	text4
  1871   003028                     __ptext4:
  1872                           	callstack 0
  1873   003028                     ___lwdiv:
  1874                           	callstack 22
  1875   003028  0E00               	movlw	0
  1876   00302A  6E20               	movwf	(___lwdiv@quotient+1)^0,c
  1877   00302C  0E00               	movlw	0
  1878   00302E  6E1F               	movwf	___lwdiv@quotient^0,c
  1879   003030  501C               	movf	___lwdiv@divisor^0,w,c
  1880   003032  101D               	iorwf	(___lwdiv@divisor+1)^0,w,c
  1881   003034  B4D8               	btfsc	status,2,c
  1882   003036  EF1F  F018         	goto	u4761
  1883   00303A  EF21  F018         	goto	u4760
  1884   00303E                     u4761:
  1885   00303E  EF49  F018         	goto	l1307
  1886   003042                     u4760:
  1887   003042  0E01               	movlw	1
  1888   003044  6E1E               	movwf	___lwdiv@counter^0,c
  1889   003046  EF29  F018         	goto	l5934
  1890   00304A                     l5932:
  1891   00304A  90D8               	bcf	status,0,c
  1892   00304C  361C               	rlcf	___lwdiv@divisor^0,f,c
  1893   00304E  361D               	rlcf	(___lwdiv@divisor+1)^0,f,c
  1894   003050  2A1E               	incf	___lwdiv@counter^0,f,c
  1895   003052                     l5934:
  1896   003052  AE1D               	btfss	(___lwdiv@divisor+1)^0,7,c
  1897   003054  EF2E  F018         	goto	u4771
  1898   003058  EF30  F018         	goto	u4770
  1899   00305C                     u4771:
  1900   00305C  EF25  F018         	goto	l5932
  1901   003060                     u4770:
  1902   003060                     l5936:
  1903   003060  90D8               	bcf	status,0,c
  1904   003062  361F               	rlcf	___lwdiv@quotient^0,f,c
  1905   003064  3620               	rlcf	(___lwdiv@quotient+1)^0,f,c
  1906   003066  501C               	movf	___lwdiv@divisor^0,w,c
  1907   003068  5C1A               	subwf	___lwdiv@dividend^0,w,c
  1908   00306A  501D               	movf	(___lwdiv@divisor+1)^0,w,c
  1909   00306C  581B               	subwfb	(___lwdiv@dividend+1)^0,w,c
  1910   00306E  A0D8               	btfss	status,0,c
  1911   003070  EF3C  F018         	goto	u4781
  1912   003074  EF3E  F018         	goto	u4780
  1913   003078                     u4781:
  1914   003078  EF43  F018         	goto	l5944
  1915   00307C                     u4780:
  1916   00307C  501C               	movf	___lwdiv@divisor^0,w,c
  1917   00307E  5E1A               	subwf	___lwdiv@dividend^0,f,c
  1918   003080  501D               	movf	(___lwdiv@divisor+1)^0,w,c
  1919   003082  5A1B               	subwfb	(___lwdiv@dividend+1)^0,f,c
  1920   003084  801F               	bsf	___lwdiv@quotient^0,0,c
  1921   003086                     l5944:
  1922   003086  90D8               	bcf	status,0,c
  1923   003088  321D               	rrcf	(___lwdiv@divisor+1)^0,f,c
  1924   00308A  321C               	rrcf	___lwdiv@divisor^0,f,c
  1925   00308C  2E1E               	decfsz	___lwdiv@counter^0,f,c
  1926   00308E  EF30  F018         	goto	l5936
  1927   003092                     l1307:
  1928   003092  C01F  F01A         	movff	___lwdiv@quotient,?___lwdiv
  1929   003096  C020  F01B         	movff	___lwdiv@quotient+1,?___lwdiv+1
  1930   00309A  0012               	return		;funcret
  1931   00309C                     __end_of___lwdiv:
  1932                           	callstack 0
  1933                           
  1934 ;; *************** function ___flmul *****************
  1935 ;; Defined at:
  1936 ;;		line 8 in file "C:\Program Files\Microchip\xc8\v2.40\pic\sources\c99\common\sprcmul.c"
  1937 ;; Parameters:    Size  Location     Type
  1938 ;;  b               4   25[COMRAM] unsigned int 
  1939 ;;  a               4   29[COMRAM] unsigned int 
  1940 ;; Auto vars:     Size  Location     Type
  1941 ;;  prod            4    7[BANK0 ] struct .
  1942 ;;  grs             4    2[BANK0 ] unsigned long 
  1943 ;;  temp            2   11[BANK0 ] struct .
  1944 ;;  bexp            1    6[BANK0 ] unsigned char 
  1945 ;;  aexp            1    1[BANK0 ] unsigned char 
  1946 ;;  sign            1    0[BANK0 ] unsigned char 
  1947 ;; Return value:  Size  Location     Type
  1948 ;;                  4   25[COMRAM] unsigned char 
  1949 ;; Registers used:
  1950 ;;		wreg, status,2, status,0, prodl, prodh
  1951 ;; Tracked objects:
  1952 ;;		On entry : 0/0
  1953 ;;		On exit  : 0/0
  1954 ;;		Unchanged: 0/0
  1955 ;; Data sizes:     COMRAM   BANK0   BANK1   BANK2   BANK3   BANK4   BANK5   BANK6   BANK7   BANK8   BANK9  BANK10  BANK1
      +1  BANK12  BANK13  BANK14
  1956 ;;      Params:         8       0       0       0       0       0       0       0       0       0       0       0       
      +0       0       0       0
  1957 ;;      Locals:         0      13       0       0       0       0       0       0       0       0       0       0       
      +0       0       0       0
  1958 ;;      Temps:          4       0       0       0       0       0       0       0       0       0       0       0       
      +0       0       0       0
  1959 ;;      Totals:        12      13       0       0       0       0       0       0       0       0       0       0       
      +0       0       0       0
  1960 ;;Total ram usage:       25 bytes
  1961 ;; Hardware stack levels used: 1
  1962 ;; Hardware stack levels required when called: 7
  1963 ;; This function calls:
  1964 ;;		Nothing
  1965 ;; This function is called by:
  1966 ;;		_windSpeedCalc
  1967 ;; This function uses a non-reentrant model
  1968 ;;
  1969                           
  1970                           	psect	text5
  1971   000F86                     __ptext5:
  1972                           	callstack 0
  1973   000F86                     ___flmul:
  1974                           	callstack 22
  1975   000F86  501D               	movf	(___flmul@b+3)^0,w,c
  1976   000F88  0B80               	andlw	128
  1977   000F8A  0100               	movlb	0	; () banked
  1978   000F8C  6F60               	movwf	___flmul@sign& (0+255),b
  1979   000F8E  501D               	movf	(___flmul@b+3)^0,w,c
  1980   000F90  241D               	addwf	(___flmul@b+3)^0,w,c
  1981   000F92  6F66               	movwf	___flmul@bexp& (0+255),b
  1982   000F94                     
  1983                           ; BSR set to: 0
  1984   000F94  AE1C               	btfss	(___flmul@b+2)^0,7,c
  1985   000F96  EFCF  F007         	goto	u4571
  1986   000F9A  EFD1  F007         	goto	u4570
  1987   000F9E                     u4571:
  1988   000F9E  EFD2  F007         	goto	l5802
  1989   000FA2                     u4570:
  1990   000FA2                     
  1991                           ; BSR set to: 0
  1992   000FA2  8166               	bsf	___flmul@bexp& (0+255),0,b
  1993   000FA4                     l5802:
  1994                           
  1995                           ; BSR set to: 0
  1996   000FA4  5166               	movf	___flmul@bexp& (0+255),w,b
  1997   000FA6  B4D8               	btfsc	status,2,c
  1998   000FA8  EFD8  F007         	goto	u4581
  1999   000FAC  EFDA  F007         	goto	u4580
  2000   000FB0                     u4581:
  2001   000FB0  EFED  F007         	goto	l5810
  2002   000FB4                     u4580:
  2003   000FB4                     
  2004                           ; BSR set to: 0
  2005   000FB4  2966               	incf	___flmul@bexp& (0+255),w,b
  2006   000FB6  A4D8               	btfss	status,2,c
  2007   000FB8  EFE0  F007         	goto	u4591
  2008   000FBC  EFE2  F007         	goto	u4590
  2009   000FC0                     u4591:
  2010   000FC0  EFEA  F007         	goto	l5808
  2011   000FC4                     u4590:
  2012   000FC4                     
  2013                           ; BSR set to: 0
  2014   000FC4  0E00               	movlw	0
  2015   000FC6  6E1A               	movwf	___flmul@b^0,c
  2016   000FC8  0E00               	movlw	0
  2017   000FCA  6E1B               	movwf	(___flmul@b+1)^0,c
  2018   000FCC  0E00               	movlw	0
  2019   000FCE  6E1C               	movwf	(___flmul@b+2)^0,c
  2020   000FD0  0E00               	movlw	0
  2021   000FD2  6E1D               	movwf	(___flmul@b+3)^0,c
  2022   000FD4                     l5808:
  2023                           
  2024                           ; BSR set to: 0
  2025   000FD4  8E1C               	bsf	(___flmul@b+2)^0,7,c
  2026   000FD6  EFF5  F007         	goto	l5812
  2027   000FDA                     l5810:
  2028                           
  2029                           ; BSR set to: 0
  2030   000FDA  0E00               	movlw	0
  2031   000FDC  6E1A               	movwf	___flmul@b^0,c
  2032   000FDE  0E00               	movlw	0
  2033   000FE0  6E1B               	movwf	(___flmul@b+1)^0,c
  2034   000FE2  0E00               	movlw	0
  2035   000FE4  6E1C               	movwf	(___flmul@b+2)^0,c
  2036   000FE6  0E00               	movlw	0
  2037   000FE8  6E1D               	movwf	(___flmul@b+3)^0,c
  2038   000FEA                     l5812:
  2039                           
  2040                           ; BSR set to: 0
  2041   000FEA  5021               	movf	(___flmul@a+3)^0,w,c
  2042   000FEC  0B80               	andlw	128
  2043   000FEE  1B60               	xorwf	___flmul@sign& (0+255),f,b
  2044   000FF0                     
  2045                           ; BSR set to: 0
  2046   000FF0  5021               	movf	(___flmul@a+3)^0,w,c
  2047   000FF2  2421               	addwf	(___flmul@a+3)^0,w,c
  2048   000FF4  6F61               	movwf	___flmul@aexp& (0+255),b
  2049   000FF6                     
  2050                           ; BSR set to: 0
  2051   000FF6  AE20               	btfss	(___flmul@a+2)^0,7,c
  2052   000FF8  EF00  F008         	goto	u4601
  2053   000FFC  EF02  F008         	goto	u4600
  2054   001000                     u4601:
  2055   001000  EF03  F008         	goto	l5820
  2056   001004                     u4600:
  2057   001004                     
  2058                           ; BSR set to: 0
  2059   001004  8161               	bsf	___flmul@aexp& (0+255),0,b
  2060   001006                     l5820:
  2061                           
  2062                           ; BSR set to: 0
  2063   001006  5161               	movf	___flmul@aexp& (0+255),w,b
  2064   001008  B4D8               	btfsc	status,2,c
  2065   00100A  EF09  F008         	goto	u4611
  2066   00100E  EF0B  F008         	goto	u4610
  2067   001012                     u4611:
  2068   001012  EF1E  F008         	goto	l5828
  2069   001016                     u4610:
  2070   001016                     
  2071                           ; BSR set to: 0
  2072   001016  2961               	incf	___flmul@aexp& (0+255),w,b
  2073   001018  A4D8               	btfss	status,2,c
  2074   00101A  EF11  F008         	goto	u4621
  2075   00101E  EF13  F008         	goto	u4620
  2076   001022                     u4621:
  2077   001022  EF1B  F008         	goto	l5826
  2078   001026                     u4620:
  2079   001026                     
  2080                           ; BSR set to: 0
  2081   001026  0E00               	movlw	0
  2082   001028  6E1E               	movwf	___flmul@a^0,c
  2083   00102A  0E00               	movlw	0
  2084   00102C  6E1F               	movwf	(___flmul@a+1)^0,c
  2085   00102E  0E00               	movlw	0
  2086   001030  6E20               	movwf	(___flmul@a+2)^0,c
  2087   001032  0E00               	movlw	0
  2088   001034  6E21               	movwf	(___flmul@a+3)^0,c
  2089   001036                     l5826:
  2090                           
  2091                           ; BSR set to: 0
  2092   001036  8E20               	bsf	(___flmul@a+2)^0,7,c
  2093   001038  EF26  F008         	goto	l1430
  2094   00103C                     l5828:
  2095                           
  2096                           ; BSR set to: 0
  2097   00103C  0E00               	movlw	0
  2098   00103E  6E1E               	movwf	___flmul@a^0,c
  2099   001040  0E00               	movlw	0
  2100   001042  6E1F               	movwf	(___flmul@a+1)^0,c
  2101   001044  0E00               	movlw	0
  2102   001046  6E20               	movwf	(___flmul@a+2)^0,c
  2103   001048  0E00               	movlw	0
  2104   00104A  6E21               	movwf	(___flmul@a+3)^0,c
  2105   00104C                     l1430:
  2106                           
  2107                           ; BSR set to: 0
  2108   00104C  5161               	movf	___flmul@aexp& (0+255),w,b
  2109   00104E  B4D8               	btfsc	status,2,c
  2110   001050  EF2C  F008         	goto	u4631
  2111   001054  EF2E  F008         	goto	u4630
  2112   001058                     u4631:
  2113   001058  EF36  F008         	goto	l5832
  2114   00105C                     u4630:
  2115   00105C                     
  2116                           ; BSR set to: 0
  2117   00105C  5166               	movf	___flmul@bexp& (0+255),w,b
  2118   00105E  A4D8               	btfss	status,2,c
  2119   001060  EF34  F008         	goto	u4641
  2120   001064  EF36  F008         	goto	u4640
  2121   001068                     u4641:
  2122   001068  EF40  F008         	goto	l5836
  2123   00106C                     u4640:
  2124   00106C                     l5832:
  2125                           
  2126                           ; BSR set to: 0
  2127   00106C  0E00               	movlw	0
  2128   00106E  6E1A               	movwf	?___flmul^0,c
  2129   001070  0E00               	movlw	0
  2130   001072  6E1B               	movwf	(?___flmul+1)^0,c
  2131   001074  0E00               	movlw	0
  2132   001076  6E1C               	movwf	(?___flmul+2)^0,c
  2133   001078  0E00               	movlw	0
  2134   00107A  6E1D               	movwf	(?___flmul+3)^0,c
  2135   00107C  EFD8  F009         	goto	l1434
  2136   001080                     l5836:
  2137                           
  2138                           ; BSR set to: 0
  2139   001080  5020               	movf	(___flmul@a+2)^0,w,c
  2140   001082  021A               	mulwf	___flmul@b^0,c
  2141   001084  CFF3 F06B          	movff	prodl,___flmul@temp
  2142   001088  CFF4 F06C          	movff	prodh,___flmul@temp+1
  2143   00108C                     
  2144                           ; BSR set to: 0
  2145   00108C  516B               	movf	___flmul@temp& (0+255),w,b
  2146   00108E  6F62               	movwf	___flmul@grs& (0+255),b
  2147   001090  6B63               	clrf	(___flmul@grs+1)& (0+255),b
  2148   001092  6B64               	clrf	(___flmul@grs+2)& (0+255),b
  2149   001094  6B65               	clrf	(___flmul@grs+3)& (0+255),b
  2150   001096                     
  2151                           ; BSR set to: 0
  2152   001096  516C               	movf	(___flmul@temp+1)& (0+255),w,b
  2153   001098  6F67               	movwf	___flmul@prod& (0+255),b
  2154   00109A  6B68               	clrf	(___flmul@prod+1)& (0+255),b
  2155   00109C  6B69               	clrf	(___flmul@prod+2)& (0+255),b
  2156   00109E  6B6A               	clrf	(___flmul@prod+3)& (0+255),b
  2157   0010A0  501F               	movf	(___flmul@a+1)^0,w,c
  2158   0010A2  021B               	mulwf	(___flmul@b+1)^0,c
  2159   0010A4  CFF3 F06B          	movff	prodl,___flmul@temp
  2160   0010A8  CFF4 F06C          	movff	prodh,___flmul@temp+1
  2161   0010AC                     
  2162                           ; BSR set to: 0
  2163   0010AC  516B               	movf	___flmul@temp& (0+255),w,b
  2164   0010AE  2762               	addwf	___flmul@grs& (0+255),f,b
  2165   0010B0  0E00               	movlw	0
  2166   0010B2  2363               	addwfc	(___flmul@grs+1)& (0+255),f,b
  2167   0010B4  2364               	addwfc	(___flmul@grs+2)& (0+255),f,b
  2168   0010B6  2365               	addwfc	(___flmul@grs+3)& (0+255),f,b
  2169   0010B8                     
  2170                           ; BSR set to: 0
  2171   0010B8  516C               	movf	(___flmul@temp+1)& (0+255),w,b
  2172   0010BA  2767               	addwf	___flmul@prod& (0+255),f,b
  2173   0010BC  0E00               	movlw	0
  2174   0010BE  2368               	addwfc	(___flmul@prod+1)& (0+255),f,b
  2175   0010C0  2369               	addwfc	(___flmul@prod+2)& (0+255),f,b
  2176   0010C2  236A               	addwfc	(___flmul@prod+3)& (0+255),f,b
  2177   0010C4  501E               	movf	___flmul@a^0,w,c
  2178   0010C6  021C               	mulwf	(___flmul@b+2)^0,c
  2179   0010C8  CFF3 F06B          	movff	prodl,___flmul@temp
  2180   0010CC  CFF4 F06C          	movff	prodh,___flmul@temp+1
  2181   0010D0                     
  2182                           ; BSR set to: 0
  2183   0010D0  516B               	movf	___flmul@temp& (0+255),w,b
  2184   0010D2  2762               	addwf	___flmul@grs& (0+255),f,b
  2185   0010D4  0E00               	movlw	0
  2186   0010D6  2363               	addwfc	(___flmul@grs+1)& (0+255),f,b
  2187   0010D8  2364               	addwfc	(___flmul@grs+2)& (0+255),f,b
  2188   0010DA  2365               	addwfc	(___flmul@grs+3)& (0+255),f,b
  2189   0010DC                     
  2190                           ; BSR set to: 0
  2191   0010DC  516C               	movf	(___flmul@temp+1)& (0+255),w,b
  2192   0010DE  2767               	addwf	___flmul@prod& (0+255),f,b
  2193   0010E0  0E00               	movlw	0
  2194   0010E2  2368               	addwfc	(___flmul@prod+1)& (0+255),f,b
  2195   0010E4  2369               	addwfc	(___flmul@prod+2)& (0+255),f,b
  2196   0010E6  236A               	addwfc	(___flmul@prod+3)& (0+255),f,b
  2197   0010E8                     
  2198                           ; BSR set to: 0
  2199   0010E8  C064  F065         	movff	___flmul@grs+2,___flmul@grs+3
  2200   0010EC  C063  F064         	movff	___flmul@grs+1,___flmul@grs+2
  2201   0010F0  C062  F063         	movff	___flmul@grs,___flmul@grs+1
  2202   0010F4  6B62               	clrf	___flmul@grs& (0+255),b
  2203   0010F6                     
  2204                           ; BSR set to: 0
  2205   0010F6  501E               	movf	___flmul@a^0,w,c
  2206   0010F8  021B               	mulwf	(___flmul@b+1)^0,c
  2207   0010FA  CFF3 F06B          	movff	prodl,___flmul@temp
  2208   0010FE  CFF4 F06C          	movff	prodh,___flmul@temp+1
  2209   001102                     
  2210                           ; BSR set to: 0
  2211   001102  516B               	movf	___flmul@temp& (0+255),w,b
  2212   001104  2762               	addwf	___flmul@grs& (0+255),f,b
  2213   001106  516C               	movf	(___flmul@temp+1)& (0+255),w,b
  2214   001108  2363               	addwfc	(___flmul@grs+1)& (0+255),f,b
  2215   00110A  0E00               	movlw	0
  2216   00110C  2364               	addwfc	(___flmul@grs+2)& (0+255),f,b
  2217   00110E  0E00               	movlw	0
  2218   001110  2365               	addwfc	(___flmul@grs+3)& (0+255),f,b
  2219   001112                     
  2220                           ; BSR set to: 0
  2221   001112  501F               	movf	(___flmul@a+1)^0,w,c
  2222   001114  021A               	mulwf	___flmul@b^0,c
  2223   001116  CFF3 F06B          	movff	prodl,___flmul@temp
  2224   00111A  CFF4 F06C          	movff	prodh,___flmul@temp+1
  2225   00111E                     
  2226                           ; BSR set to: 0
  2227   00111E  516B               	movf	___flmul@temp& (0+255),w,b
  2228   001120  2762               	addwf	___flmul@grs& (0+255),f,b
  2229   001122  516C               	movf	(___flmul@temp+1)& (0+255),w,b
  2230   001124  2363               	addwfc	(___flmul@grs+1)& (0+255),f,b
  2231   001126  0E00               	movlw	0
  2232   001128  2364               	addwfc	(___flmul@grs+2)& (0+255),f,b
  2233   00112A  0E00               	movlw	0
  2234   00112C  2365               	addwfc	(___flmul@grs+3)& (0+255),f,b
  2235   00112E                     
  2236                           ; BSR set to: 0
  2237   00112E  C064  F065         	movff	___flmul@grs+2,___flmul@grs+3
  2238   001132  C063  F064         	movff	___flmul@grs+1,___flmul@grs+2
  2239   001136  C062  F063         	movff	___flmul@grs,___flmul@grs+1
  2240   00113A  6B62               	clrf	___flmul@grs& (0+255),b
  2241   00113C  501E               	movf	___flmul@a^0,w,c
  2242   00113E  021A               	mulwf	___flmul@b^0,c
  2243   001140  CFF3 F06B          	movff	prodl,___flmul@temp
  2244   001144  CFF4 F06C          	movff	prodh,___flmul@temp+1
  2245   001148                     
  2246                           ; BSR set to: 0
  2247   001148  516B               	movf	___flmul@temp& (0+255),w,b
  2248   00114A  2762               	addwf	___flmul@grs& (0+255),f,b
  2249   00114C  516C               	movf	(___flmul@temp+1)& (0+255),w,b
  2250   00114E  2363               	addwfc	(___flmul@grs+1)& (0+255),f,b
  2251   001150  0E00               	movlw	0
  2252   001152  2364               	addwfc	(___flmul@grs+2)& (0+255),f,b
  2253   001154  0E00               	movlw	0
  2254   001156  2365               	addwfc	(___flmul@grs+3)& (0+255),f,b
  2255   001158                     
  2256                           ; BSR set to: 0
  2257   001158  5020               	movf	(___flmul@a+2)^0,w,c
  2258   00115A  021B               	mulwf	(___flmul@b+1)^0,c
  2259   00115C  CFF3 F06B          	movff	prodl,___flmul@temp
  2260   001160  CFF4 F06C          	movff	prodh,___flmul@temp+1
  2261   001164  516B               	movf	___flmul@temp& (0+255),w,b
  2262   001166  2767               	addwf	___flmul@prod& (0+255),f,b
  2263   001168  516C               	movf	(___flmul@temp+1)& (0+255),w,b
  2264   00116A  2368               	addwfc	(___flmul@prod+1)& (0+255),f,b
  2265   00116C  0E00               	movlw	0
  2266   00116E  2369               	addwfc	(___flmul@prod+2)& (0+255),f,b
  2267   001170  0E00               	movlw	0
  2268   001172  236A               	addwfc	(___flmul@prod+3)& (0+255),f,b
  2269   001174                     
  2270                           ; BSR set to: 0
  2271   001174  501F               	movf	(___flmul@a+1)^0,w,c
  2272   001176  021C               	mulwf	(___flmul@b+2)^0,c
  2273   001178  CFF3 F06B          	movff	prodl,___flmul@temp
  2274   00117C  CFF4 F06C          	movff	prodh,___flmul@temp+1
  2275   001180                     
  2276                           ; BSR set to: 0
  2277   001180  516B               	movf	___flmul@temp& (0+255),w,b
  2278   001182  2767               	addwf	___flmul@prod& (0+255),f,b
  2279   001184  516C               	movf	(___flmul@temp+1)& (0+255),w,b
  2280   001186  2368               	addwfc	(___flmul@prod+1)& (0+255),f,b
  2281   001188  0E00               	movlw	0
  2282   00118A  2369               	addwfc	(___flmul@prod+2)& (0+255),f,b
  2283   00118C  0E00               	movlw	0
  2284   00118E  236A               	addwfc	(___flmul@prod+3)& (0+255),f,b
  2285   001190  5020               	movf	(___flmul@a+2)^0,w,c
  2286   001192  021C               	mulwf	(___flmul@b+2)^0,c
  2287   001194  CFF3 F06B          	movff	prodl,___flmul@temp
  2288   001198  CFF4 F06C          	movff	prodh,___flmul@temp+1
  2289   00119C                     
  2290                           ; BSR set to: 0
  2291   00119C  516B               	movf	___flmul@temp& (0+255),w,b
  2292   00119E  6E22               	movwf	??___flmul^0,c
  2293   0011A0  516C               	movf	(___flmul@temp+1)& (0+255),w,b
  2294   0011A2  6E23               	movwf	(??___flmul+1)^0,c
  2295   0011A4  6A24               	clrf	(??___flmul+2)^0,c
  2296   0011A6  6A25               	clrf	(??___flmul+3)^0,c
  2297   0011A8  C024  F025         	movff	??___flmul+2,??___flmul+3
  2298   0011AC  C023  F024         	movff	??___flmul+1,??___flmul+2
  2299   0011B0  C022  F023         	movff	??___flmul,??___flmul+1
  2300   0011B4  6A22               	clrf	??___flmul^0,c
  2301   0011B6  5022               	movf	??___flmul^0,w,c
  2302   0011B8  2767               	addwf	___flmul@prod& (0+255),f,b
  2303   0011BA  5023               	movf	(??___flmul+1)^0,w,c
  2304   0011BC  2368               	addwfc	(___flmul@prod+1)& (0+255),f,b
  2305   0011BE  5024               	movf	(??___flmul+2)^0,w,c
  2306   0011C0  2369               	addwfc	(___flmul@prod+2)& (0+255),f,b
  2307   0011C2  5025               	movf	(??___flmul+3)^0,w,c
  2308   0011C4  236A               	addwfc	(___flmul@prod+3)& (0+255),f,b
  2309   0011C6                     
  2310                           ; BSR set to: 0
  2311   0011C6  C062  F022         	movff	___flmul@grs,??___flmul
  2312   0011CA  C063  F023         	movff	___flmul@grs+1,??___flmul+1
  2313   0011CE  C064  F024         	movff	___flmul@grs+2,??___flmul+2
  2314   0011D2  C065  F025         	movff	___flmul@grs+3,??___flmul+3
  2315   0011D6  0E19               	movlw	25
  2316   0011D8  EFF3  F008         	goto	u4650
  2317   0011DC                     u4655:
  2318   0011DC  90D8               	bcf	status,0,c
  2319   0011DE  3225               	rrcf	(??___flmul+3)^0,f,c
  2320   0011E0  3224               	rrcf	(??___flmul+2)^0,f,c
  2321   0011E2  3223               	rrcf	(??___flmul+1)^0,f,c
  2322   0011E4  3222               	rrcf	??___flmul^0,f,c
  2323   0011E6                     u4650:
  2324   0011E6  2EE8               	decfsz	wreg,f,c
  2325   0011E8  EFEE  F008         	goto	u4655
  2326   0011EC  5022               	movf	??___flmul^0,w,c
  2327   0011EE  2767               	addwf	___flmul@prod& (0+255),f,b
  2328   0011F0  5023               	movf	(??___flmul+1)^0,w,c
  2329   0011F2  2368               	addwfc	(___flmul@prod+1)& (0+255),f,b
  2330   0011F4  5024               	movf	(??___flmul+2)^0,w,c
  2331   0011F6  2369               	addwfc	(___flmul@prod+2)& (0+255),f,b
  2332   0011F8  5025               	movf	(??___flmul+3)^0,w,c
  2333   0011FA  236A               	addwfc	(___flmul@prod+3)& (0+255),f,b
  2334   0011FC                     
  2335                           ; BSR set to: 0
  2336   0011FC  C064  F065         	movff	___flmul@grs+2,___flmul@grs+3
  2337   001200  C063  F064         	movff	___flmul@grs+1,___flmul@grs+2
  2338   001204  C062  F063         	movff	___flmul@grs,___flmul@grs+1
  2339   001208  6B62               	clrf	___flmul@grs& (0+255),b
  2340   00120A                     
  2341                           ; BSR set to: 0
  2342   00120A  5161               	movf	___flmul@aexp& (0+255),w,b
  2343   00120C  C066  F022         	movff	___flmul@bexp,??___flmul
  2344   001210  6A23               	clrf	(??___flmul+1)^0,c
  2345   001212  2622               	addwf	??___flmul^0,f,c
  2346   001214  0E00               	movlw	0
  2347   001216  2223               	addwfc	(??___flmul+1)^0,f,c
  2348   001218  0E82               	movlw	130
  2349   00121A  2422               	addwf	??___flmul^0,w,c
  2350   00121C  6F6B               	movwf	___flmul@temp& (0+255),b
  2351   00121E  0EFF               	movlw	255
  2352   001220  2023               	addwfc	(??___flmul+1)^0,w,c
  2353   001222  6F6C               	movwf	(___flmul@temp+1)& (0+255),b
  2354   001224  EF29  F009         	goto	l5884
  2355   001228                     l5878:
  2356                           
  2357                           ; BSR set to: 0
  2358   001228  90D8               	bcf	status,0,c
  2359   00122A  3767               	rlcf	___flmul@prod& (0+255),f,b
  2360   00122C  3768               	rlcf	(___flmul@prod+1)& (0+255),f,b
  2361   00122E  3769               	rlcf	(___flmul@prod+2)& (0+255),f,b
  2362   001230  376A               	rlcf	(___flmul@prod+3)& (0+255),f,b
  2363   001232                     
  2364                           ; BSR set to: 0
  2365   001232  AF65               	btfss	(___flmul@grs+3)& (0+255),7,b
  2366   001234  EF1E  F009         	goto	u4661
  2367   001238  EF20  F009         	goto	u4660
  2368   00123C                     u4661:
  2369   00123C  EF21  F009         	goto	l1437
  2370   001240                     u4660:
  2371   001240                     
  2372                           ; BSR set to: 0
  2373   001240  8167               	bsf	___flmul@prod& (0+255),0,b
  2374   001242                     l1437:
  2375                           
  2376                           ; BSR set to: 0
  2377   001242  90D8               	bcf	status,0,c
  2378   001244  3762               	rlcf	___flmul@grs& (0+255),f,b
  2379   001246  3763               	rlcf	(___flmul@grs+1)& (0+255),f,b
  2380   001248  3764               	rlcf	(___flmul@grs+2)& (0+255),f,b
  2381   00124A  3765               	rlcf	(___flmul@grs+3)& (0+255),f,b
  2382   00124C  076B               	decf	___flmul@temp& (0+255),f,b
  2383   00124E  A0D8               	btfss	status,0,c
  2384   001250  076C               	decf	(___flmul@temp+1)& (0+255),f,b
  2385   001252                     l5884:
  2386                           
  2387                           ; BSR set to: 0
  2388   001252  AF69               	btfss	(___flmul@prod+2)& (0+255),7,b
  2389   001254  EF2E  F009         	goto	u4671
  2390   001258  EF30  F009         	goto	u4670
  2391   00125C                     u4671:
  2392   00125C  EF14  F009         	goto	l5878
  2393   001260                     u4670:
  2394   001260                     
  2395                           ; BSR set to: 0
  2396   001260  0E00               	movlw	0
  2397   001262  6F61               	movwf	___flmul@aexp& (0+255),b
  2398   001264                     
  2399                           ; BSR set to: 0
  2400   001264  AF65               	btfss	(___flmul@grs+3)& (0+255),7,b
  2401   001266  EF37  F009         	goto	u4681
  2402   00126A  EF39  F009         	goto	u4680
  2403   00126E                     u4681:
  2404   00126E  EF5D  F009         	goto	l1439
  2405   001272                     u4680:
  2406   001272                     
  2407                           ; BSR set to: 0
  2408   001272  0EFF               	movlw	255
  2409   001274  1562               	andwf	___flmul@grs& (0+255),w,b
  2410   001276  6E22               	movwf	??___flmul^0,c
  2411   001278  0EFF               	movlw	255
  2412   00127A  1563               	andwf	(___flmul@grs+1)& (0+255),w,b
  2413   00127C  6E23               	movwf	(??___flmul+1)^0,c
  2414   00127E  0EFF               	movlw	255
  2415   001280  1564               	andwf	(___flmul@grs+2)& (0+255),w,b
  2416   001282  6E24               	movwf	(??___flmul+2)^0,c
  2417   001284  0E7F               	movlw	127
  2418   001286  1565               	andwf	(___flmul@grs+3)& (0+255),w,b
  2419   001288  6E25               	movwf	(??___flmul+3)^0,c
  2420   00128A  5022               	movf	??___flmul^0,w,c
  2421   00128C  1023               	iorwf	(??___flmul+1)^0,w,c
  2422   00128E  1024               	iorwf	(??___flmul+2)^0,w,c
  2423   001290  1025               	iorwf	(??___flmul+3)^0,w,c
  2424   001292  B4D8               	btfsc	status,2,c
  2425   001294  EF4E  F009         	goto	u4691
  2426   001298  EF50  F009         	goto	u4690
  2427   00129C                     u4691:
  2428   00129C  EF54  F009         	goto	l1440
  2429   0012A0                     u4690:
  2430   0012A0                     l5892:
  2431                           
  2432                           ; BSR set to: 0
  2433   0012A0  0E01               	movlw	1
  2434   0012A2  6F61               	movwf	___flmul@aexp& (0+255),b
  2435   0012A4  EF5D  F009         	goto	l1439
  2436   0012A8                     l1440:
  2437                           
  2438                           ; BSR set to: 0
  2439   0012A8  A167               	btfss	___flmul@prod& (0+255),0,b
  2440   0012AA  EF59  F009         	goto	u4701
  2441   0012AE  EF5B  F009         	goto	u4700
  2442   0012B2                     u4701:
  2443   0012B2  EF5D  F009         	goto	l1439
  2444   0012B6                     u4700:
  2445   0012B6  EF50  F009         	goto	l5892
  2446   0012BA                     l1439:
  2447                           
  2448                           ; BSR set to: 0
  2449   0012BA  5161               	movf	___flmul@aexp& (0+255),w,b
  2450   0012BC  B4D8               	btfsc	status,2,c
  2451   0012BE  EF63  F009         	goto	u4711
  2452   0012C2  EF65  F009         	goto	u4710
  2453   0012C6                     u4711:
  2454   0012C6  EF89  F009         	goto	l5904
  2455   0012CA                     u4710:
  2456   0012CA                     
  2457                           ; BSR set to: 0
  2458   0012CA  0E01               	movlw	1
  2459   0012CC  2767               	addwf	___flmul@prod& (0+255),f,b
  2460   0012CE  0E00               	movlw	0
  2461   0012D0  2368               	addwfc	(___flmul@prod+1)& (0+255),f,b
  2462   0012D2  2369               	addwfc	(___flmul@prod+2)& (0+255),f,b
  2463   0012D4  236A               	addwfc	(___flmul@prod+3)& (0+255),f,b
  2464   0012D6                     
  2465                           ; BSR set to: 0
  2466   0012D6  A16A               	btfss	(___flmul@prod+3)& (0+255),0,b
  2467   0012D8  EF70  F009         	goto	u4721
  2468   0012DC  EF72  F009         	goto	u4720
  2469   0012E0                     u4721:
  2470   0012E0  EF89  F009         	goto	l5904
  2471   0012E4                     u4720:
  2472   0012E4                     
  2473                           ; BSR set to: 0
  2474   0012E4  C067  F022         	movff	___flmul@prod,??___flmul
  2475   0012E8  C068  F023         	movff	___flmul@prod+1,??___flmul+1
  2476   0012EC  C069  F024         	movff	___flmul@prod+2,??___flmul+2
  2477   0012F0  C06A  F025         	movff	___flmul@prod+3,??___flmul+3
  2478   0012F4  3425               	rlcf	(??___flmul+3)^0,w,c
  2479   0012F6  3225               	rrcf	(??___flmul+3)^0,f,c
  2480   0012F8  3224               	rrcf	(??___flmul+2)^0,f,c
  2481   0012FA  3223               	rrcf	(??___flmul+1)^0,f,c
  2482   0012FC  3222               	rrcf	??___flmul^0,f,c
  2483   0012FE  C022  F067         	movff	??___flmul,___flmul@prod
  2484   001302  C023  F068         	movff	??___flmul+1,___flmul@prod+1
  2485   001306  C024  F069         	movff	??___flmul+2,___flmul@prod+2
  2486   00130A  C025  F06A         	movff	??___flmul+3,___flmul@prod+3
  2487   00130E                     
  2488                           ; BSR set to: 0
  2489   00130E  4B6B               	infsnz	___flmul@temp& (0+255),f,b
  2490   001310  2B6C               	incf	(___flmul@temp+1)& (0+255),f,b
  2491   001312                     l5904:
  2492                           
  2493                           ; BSR set to: 0
  2494   001312  BF6C               	btfsc	(___flmul@temp+1)& (0+255),7,b
  2495   001314  EF94  F009         	goto	u4731
  2496   001318  516C               	movf	(___flmul@temp+1)& (0+255),w,b
  2497   00131A  E108               	bnz	u4730
  2498   00131C  296B               	incf	___flmul@temp& (0+255),w,b
  2499   00131E  A0D8               	btfss	status,0,c
  2500   001320  EF94  F009         	goto	u4731
  2501   001324  EF96  F009         	goto	u4730
  2502   001328                     u4731:
  2503   001328  EFA0  F009         	goto	l5908
  2504   00132C                     u4730:
  2505   00132C                     
  2506                           ; BSR set to: 0
  2507   00132C  0E00               	movlw	0
  2508   00132E  6F67               	movwf	___flmul@prod& (0+255),b
  2509   001330  0E00               	movlw	0
  2510   001332  6F68               	movwf	(___flmul@prod+1)& (0+255),b
  2511   001334  0E80               	movlw	128
  2512   001336  6F69               	movwf	(___flmul@prod+2)& (0+255),b
  2513   001338  0E7F               	movlw	127
  2514   00133A  6F6A               	movwf	(___flmul@prod+3)& (0+255),b
  2515   00133C  EFCE  F009         	goto	l5920
  2516   001340                     l5908:
  2517                           
  2518                           ; BSR set to: 0
  2519   001340  BF6C               	btfsc	(___flmul@temp+1)& (0+255),7,b
  2520   001342  EFAD  F009         	goto	u4740
  2521   001346  516C               	movf	(___flmul@temp+1)& (0+255),w,b
  2522   001348  E106               	bnz	u4741
  2523   00134A  056B               	decf	___flmul@temp& (0+255),w,b
  2524   00134C  B0D8               	btfsc	status,0,c
  2525   00134E  EFAB  F009         	goto	u4741
  2526   001352  EFAD  F009         	goto	u4740
  2527   001356                     u4741:
  2528   001356  EFB9  F009         	goto	l1447
  2529   00135A                     u4740:
  2530   00135A                     
  2531                           ; BSR set to: 0
  2532   00135A  0E00               	movlw	0
  2533   00135C  6F67               	movwf	___flmul@prod& (0+255),b
  2534   00135E  0E00               	movlw	0
  2535   001360  6F68               	movwf	(___flmul@prod+1)& (0+255),b
  2536   001362  0E00               	movlw	0
  2537   001364  6F69               	movwf	(___flmul@prod+2)& (0+255),b
  2538   001366  0E00               	movlw	0
  2539   001368  6F6A               	movwf	(___flmul@prod+3)& (0+255),b
  2540   00136A  0E00               	movlw	0
  2541   00136C  6F60               	movwf	___flmul@sign& (0+255),b
  2542   00136E  EFCE  F009         	goto	l5920
  2543   001372                     l1447:
  2544                           
  2545                           ; BSR set to: 0
  2546   001372  C06B  F066         	movff	___flmul@temp,___flmul@bexp
  2547   001376                     
  2548                           ; BSR set to: 0
  2549   001376  0EFF               	movlw	255
  2550   001378  1767               	andwf	___flmul@prod& (0+255),f,b
  2551   00137A  0EFF               	movlw	255
  2552   00137C  1768               	andwf	(___flmul@prod+1)& (0+255),f,b
  2553   00137E  0E7F               	movlw	127
  2554   001380  1769               	andwf	(___flmul@prod+2)& (0+255),f,b
  2555   001382  0E00               	movlw	0
  2556   001384  176A               	andwf	(___flmul@prod+3)& (0+255),f,b
  2557   001386                     
  2558                           ; BSR set to: 0
  2559   001386  A166               	btfss	___flmul@bexp& (0+255),0,b
  2560   001388  EFC8  F009         	goto	u4751
  2561   00138C  EFCA  F009         	goto	u4750
  2562   001390                     u4751:
  2563   001390  EFCB  F009         	goto	l5918
  2564   001394                     u4750:
  2565   001394                     
  2566                           ; BSR set to: 0
  2567   001394  8F69               	bsf	(___flmul@prod+2)& (0+255),7,b
  2568   001396                     l5918:
  2569                           
  2570                           ; BSR set to: 0
  2571   001396  90D8               	bcf	status,0,c
  2572   001398  3166               	rrcf	___flmul@bexp& (0+255),w,b
  2573   00139A  6F6A               	movwf	(___flmul@prod+3)& (0+255),b
  2574   00139C                     l5920:
  2575                           
  2576                           ; BSR set to: 0
  2577   00139C  5160               	movf	___flmul@sign& (0+255),w,b
  2578   00139E  136A               	iorwf	(___flmul@prod+3)& (0+255),f,b
  2579   0013A0                     
  2580                           ; BSR set to: 0
  2581   0013A0  C067  F01A         	movff	___flmul@prod,?___flmul
  2582   0013A4  C068  F01B         	movff	___flmul@prod+1,?___flmul+1
  2583   0013A8  C069  F01C         	movff	___flmul@prod+2,?___flmul+2
  2584   0013AC  C06A  F01D         	movff	___flmul@prod+3,?___flmul+3
  2585   0013B0                     l1434:
  2586                           
  2587                           ; BSR set to: 0
  2588   0013B0  0012               	return		;funcret
  2589   0013B2                     __end_of___flmul:
  2590                           	callstack 0
  2591                           
  2592 ;; *************** function ___fldiv *****************
  2593 ;; Defined at:
  2594 ;;		line 11 in file "C:\Program Files\Microchip\xc8\v2.40\pic\sources\c99\common\sprcdiv.c"
  2595 ;; Parameters:    Size  Location     Type
  2596 ;;  b               4   37[COMRAM] unsigned char 
  2597 ;;  a               4   41[COMRAM] unsigned char 
  2598 ;; Auto vars:     Size  Location     Type
  2599 ;;  grs             4   24[BANK0 ] unsigned long 
  2600 ;;  rem             4   17[BANK0 ] unsigned long 
  2601 ;;  new_exp         2   22[BANK0 ] short 
  2602 ;;  aexp            1   29[BANK0 ] unsigned char 
  2603 ;;  bexp            1   28[BANK0 ] unsigned char 
  2604 ;;  sign            1   21[BANK0 ] unsigned char 
  2605 ;; Return value:  Size  Location     Type
  2606 ;;                  4   37[COMRAM] unsigned char 
  2607 ;; Registers used:
  2608 ;;		wreg, status,2, status,0
  2609 ;; Tracked objects:
  2610 ;;		On entry : 0/0
  2611 ;;		On exit  : 0/0
  2612 ;;		Unchanged: 0/0
  2613 ;; Data sizes:     COMRAM   BANK0   BANK1   BANK2   BANK3   BANK4   BANK5   BANK6   BANK7   BANK8   BANK9  BANK10  BANK1
      +1  BANK12  BANK13  BANK14
  2614 ;;      Params:         8       0       0       0       0       0       0       0       0       0       0       0       
      +0       0       0       0
  2615 ;;      Locals:         0      13       0       0       0       0       0       0       0       0       0       0       
      +0       0       0       0
  2616 ;;      Temps:          0       4       0       0       0       0       0       0       0       0       0       0       
      +0       0       0       0
  2617 ;;      Totals:         8      17       0       0       0       0       0       0       0       0       0       0       
      +0       0       0       0
  2618 ;;Total ram usage:       25 bytes
  2619 ;; Hardware stack levels used: 1
  2620 ;; Hardware stack levels required when called: 7
  2621 ;; This function calls:
  2622 ;;		Nothing
  2623 ;; This function is called by:
  2624 ;;		_windSpeedCalc
  2625 ;; This function uses a non-reentrant model
  2626 ;;
  2627                           
  2628                           	psect	text6
  2629   0017CA                     __ptext6:
  2630                           	callstack 0
  2631   0017CA                     ___fldiv:
  2632                           	callstack 22
  2633   0017CA  5029               	movf	(___fldiv@b+3)^0,w,c
  2634   0017CC  0B80               	andlw	128
  2635   0017CE  0100               	movlb	0	; () banked
  2636   0017D0  6F75               	movwf	___fldiv@sign& (0+255),b
  2637   0017D2  5029               	movf	(___fldiv@b+3)^0,w,c
  2638   0017D4  2429               	addwf	(___fldiv@b+3)^0,w,c
  2639   0017D6  6F7C               	movwf	___fldiv@bexp& (0+255),b
  2640   0017D8                     
  2641                           ; BSR set to: 0
  2642   0017D8  AE28               	btfss	(___fldiv@b+2)^0,7,c
  2643   0017DA  EFF1  F00B         	goto	u4341
  2644   0017DE  EFF3  F00B         	goto	u4340
  2645   0017E2                     u4341:
  2646   0017E2  EFF4  F00B         	goto	l5664
  2647   0017E6                     u4340:
  2648   0017E6                     
  2649                           ; BSR set to: 0
  2650   0017E6  817C               	bsf	___fldiv@bexp& (0+255),0,b
  2651   0017E8                     l5664:
  2652                           
  2653                           ; BSR set to: 0
  2654   0017E8  517C               	movf	___fldiv@bexp& (0+255),w,b
  2655   0017EA  B4D8               	btfsc	status,2,c
  2656   0017EC  EFFA  F00B         	goto	u4351
  2657   0017F0  EFFC  F00B         	goto	u4350
  2658   0017F4                     u4351:
  2659   0017F4  EF11  F00C         	goto	l5674
  2660   0017F8                     u4350:
  2661   0017F8                     
  2662                           ; BSR set to: 0
  2663   0017F8  297C               	incf	___fldiv@bexp& (0+255),w,b
  2664   0017FA  A4D8               	btfss	status,2,c
  2665   0017FC  EF02  F00C         	goto	u4361
  2666   001800  EF04  F00C         	goto	u4360
  2667   001804                     u4361:
  2668   001804  EF0C  F00C         	goto	l5670
  2669   001808                     u4360:
  2670   001808                     
  2671                           ; BSR set to: 0
  2672   001808  0E00               	movlw	0
  2673   00180A  6E26               	movwf	___fldiv@b^0,c
  2674   00180C  0E00               	movlw	0
  2675   00180E  6E27               	movwf	(___fldiv@b+1)^0,c
  2676   001810  0E00               	movlw	0
  2677   001812  6E28               	movwf	(___fldiv@b+2)^0,c
  2678   001814  0E00               	movlw	0
  2679   001816  6E29               	movwf	(___fldiv@b+3)^0,c
  2680   001818                     l5670:
  2681                           
  2682                           ; BSR set to: 0
  2683   001818  8E28               	bsf	(___fldiv@b+2)^0,7,c
  2684   00181A                     
  2685                           ; BSR set to: 0
  2686   00181A  0E00               	movlw	0
  2687   00181C  6E29               	movwf	(___fldiv@b+3)^0,c
  2688   00181E  EF19  F00C         	goto	l5676
  2689   001822                     l5674:
  2690                           
  2691                           ; BSR set to: 0
  2692   001822  0E00               	movlw	0
  2693   001824  6E26               	movwf	___fldiv@b^0,c
  2694   001826  0E00               	movlw	0
  2695   001828  6E27               	movwf	(___fldiv@b+1)^0,c
  2696   00182A  0E00               	movlw	0
  2697   00182C  6E28               	movwf	(___fldiv@b+2)^0,c
  2698   00182E  0E00               	movlw	0
  2699   001830  6E29               	movwf	(___fldiv@b+3)^0,c
  2700   001832                     l5676:
  2701                           
  2702                           ; BSR set to: 0
  2703   001832  502D               	movf	(___fldiv@a+3)^0,w,c
  2704   001834  0B80               	andlw	128
  2705   001836  1B75               	xorwf	___fldiv@sign& (0+255),f,b
  2706   001838                     
  2707                           ; BSR set to: 0
  2708   001838  502D               	movf	(___fldiv@a+3)^0,w,c
  2709   00183A  242D               	addwf	(___fldiv@a+3)^0,w,c
  2710   00183C  6F7D               	movwf	___fldiv@aexp& (0+255),b
  2711   00183E                     
  2712                           ; BSR set to: 0
  2713   00183E  AE2C               	btfss	(___fldiv@a+2)^0,7,c
  2714   001840  EF24  F00C         	goto	u4371
  2715   001844  EF26  F00C         	goto	u4370
  2716   001848                     u4371:
  2717   001848  EF27  F00C         	goto	l5684
  2718   00184C                     u4370:
  2719   00184C                     
  2720                           ; BSR set to: 0
  2721   00184C  817D               	bsf	___fldiv@aexp& (0+255),0,b
  2722   00184E                     l5684:
  2723                           
  2724                           ; BSR set to: 0
  2725   00184E  517D               	movf	___fldiv@aexp& (0+255),w,b
  2726   001850  B4D8               	btfsc	status,2,c
  2727   001852  EF2D  F00C         	goto	u4381
  2728   001856  EF2F  F00C         	goto	u4380
  2729   00185A                     u4381:
  2730   00185A  EF44  F00C         	goto	l5694
  2731   00185E                     u4380:
  2732   00185E                     
  2733                           ; BSR set to: 0
  2734   00185E  297D               	incf	___fldiv@aexp& (0+255),w,b
  2735   001860  A4D8               	btfss	status,2,c
  2736   001862  EF35  F00C         	goto	u4391
  2737   001866  EF37  F00C         	goto	u4390
  2738   00186A                     u4391:
  2739   00186A  EF3F  F00C         	goto	l5690
  2740   00186E                     u4390:
  2741   00186E                     
  2742                           ; BSR set to: 0
  2743   00186E  0E00               	movlw	0
  2744   001870  6E2A               	movwf	___fldiv@a^0,c
  2745   001872  0E00               	movlw	0
  2746   001874  6E2B               	movwf	(___fldiv@a+1)^0,c
  2747   001876  0E00               	movlw	0
  2748   001878  6E2C               	movwf	(___fldiv@a+2)^0,c
  2749   00187A  0E00               	movlw	0
  2750   00187C  6E2D               	movwf	(___fldiv@a+3)^0,c
  2751   00187E                     l5690:
  2752                           
  2753                           ; BSR set to: 0
  2754   00187E  8E2C               	bsf	(___fldiv@a+2)^0,7,c
  2755   001880                     
  2756                           ; BSR set to: 0
  2757   001880  0E00               	movlw	0
  2758   001882  6E2D               	movwf	(___fldiv@a+3)^0,c
  2759   001884  EF4C  F00C         	goto	l5696
  2760   001888                     l5694:
  2761                           
  2762                           ; BSR set to: 0
  2763   001888  0E00               	movlw	0
  2764   00188A  6E2A               	movwf	___fldiv@a^0,c
  2765   00188C  0E00               	movlw	0
  2766   00188E  6E2B               	movwf	(___fldiv@a+1)^0,c
  2767   001890  0E00               	movlw	0
  2768   001892  6E2C               	movwf	(___fldiv@a+2)^0,c
  2769   001894  0E00               	movlw	0
  2770   001896  6E2D               	movwf	(___fldiv@a+3)^0,c
  2771   001898                     l5696:
  2772                           
  2773                           ; BSR set to: 0
  2774   001898  502A               	movf	___fldiv@a^0,w,c
  2775   00189A  102B               	iorwf	(___fldiv@a+1)^0,w,c
  2776   00189C  102C               	iorwf	(___fldiv@a+2)^0,w,c
  2777   00189E  102D               	iorwf	(___fldiv@a+3)^0,w,c
  2778   0018A0  A4D8               	btfss	status,2,c
  2779   0018A2  EF55  F00C         	goto	u4401
  2780   0018A6  EF57  F00C         	goto	u4400
  2781   0018AA                     u4401:
  2782   0018AA  EF6F  F00C         	goto	l5708
  2783   0018AE                     u4400:
  2784   0018AE                     
  2785                           ; BSR set to: 0
  2786   0018AE  0E00               	movlw	0
  2787   0018B0  6E26               	movwf	___fldiv@b^0,c
  2788   0018B2  0E00               	movlw	0
  2789   0018B4  6E27               	movwf	(___fldiv@b+1)^0,c
  2790   0018B6  0E00               	movlw	0
  2791   0018B8  6E28               	movwf	(___fldiv@b+2)^0,c
  2792   0018BA  0E00               	movlw	0
  2793   0018BC  6E29               	movwf	(___fldiv@b+3)^0,c
  2794   0018BE                     
  2795                           ; BSR set to: 0
  2796   0018BE  0E80               	movlw	128
  2797   0018C0  1228               	iorwf	(___fldiv@b+2)^0,f,c
  2798   0018C2  0E7F               	movlw	127
  2799   0018C4  1229               	iorwf	(___fldiv@b+3)^0,f,c
  2800   0018C6                     l5702:
  2801                           
  2802                           ; BSR set to: 0
  2803   0018C6  5175               	movf	___fldiv@sign& (0+255),w,b
  2804   0018C8  1229               	iorwf	(___fldiv@b+3)^0,f,c
  2805   0018CA                     
  2806                           ; BSR set to: 0
  2807   0018CA  C026  F026         	movff	___fldiv@b,?___fldiv
  2808   0018CE  C027  F027         	movff	___fldiv@b+1,?___fldiv+1
  2809   0018D2  C028  F028         	movff	___fldiv@b+2,?___fldiv+2
  2810   0018D6  C029  F029         	movff	___fldiv@b+3,?___fldiv+3
  2811   0018DA  EFB2  F00D         	goto	l1398
  2812   0018DE                     l5708:
  2813                           
  2814                           ; BSR set to: 0
  2815   0018DE  517C               	movf	___fldiv@bexp& (0+255),w,b
  2816   0018E0  A4D8               	btfss	status,2,c
  2817   0018E2  EF75  F00C         	goto	u4411
  2818   0018E6  EF77  F00C         	goto	u4410
  2819   0018EA                     u4411:
  2820   0018EA  EF81  F00C         	goto	l5716
  2821   0018EE                     u4410:
  2822   0018EE                     
  2823                           ; BSR set to: 0
  2824   0018EE  0E00               	movlw	0
  2825   0018F0  6E26               	movwf	?___fldiv^0,c
  2826   0018F2  0E00               	movlw	0
  2827   0018F4  6E27               	movwf	(?___fldiv+1)^0,c
  2828   0018F6  0E00               	movlw	0
  2829   0018F8  6E28               	movwf	(?___fldiv+2)^0,c
  2830   0018FA  0E00               	movlw	0
  2831   0018FC  6E29               	movwf	(?___fldiv+3)^0,c
  2832   0018FE  EFB2  F00D         	goto	l1398
  2833   001902                     l5716:
  2834                           
  2835                           ; BSR set to: 0
  2836   001902  517D               	movf	___fldiv@aexp& (0+255),w,b
  2837   001904  C07C  F06D         	movff	___fldiv@bexp,??___fldiv
  2838   001908  6B6E               	clrf	(??___fldiv+1)& (0+255),b
  2839   00190A  5F6D               	subwf	??___fldiv& (0+255),f,b
  2840   00190C  0E00               	movlw	0
  2841   00190E  5B6E               	subwfb	(??___fldiv+1)& (0+255),f,b
  2842   001910  0E7F               	movlw	127
  2843   001912  256D               	addwf	??___fldiv& (0+255),w,b
  2844   001914  6F76               	movwf	___fldiv@new_exp& (0+255),b
  2845   001916  0E00               	movlw	0
  2846   001918  216E               	addwfc	(??___fldiv+1)& (0+255),w,b
  2847   00191A  6F77               	movwf	(___fldiv@new_exp+1)& (0+255),b
  2848   00191C                     
  2849                           ; BSR set to: 0
  2850   00191C  C026  F071         	movff	___fldiv@b,___fldiv@rem
  2851   001920  C027  F072         	movff	___fldiv@b+1,___fldiv@rem+1
  2852   001924  C028  F073         	movff	___fldiv@b+2,___fldiv@rem+2
  2853   001928  C029  F074         	movff	___fldiv@b+3,___fldiv@rem+3
  2854   00192C                     
  2855                           ; BSR set to: 0
  2856   00192C  0E00               	movlw	0
  2857   00192E  6E26               	movwf	___fldiv@b^0,c
  2858   001930  0E00               	movlw	0
  2859   001932  6E27               	movwf	(___fldiv@b+1)^0,c
  2860   001934  0E00               	movlw	0
  2861   001936  6E28               	movwf	(___fldiv@b+2)^0,c
  2862   001938  0E00               	movlw	0
  2863   00193A  6E29               	movwf	(___fldiv@b+3)^0,c
  2864   00193C                     
  2865                           ; BSR set to: 0
  2866   00193C  0E00               	movlw	0
  2867   00193E  6F78               	movwf	___fldiv@grs& (0+255),b
  2868   001940  0E00               	movlw	0
  2869   001942  6F79               	movwf	(___fldiv@grs+1)& (0+255),b
  2870   001944  0E00               	movlw	0
  2871   001946  6F7A               	movwf	(___fldiv@grs+2)& (0+255),b
  2872   001948  0E00               	movlw	0
  2873   00194A  6F7B               	movwf	(___fldiv@grs+3)& (0+255),b
  2874   00194C                     
  2875                           ; BSR set to: 0
  2876   00194C  0E00               	movlw	0
  2877   00194E  6F7D               	movwf	___fldiv@aexp& (0+255),b
  2878   001950  EFE2  F00C         	goto	l1400
  2879   001954                     l5726:
  2880                           
  2881                           ; BSR set to: 0
  2882   001954  517D               	movf	___fldiv@aexp& (0+255),w,b
  2883   001956  B4D8               	btfsc	status,2,c
  2884   001958  EFB0  F00C         	goto	u4421
  2885   00195C  EFB2  F00C         	goto	u4420
  2886   001960                     u4421:
  2887   001960  EFC9  F00C         	goto	l5734
  2888   001964                     u4420:
  2889   001964                     
  2890                           ; BSR set to: 0
  2891   001964  90D8               	bcf	status,0,c
  2892   001966  3771               	rlcf	___fldiv@rem& (0+255),f,b
  2893   001968  3772               	rlcf	(___fldiv@rem+1)& (0+255),f,b
  2894   00196A  3773               	rlcf	(___fldiv@rem+2)& (0+255),f,b
  2895   00196C  3774               	rlcf	(___fldiv@rem+3)& (0+255),f,b
  2896   00196E  90D8               	bcf	status,0,c
  2897   001970  3626               	rlcf	___fldiv@b^0,f,c
  2898   001972  3627               	rlcf	(___fldiv@b+1)^0,f,c
  2899   001974  3628               	rlcf	(___fldiv@b+2)^0,f,c
  2900   001976  3629               	rlcf	(___fldiv@b+3)^0,f,c
  2901   001978                     
  2902                           ; BSR set to: 0
  2903   001978  AF7B               	btfss	(___fldiv@grs+3)& (0+255),7,b
  2904   00197A  EFC1  F00C         	goto	u4431
  2905   00197E  EFC3  F00C         	goto	u4430
  2906   001982                     u4431:
  2907   001982  EFC4  F00C         	goto	l1403
  2908   001986                     u4430:
  2909   001986                     
  2910                           ; BSR set to: 0
  2911   001986  8026               	bsf	___fldiv@b^0,0,c
  2912   001988                     l1403:
  2913                           
  2914                           ; BSR set to: 0
  2915   001988  90D8               	bcf	status,0,c
  2916   00198A  3778               	rlcf	___fldiv@grs& (0+255),f,b
  2917   00198C  3779               	rlcf	(___fldiv@grs+1)& (0+255),f,b
  2918   00198E  377A               	rlcf	(___fldiv@grs+2)& (0+255),f,b
  2919   001990  377B               	rlcf	(___fldiv@grs+3)& (0+255),f,b
  2920   001992                     l5734:
  2921                           
  2922                           ; BSR set to: 0
  2923   001992  502A               	movf	___fldiv@a^0,w,c
  2924   001994  5D71               	subwf	___fldiv@rem& (0+255),w,b
  2925   001996  502B               	movf	(___fldiv@a+1)^0,w,c
  2926   001998  5972               	subwfb	(___fldiv@rem+1)& (0+255),w,b
  2927   00199A  502C               	movf	(___fldiv@a+2)^0,w,c
  2928   00199C  5973               	subwfb	(___fldiv@rem+2)& (0+255),w,b
  2929   00199E  502D               	movf	(___fldiv@a+3)^0,w,c
  2930   0019A0  5974               	subwfb	(___fldiv@rem+3)& (0+255),w,b
  2931   0019A2  A0D8               	btfss	status,0,c
  2932   0019A4  EFD6  F00C         	goto	u4441
  2933   0019A8  EFD8  F00C         	goto	u4440
  2934   0019AC                     u4441:
  2935   0019AC  EFE1  F00C         	goto	l5740
  2936   0019B0                     u4440:
  2937   0019B0                     
  2938                           ; BSR set to: 0
  2939   0019B0  8D7B               	bsf	(___fldiv@grs+3)& (0+255),6,b
  2940   0019B2                     
  2941                           ; BSR set to: 0
  2942   0019B2  502A               	movf	___fldiv@a^0,w,c
  2943   0019B4  5F71               	subwf	___fldiv@rem& (0+255),f,b
  2944   0019B6  502B               	movf	(___fldiv@a+1)^0,w,c
  2945   0019B8  5B72               	subwfb	(___fldiv@rem+1)& (0+255),f,b
  2946   0019BA  502C               	movf	(___fldiv@a+2)^0,w,c
  2947   0019BC  5B73               	subwfb	(___fldiv@rem+2)& (0+255),f,b
  2948   0019BE  502D               	movf	(___fldiv@a+3)^0,w,c
  2949   0019C0  5B74               	subwfb	(___fldiv@rem+3)& (0+255),f,b
  2950   0019C2                     l5740:
  2951                           
  2952                           ; BSR set to: 0
  2953   0019C2  2B7D               	incf	___fldiv@aexp& (0+255),f,b
  2954   0019C4                     l1400:
  2955                           
  2956                           ; BSR set to: 0
  2957   0019C4  0E19               	movlw	25
  2958   0019C6  657D               	cpfsgt	___fldiv@aexp& (0+255),b
  2959   0019C8  EFE8  F00C         	goto	u4451
  2960   0019CC  EFEA  F00C         	goto	u4450
  2961   0019D0                     u4451:
  2962   0019D0  EFAA  F00C         	goto	l5726
  2963   0019D4                     u4450:
  2964   0019D4                     
  2965                           ; BSR set to: 0
  2966   0019D4  5171               	movf	___fldiv@rem& (0+255),w,b
  2967   0019D6  1172               	iorwf	(___fldiv@rem+1)& (0+255),w,b
  2968   0019D8  1173               	iorwf	(___fldiv@rem+2)& (0+255),w,b
  2969   0019DA  1174               	iorwf	(___fldiv@rem+3)& (0+255),w,b
  2970   0019DC  B4D8               	btfsc	status,2,c
  2971   0019DE  EFF3  F00C         	goto	u4461
  2972   0019E2  EFF5  F00C         	goto	u4460
  2973   0019E6                     u4461:
  2974   0019E6  EF0D  F00D         	goto	l5752
  2975   0019EA                     u4460:
  2976   0019EA                     
  2977                           ; BSR set to: 0
  2978   0019EA  8178               	bsf	___fldiv@grs& (0+255),0,b
  2979   0019EC  EF0D  F00D         	goto	l5752
  2980   0019F0                     l5746:
  2981                           
  2982                           ; BSR set to: 0
  2983   0019F0  90D8               	bcf	status,0,c
  2984   0019F2  3626               	rlcf	___fldiv@b^0,f,c
  2985   0019F4  3627               	rlcf	(___fldiv@b+1)^0,f,c
  2986   0019F6  3628               	rlcf	(___fldiv@b+2)^0,f,c
  2987   0019F8  3629               	rlcf	(___fldiv@b+3)^0,f,c
  2988   0019FA                     
  2989                           ; BSR set to: 0
  2990   0019FA  AF7B               	btfss	(___fldiv@grs+3)& (0+255),7,b
  2991   0019FC  EF02  F00D         	goto	u4471
  2992   001A00  EF04  F00D         	goto	u4470
  2993   001A04                     u4471:
  2994   001A04  EF05  F00D         	goto	l1409
  2995   001A08                     u4470:
  2996   001A08                     
  2997                           ; BSR set to: 0
  2998   001A08  8026               	bsf	___fldiv@b^0,0,c
  2999   001A0A                     l1409:
  3000                           
  3001                           ; BSR set to: 0
  3002   001A0A  90D8               	bcf	status,0,c
  3003   001A0C  3778               	rlcf	___fldiv@grs& (0+255),f,b
  3004   001A0E  3779               	rlcf	(___fldiv@grs+1)& (0+255),f,b
  3005   001A10  377A               	rlcf	(___fldiv@grs+2)& (0+255),f,b
  3006   001A12  377B               	rlcf	(___fldiv@grs+3)& (0+255),f,b
  3007   001A14  0776               	decf	___fldiv@new_exp& (0+255),f,b
  3008   001A16  A0D8               	btfss	status,0,c
  3009   001A18  0777               	decf	(___fldiv@new_exp+1)& (0+255),f,b
  3010   001A1A                     l5752:
  3011                           
  3012                           ; BSR set to: 0
  3013   001A1A  AE28               	btfss	(___fldiv@b+2)^0,7,c
  3014   001A1C  EF12  F00D         	goto	u4481
  3015   001A20  EF14  F00D         	goto	u4480
  3016   001A24                     u4481:
  3017   001A24  EFF8  F00C         	goto	l5746
  3018   001A28                     u4480:
  3019   001A28                     
  3020                           ; BSR set to: 0
  3021   001A28  0E00               	movlw	0
  3022   001A2A  6F7D               	movwf	___fldiv@aexp& (0+255),b
  3023   001A2C                     
  3024                           ; BSR set to: 0
  3025   001A2C  AF7B               	btfss	(___fldiv@grs+3)& (0+255),7,b
  3026   001A2E  EF1B  F00D         	goto	u4491
  3027   001A32  EF1D  F00D         	goto	u4490
  3028   001A36                     u4491:
  3029   001A36  EF41  F00D         	goto	l1411
  3030   001A3A                     u4490:
  3031   001A3A                     
  3032                           ; BSR set to: 0
  3033   001A3A  0EFF               	movlw	255
  3034   001A3C  1578               	andwf	___fldiv@grs& (0+255),w,b
  3035   001A3E  6F6D               	movwf	??___fldiv& (0+255),b
  3036   001A40  0EFF               	movlw	255
  3037   001A42  1579               	andwf	(___fldiv@grs+1)& (0+255),w,b
  3038   001A44  6F6E               	movwf	(??___fldiv+1)& (0+255),b
  3039   001A46  0EFF               	movlw	255
  3040   001A48  157A               	andwf	(___fldiv@grs+2)& (0+255),w,b
  3041   001A4A  6F6F               	movwf	(??___fldiv+2)& (0+255),b
  3042   001A4C  0E7F               	movlw	127
  3043   001A4E  157B               	andwf	(___fldiv@grs+3)& (0+255),w,b
  3044   001A50  6F70               	movwf	(??___fldiv+3)& (0+255),b
  3045   001A52  516D               	movf	??___fldiv& (0+255),w,b
  3046   001A54  116E               	iorwf	(??___fldiv+1)& (0+255),w,b
  3047   001A56  116F               	iorwf	(??___fldiv+2)& (0+255),w,b
  3048   001A58  1170               	iorwf	(??___fldiv+3)& (0+255),w,b
  3049   001A5A  B4D8               	btfsc	status,2,c
  3050   001A5C  EF32  F00D         	goto	u4501
  3051   001A60  EF34  F00D         	goto	u4500
  3052   001A64                     u4501:
  3053   001A64  EF38  F00D         	goto	l1412
  3054   001A68                     u4500:
  3055   001A68                     l5760:
  3056                           
  3057                           ; BSR set to: 0
  3058   001A68  0E01               	movlw	1
  3059   001A6A  6F7D               	movwf	___fldiv@aexp& (0+255),b
  3060   001A6C  EF41  F00D         	goto	l1411
  3061   001A70                     l1412:
  3062                           
  3063                           ; BSR set to: 0
  3064   001A70  A026               	btfss	___fldiv@b^0,0,c
  3065   001A72  EF3D  F00D         	goto	u4511
  3066   001A76  EF3F  F00D         	goto	u4510
  3067   001A7A                     u4511:
  3068   001A7A  EF41  F00D         	goto	l1411
  3069   001A7E                     u4510:
  3070   001A7E  EF34  F00D         	goto	l5760
  3071   001A82                     l1411:
  3072                           
  3073                           ; BSR set to: 0
  3074   001A82  517D               	movf	___fldiv@aexp& (0+255),w,b
  3075   001A84  B4D8               	btfsc	status,2,c
  3076   001A86  EF47  F00D         	goto	u4521
  3077   001A8A  EF49  F00D         	goto	u4520
  3078   001A8E                     u4521:
  3079   001A8E  EF6D  F00D         	goto	l5772
  3080   001A92                     u4520:
  3081   001A92                     
  3082                           ; BSR set to: 0
  3083   001A92  0E01               	movlw	1
  3084   001A94  2626               	addwf	___fldiv@b^0,f,c
  3085   001A96  0E00               	movlw	0
  3086   001A98  2227               	addwfc	(___fldiv@b+1)^0,f,c
  3087   001A9A  2228               	addwfc	(___fldiv@b+2)^0,f,c
  3088   001A9C  2229               	addwfc	(___fldiv@b+3)^0,f,c
  3089   001A9E                     
  3090                           ; BSR set to: 0
  3091   001A9E  A029               	btfss	(___fldiv@b+3)^0,0,c
  3092   001AA0  EF54  F00D         	goto	u4531
  3093   001AA4  EF56  F00D         	goto	u4530
  3094   001AA8                     u4531:
  3095   001AA8  EF6D  F00D         	goto	l5772
  3096   001AAC                     u4530:
  3097   001AAC                     
  3098                           ; BSR set to: 0
  3099   001AAC  C026  F06D         	movff	___fldiv@b,??___fldiv
  3100   001AB0  C027  F06E         	movff	___fldiv@b+1,??___fldiv+1
  3101   001AB4  C028  F06F         	movff	___fldiv@b+2,??___fldiv+2
  3102   001AB8  C029  F070         	movff	___fldiv@b+3,??___fldiv+3
  3103   001ABC  3570               	rlcf	(??___fldiv+3)& (0+255),w,b
  3104   001ABE  3370               	rrcf	(??___fldiv+3)& (0+255),f,b
  3105   001AC0  336F               	rrcf	(??___fldiv+2)& (0+255),f,b
  3106   001AC2  336E               	rrcf	(??___fldiv+1)& (0+255),f,b
  3107   001AC4  336D               	rrcf	??___fldiv& (0+255),f,b
  3108   001AC6  C06D  F026         	movff	??___fldiv,___fldiv@b
  3109   001ACA  C06E  F027         	movff	??___fldiv+1,___fldiv@b+1
  3110   001ACE  C06F  F028         	movff	??___fldiv+2,___fldiv@b+2
  3111   001AD2  C070  F029         	movff	??___fldiv+3,___fldiv@b+3
  3112   001AD6                     
  3113                           ; BSR set to: 0
  3114   001AD6  4B76               	infsnz	___fldiv@new_exp& (0+255),f,b
  3115   001AD8  2B77               	incf	(___fldiv@new_exp+1)& (0+255),f,b
  3116   001ADA                     l5772:
  3117                           
  3118                           ; BSR set to: 0
  3119   001ADA  BF77               	btfsc	(___fldiv@new_exp+1)& (0+255),7,b
  3120   001ADC  EF78  F00D         	goto	u4541
  3121   001AE0  5177               	movf	(___fldiv@new_exp+1)& (0+255),w,b
  3122   001AE2  E108               	bnz	u4540
  3123   001AE4  2976               	incf	___fldiv@new_exp& (0+255),w,b
  3124   001AE6  A0D8               	btfss	status,0,c
  3125   001AE8  EF78  F00D         	goto	u4541
  3126   001AEC  EF7A  F00D         	goto	u4540
  3127   001AF0                     u4541:
  3128   001AF0  EF85  F00D         	goto	l5776
  3129   001AF4                     u4540:
  3130   001AF4                     
  3131                           ; BSR set to: 0
  3132   001AF4  0E00               	movlw	0
  3133   001AF6  6F77               	movwf	(___fldiv@new_exp+1)& (0+255),b
  3134   001AF8  6976               	setf	___fldiv@new_exp& (0+255),b
  3135   001AFA  0E00               	movlw	0
  3136   001AFC  6E26               	movwf	___fldiv@b^0,c
  3137   001AFE  0E00               	movlw	0
  3138   001B00  6E27               	movwf	(___fldiv@b+1)^0,c
  3139   001B02  0E00               	movlw	0
  3140   001B04  6E28               	movwf	(___fldiv@b+2)^0,c
  3141   001B06  0E00               	movlw	0
  3142   001B08  6E29               	movwf	(___fldiv@b+3)^0,c
  3143   001B0A                     l5776:
  3144                           
  3145                           ; BSR set to: 0
  3146   001B0A  BF77               	btfsc	(___fldiv@new_exp+1)& (0+255),7,b
  3147   001B0C  EF92  F00D         	goto	u4550
  3148   001B10  5177               	movf	(___fldiv@new_exp+1)& (0+255),w,b
  3149   001B12  E106               	bnz	u4551
  3150   001B14  0576               	decf	___fldiv@new_exp& (0+255),w,b
  3151   001B16  B0D8               	btfsc	status,0,c
  3152   001B18  EF90  F00D         	goto	u4551
  3153   001B1C  EF92  F00D         	goto	u4550
  3154   001B20                     u4551:
  3155   001B20  EFA0  F00D         	goto	l5780
  3156   001B24                     u4550:
  3157   001B24                     
  3158                           ; BSR set to: 0
  3159   001B24  0E00               	movlw	0
  3160   001B26  6F77               	movwf	(___fldiv@new_exp+1)& (0+255),b
  3161   001B28  0E00               	movlw	0
  3162   001B2A  6F76               	movwf	___fldiv@new_exp& (0+255),b
  3163   001B2C  0E00               	movlw	0
  3164   001B2E  6E26               	movwf	___fldiv@b^0,c
  3165   001B30  0E00               	movlw	0
  3166   001B32  6E27               	movwf	(___fldiv@b+1)^0,c
  3167   001B34  0E00               	movlw	0
  3168   001B36  6E28               	movwf	(___fldiv@b+2)^0,c
  3169   001B38  0E00               	movlw	0
  3170   001B3A  6E29               	movwf	(___fldiv@b+3)^0,c
  3171   001B3C  0E00               	movlw	0
  3172   001B3E  6F75               	movwf	___fldiv@sign& (0+255),b
  3173   001B40                     l5780:
  3174                           
  3175                           ; BSR set to: 0
  3176   001B40  C076  F07C         	movff	___fldiv@new_exp,___fldiv@bexp
  3177   001B44                     
  3178                           ; BSR set to: 0
  3179   001B44  A17C               	btfss	___fldiv@bexp& (0+255),0,b
  3180   001B46  EFA7  F00D         	goto	u4561
  3181   001B4A  EFA9  F00D         	goto	u4560
  3182   001B4E                     u4561:
  3183   001B4E  EFAC  F00D         	goto	l5786
  3184   001B52                     u4560:
  3185   001B52                     
  3186                           ; BSR set to: 0
  3187   001B52  8E28               	bsf	(___fldiv@b+2)^0,7,c
  3188   001B54  EFAD  F00D         	goto	l5788
  3189   001B58                     l5786:
  3190                           
  3191                           ; BSR set to: 0
  3192   001B58  9E28               	bcf	(___fldiv@b+2)^0,7,c
  3193   001B5A                     l5788:
  3194                           
  3195                           ; BSR set to: 0
  3196   001B5A  90D8               	bcf	status,0,c
  3197   001B5C  317C               	rrcf	___fldiv@bexp& (0+255),w,b
  3198   001B5E  6E29               	movwf	(___fldiv@b+3)^0,c
  3199   001B60  EF63  F00C         	goto	l5702
  3200   001B64                     l1398:
  3201                           
  3202                           ; BSR set to: 0
  3203   001B64  0012               	return		;funcret
  3204   001B66                     __end_of___fldiv:
  3205                           	callstack 0
  3206                           
  3207 ;; *************** function _tempRead *****************
  3208 ;; Defined at:
  3209 ;;		line 129 in file "main.c"
  3210 ;; Parameters:    Size  Location     Type
  3211 ;;		None
  3212 ;; Auto vars:     Size  Location     Type
  3213 ;;		None
  3214 ;; Return value:  Size  Location     Type
  3215 ;;                  1    wreg      unsigned char 
  3216 ;; Registers used:
  3217 ;;		wreg, fsr2l, fsr2h, status,2, status,0, prodl, prodh, cstack
  3218 ;; Tracked objects:
  3219 ;;		On entry : 0/0
  3220 ;;		On exit  : 0/0
  3221 ;;		Unchanged: 0/0
  3222 ;; Data sizes:     COMRAM   BANK0   BANK1   BANK2   BANK3   BANK4   BANK5   BANK6   BANK7   BANK8   BANK9  BANK10  BANK1
      +1  BANK12  BANK13  BANK14
  3223 ;;      Params:         0       0       0       0       0       0       0       0       0       0       0       0       
      +0       0       0       0
  3224 ;;      Locals:         0       0       0       0       0       0       0       0       0       0       0       0       
      +0       0       0       0
  3225 ;;      Temps:          0       0       0       0       0       0       0       0       0       0       0       0       
      +0       0       0       0
  3226 ;;      Totals:         0       0       0       0       0       0       0       0       0       0       0       0       
      +0       0       0       0
  3227 ;;Total ram usage:        0 bytes
  3228 ;; Hardware stack levels used: 1
  3229 ;; Hardware stack levels required when called: 11
  3230 ;; This function calls:
  3231 ;;		_I2C1_Read1ByteRegister
  3232 ;; This function is called by:
  3233 ;;		_main
  3234 ;; This function uses a non-reentrant model
  3235 ;;
  3236                           
  3237                           	psect	text7
  3238   003944                     __ptext7:
  3239                           	callstack 0
  3240   003944                     _tempRead:
  3241                           	callstack 19
  3242   003944                     
  3243                           ;main.c: 130:     return I2C1_Read1ByteRegister(0x48, 0x00);
  3244   003944  0E00               	movlw	0
  3245   003946  6E23               	movwf	I2C1_Read1ByteRegister@reg^0,c
  3246   003948  0E48               	movlw	72
  3247   00394A  EC4E  F018         	call	_I2C1_Read1ByteRegister
  3248   00394E  0012               	return		;funcret
  3249   003950                     __end_of_tempRead:
  3250                           	callstack 0
  3251                           
  3252 ;; *************** function _system_init *****************
  3253 ;; Defined at:
  3254 ;;		line 133 in file "main.c"
  3255 ;; Parameters:    Size  Location     Type
  3256 ;;		None
  3257 ;; Auto vars:     Size  Location     Type
  3258 ;;		None
  3259 ;; Return value:  Size  Location     Type
  3260 ;;                  1    wreg      void 
  3261 ;; Registers used:
  3262 ;;		wreg, fsr2l, fsr2h, status,2, status,0, prodl, prodh, cstack
  3263 ;; Tracked objects:
  3264 ;;		On entry : 0/0
  3265 ;;		On exit  : 0/0
  3266 ;;		Unchanged: 0/0
  3267 ;; Data sizes:     COMRAM   BANK0   BANK1   BANK2   BANK3   BANK4   BANK5   BANK6   BANK7   BANK8   BANK9  BANK10  BANK1
      +1  BANK12  BANK13  BANK14
  3268 ;;      Params:         0       0       0       0       0       0       0       0       0       0       0       0       
      +0       0       0       0
  3269 ;;      Locals:         0       0       0       0       0       0       0       0       0       0       0       0       
      +0       0       0       0
  3270 ;;      Temps:          1       0       0       0       0       0       0       0       0       0       0       0       
      +0       0       0       0
  3271 ;;      Totals:         1       0       0       0       0       0       0       0       0       0       0       0       
      +0       0       0       0
  3272 ;;Total ram usage:        1 bytes
  3273 ;; Hardware stack levels used: 1
  3274 ;; Hardware stack levels required when called: 12
  3275 ;; This function calls:
  3276 ;;		_TMR2_ReadTimer
  3277 ;;		_TMR2_StartTimer
  3278 ;;		_hallRead
  3279 ;;		_motorController
  3280 ;; This function is called by:
  3281 ;;		_main
  3282 ;; This function uses a non-reentrant model
  3283 ;;
  3284                           
  3285                           	psect	text8
  3286   003572                     __ptext8:
  3287                           	callstack 0
  3288   003572                     _system_init:
  3289                           	callstack 18
  3290   003572                     
  3291                           ;main.c: 134:     TMR2_StartTimer();
  3292   003572  ECFB  F01C         	call	_TMR2_StartTimer	;wreg free
  3293   003576  010F               	movlb	15	; () banked
  3294   003578  8917               	bsf	23,4,b	;volatile
  3295   00357A                     
  3296                           ; BSR set to: 15
  3297                           ;main.c: 136:     hall_pos[1] = hallRead();
  3298   00357A  EC6A  F01B         	call	_hallRead	;wreg free
  3299   00357E  C026  F036         	movff	?_hallRead,_hall_pos+2
  3300   003582  C027  F037         	movff	?_hallRead+1,_hall_pos+3
  3301   003586                     
  3302                           ;main.c: 137:     hall_time[1] = TMR2_ReadTimer();
  3303   003586  ECFE  F01C         	call	_TMR2_ReadTimer	;wreg free
  3304   00358A  6E2C               	movwf	??_system_init^0,c
  3305   00358C  502C               	movf	??_system_init^0,w,c
  3306   00358E  6E32               	movwf	(_hall_time+2)^0,c
  3307   003590  6A33               	clrf	(_hall_time+3)^0,c
  3308   003592                     
  3309                           ;main.c: 139:     motorController(0xD0, 0x3F, 0b11);
  3310   003592  0E3F               	movlw	63
  3311   003594  6E26               	movwf	motorController@speed^0,c
  3312   003596  0E03               	movlw	3
  3313   003598  6E27               	movwf	motorController@dir^0,c
  3314   00359A  0ED0               	movlw	208
  3315   00359C  EC1F  F01C         	call	_motorController
  3316   0035A0  0012               	return		;funcret
  3317   0035A2                     __end_of_system_init:
  3318                           	callstack 0
  3319                           
  3320 ;; *************** function _hallRead *****************
  3321 ;; Defined at:
  3322 ;;		line 110 in file "main.c"
  3323 ;; Parameters:    Size  Location     Type
  3324 ;;		None
  3325 ;; Auto vars:     Size  Location     Type
  3326 ;;		None
  3327 ;; Return value:  Size  Location     Type
  3328 ;;                  2   37[COMRAM] unsigned short 
  3329 ;; Registers used:
  3330 ;;		wreg, fsr2l, fsr2h, status,2, status,0, prodl, prodh, cstack
  3331 ;; Tracked objects:
  3332 ;;		On entry : 0/0
  3333 ;;		On exit  : 0/0
  3334 ;;		Unchanged: 0/0
  3335 ;; Data sizes:     COMRAM   BANK0   BANK1   BANK2   BANK3   BANK4   BANK5   BANK6   BANK7   BANK8   BANK9  BANK10  BANK1
      +1  BANK12  BANK13  BANK14
  3336 ;;      Params:         2       0       0       0       0       0       0       0       0       0       0       0       
      +0       0       0       0
  3337 ;;      Locals:         0       0       0       0       0       0       0       0       0       0       0       0       
      +0       0       0       0
  3338 ;;      Temps:          4       0       0       0       0       0       0       0       0       0       0       0       
      +0       0       0       0
  3339 ;;      Totals:         6       0       0       0       0       0       0       0       0       0       0       0       
      +0       0       0       0
  3340 ;;Total ram usage:        6 bytes
  3341 ;; Hardware stack levels used: 1
  3342 ;; Hardware stack levels required when called: 11
  3343 ;; This function calls:
  3344 ;;		_I2C1_Read1ByteRegister
  3345 ;; This function is called by:
  3346 ;;		_hallRecord
  3347 ;;		_system_init
  3348 ;;		_main
  3349 ;; This function uses a non-reentrant model
  3350 ;;
  3351                           
  3352                           	psect	text9
  3353   0036D4                     __ptext9:
  3354                           	callstack 0
  3355   0036D4                     _hallRead:
  3356                           	callstack 17
  3357   0036D4                     
  3358                           ;main.c: 111:     return (I2C1_Read1ByteRegister(0x36,0x0E) << 8 | I2C1_Read1ByteRegiste
      +                          r(0x36,0x0F));
  3359   0036D4  0E0E               	movlw	14
  3360   0036D6  6E23               	movwf	I2C1_Read1ByteRegister@reg^0,c
  3361   0036D8  0E36               	movlw	54
  3362   0036DA  EC4E  F018         	call	_I2C1_Read1ByteRegister
  3363   0036DE  6E28               	movwf	??_hallRead^0,c
  3364   0036E0  5028               	movf	??_hallRead^0,w,c
  3365   0036E2  6E2A               	movwf	(??_hallRead+2)^0,c
  3366   0036E4  6A29               	clrf	(??_hallRead+1)^0,c
  3367   0036E6  0E0F               	movlw	15
  3368   0036E8  6E23               	movwf	I2C1_Read1ByteRegister@reg^0,c
  3369   0036EA  0E36               	movlw	54
  3370   0036EC  EC4E  F018         	call	_I2C1_Read1ByteRegister
  3371   0036F0  6E2B               	movwf	(??_hallRead+3)^0,c
  3372   0036F2  502B               	movf	(??_hallRead+3)^0,w,c
  3373   0036F4  1029               	iorwf	(??_hallRead+1)^0,w,c
  3374   0036F6  6E26               	movwf	?_hallRead^0,c
  3375   0036F8  502A               	movf	(??_hallRead+2)^0,w,c
  3376   0036FA  6E27               	movwf	(?_hallRead+1)^0,c
  3377   0036FC  0012               	return		;funcret
  3378   0036FE                     __end_of_hallRead:
  3379                           	callstack 0
  3380                           
  3381 ;; *************** function _TMR2_StartTimer *****************
  3382 ;; Defined at:
  3383 ;;		line 106 in file "mcc_generated_files/tmr2.c"
  3384 ;; Parameters:    Size  Location     Type
  3385 ;;		None
  3386 ;; Auto vars:     Size  Location     Type
  3387 ;;		None
  3388 ;; Return value:  Size  Location     Type
  3389 ;;                  1    wreg      void 
  3390 ;; Registers used:
  3391 ;;		cstack
  3392 ;; Tracked objects:
  3393 ;;		On entry : 0/0
  3394 ;;		On exit  : 0/0
  3395 ;;		Unchanged: 0/0
  3396 ;; Data sizes:     COMRAM   BANK0   BANK1   BANK2   BANK3   BANK4   BANK5   BANK6   BANK7   BANK8   BANK9  BANK10  BANK1
      +1  BANK12  BANK13  BANK14
  3397 ;;      Params:         0       0       0       0       0       0       0       0       0       0       0       0       
      +0       0       0       0
  3398 ;;      Locals:         0       0       0       0       0       0       0       0       0       0       0       0       
      +0       0       0       0
  3399 ;;      Temps:          0       0       0       0       0       0       0       0       0       0       0       0       
      +0       0       0       0
  3400 ;;      Totals:         0       0       0       0       0       0       0       0       0       0       0       0       
      +0       0       0       0
  3401 ;;Total ram usage:        0 bytes
  3402 ;; Hardware stack levels used: 1
  3403 ;; Hardware stack levels required when called: 8
  3404 ;; This function calls:
  3405 ;;		_TMR2_Start
  3406 ;; This function is called by:
  3407 ;;		_system_init
  3408 ;; This function uses a non-reentrant model
  3409 ;;
  3410                           
  3411                           	psect	text10
  3412   0039F6                     __ptext10:
  3413                           	callstack 0
  3414   0039F6                     _TMR2_StartTimer:
  3415                           	callstack 21
  3416   0039F6                     
  3417                           ;mcc_generated_files/tmr2.c: 108:     TMR2_Start();
  3418   0039F6  EC19  F01D         	call	_TMR2_Start	;wreg free
  3419   0039FA  0012               	return		;funcret
  3420   0039FC                     __end_of_TMR2_StartTimer:
  3421                           	callstack 0
  3422                           
  3423 ;; *************** function _TMR2_Start *****************
  3424 ;; Defined at:
  3425 ;;		line 100 in file "mcc_generated_files/tmr2.c"
  3426 ;; Parameters:    Size  Location     Type
  3427 ;;		None
  3428 ;; Auto vars:     Size  Location     Type
  3429 ;;		None
  3430 ;; Return value:  Size  Location     Type
  3431 ;;                  1    wreg      void 
  3432 ;; Registers used:
  3433 ;;		None
  3434 ;; Tracked objects:
  3435 ;;		On entry : 0/0
  3436 ;;		On exit  : 0/0
  3437 ;;		Unchanged: 0/0
  3438 ;; Data sizes:     COMRAM   BANK0   BANK1   BANK2   BANK3   BANK4   BANK5   BANK6   BANK7   BANK8   BANK9  BANK10  BANK1
      +1  BANK12  BANK13  BANK14
  3439 ;;      Params:         0       0       0       0       0       0       0       0       0       0       0       0       
      +0       0       0       0
  3440 ;;      Locals:         0       0       0       0       0       0       0       0       0       0       0       0       
      +0       0       0       0
  3441 ;;      Temps:          0       0       0       0       0       0       0       0       0       0       0       0       
      +0       0       0       0
  3442 ;;      Totals:         0       0       0       0       0       0       0       0       0       0       0       0       
      +0       0       0       0
  3443 ;;Total ram usage:        0 bytes
  3444 ;; Hardware stack levels used: 1
  3445 ;; Hardware stack levels required when called: 7
  3446 ;; This function calls:
  3447 ;;		Nothing
  3448 ;; This function is called by:
  3449 ;;		_TMR2_StartTimer
  3450 ;; This function uses a non-reentrant model
  3451 ;;
  3452                           
  3453                           	psect	text11
  3454   003A32                     __ptext11:
  3455                           	callstack 0
  3456   003A32                     _TMR2_Start:
  3457                           	callstack 21
  3458   003A32                     
  3459                           ;mcc_generated_files/tmr2.c: 103:     T2CONbits.TMR2ON = 1;
  3460   003A32  8EBD               	bsf	189,7,c	;volatile
  3461   003A34  0012               	return		;funcret
  3462   003A36                     __end_of_TMR2_Start:
  3463                           	callstack 0
  3464                           
  3465 ;; *************** function _TMR2_ReadTimer *****************
  3466 ;; Defined at:
  3467 ;;		line 131 in file "mcc_generated_files/tmr2.c"
  3468 ;; Parameters:    Size  Location     Type
  3469 ;;		None
  3470 ;; Auto vars:     Size  Location     Type
  3471 ;;		None
  3472 ;; Return value:  Size  Location     Type
  3473 ;;                  1    wreg      unsigned char 
  3474 ;; Registers used:
  3475 ;;		wreg, status,2, cstack
  3476 ;; Tracked objects:
  3477 ;;		On entry : 0/0
  3478 ;;		On exit  : 0/0
  3479 ;;		Unchanged: 0/0
  3480 ;; Data sizes:     COMRAM   BANK0   BANK1   BANK2   BANK3   BANK4   BANK5   BANK6   BANK7   BANK8   BANK9  BANK10  BANK1
      +1  BANK12  BANK13  BANK14
  3481 ;;      Params:         0       0       0       0       0       0       0       0       0       0       0       0       
      +0       0       0       0
  3482 ;;      Locals:         0       0       0       0       0       0       0       0       0       0       0       0       
      +0       0       0       0
  3483 ;;      Temps:          0       0       0       0       0       0       0       0       0       0       0       0       
      +0       0       0       0
  3484 ;;      Totals:         0       0       0       0       0       0       0       0       0       0       0       0       
      +0       0       0       0
  3485 ;;Total ram usage:        0 bytes
  3486 ;; Hardware stack levels used: 1
  3487 ;; Hardware stack levels required when called: 8
  3488 ;; This function calls:
  3489 ;;		_TMR2_Counter8BitGet
  3490 ;; This function is called by:
  3491 ;;		_hallRecord
  3492 ;;		_system_init
  3493 ;; This function uses a non-reentrant model
  3494 ;;
  3495                           
  3496                           	psect	text12
  3497   0039FC                     __ptext12:
  3498                           	callstack 0
  3499   0039FC                     _TMR2_ReadTimer:
  3500                           	callstack 20
  3501   0039FC                     
  3502                           ;mcc_generated_files/tmr2.c: 133:     return TMR2_Counter8BitGet();
  3503   0039FC  ECD3  F01C         	call	_TMR2_Counter8BitGet	;wreg free
  3504   003A00  0012               	return		;funcret
  3505   003A02                     __end_of_TMR2_ReadTimer:
  3506                           	callstack 0
  3507                           
  3508 ;; *************** function _TMR2_Counter8BitGet *****************
  3509 ;; Defined at:
  3510 ;;		line 122 in file "mcc_generated_files/tmr2.c"
  3511 ;; Parameters:    Size  Location     Type
  3512 ;;		None
  3513 ;; Auto vars:     Size  Location     Type
  3514 ;;  readVal         1   25[COMRAM] unsigned char 
  3515 ;; Return value:  Size  Location     Type
  3516 ;;                  1    wreg      unsigned char 
  3517 ;; Registers used:
  3518 ;;		wreg, status,2
  3519 ;; Tracked objects:
  3520 ;;		On entry : 0/0
  3521 ;;		On exit  : 0/0
  3522 ;;		Unchanged: 0/0
  3523 ;; Data sizes:     COMRAM   BANK0   BANK1   BANK2   BANK3   BANK4   BANK5   BANK6   BANK7   BANK8   BANK9  BANK10  BANK1
      +1  BANK12  BANK13  BANK14
  3524 ;;      Params:         0       0       0       0       0       0       0       0       0       0       0       0       
      +0       0       0       0
  3525 ;;      Locals:         1       0       0       0       0       0       0       0       0       0       0       0       
      +0       0       0       0
  3526 ;;      Temps:          0       0       0       0       0       0       0       0       0       0       0       0       
      +0       0       0       0
  3527 ;;      Totals:         1       0       0       0       0       0       0       0       0       0       0       0       
      +0       0       0       0
  3528 ;;Total ram usage:        1 bytes
  3529 ;; Hardware stack levels used: 1
  3530 ;; Hardware stack levels required when called: 7
  3531 ;; This function calls:
  3532 ;;		Nothing
  3533 ;; This function is called by:
  3534 ;;		_TMR2_ReadTimer
  3535 ;; This function uses a non-reentrant model
  3536 ;;
  3537                           
  3538                           	psect	text13
  3539   0039A6                     __ptext13:
  3540                           	callstack 0
  3541   0039A6                     _TMR2_Counter8BitGet:
  3542                           	callstack 20
  3543   0039A6                     
  3544                           ;mcc_generated_files/tmr2.c: 124:     uint8_t readVal;;mcc_generated_files/tmr2.c: 126: 
      +                              readVal = TMR2;
  3545   0039A6  CFBB F01A          	movff	4027,TMR2_Counter8BitGet@readVal	;volatile
  3546   0039AA                     
  3547                           ;mcc_generated_files/tmr2.c: 128:     return readVal;
  3548   0039AA  501A               	movf	TMR2_Counter8BitGet@readVal^0,w,c
  3549   0039AC  0012               	return		;funcret
  3550   0039AE                     __end_of_TMR2_Counter8BitGet:
  3551                           	callstack 0
  3552                           
  3553 ;; *************** function _printf *****************
  3554 ;; Defined at:
  3555 ;;		line 5 in file "C:\Program Files\Microchip\xc8\v2.40\pic\sources\c99\common\printf.c"
  3556 ;; Parameters:    Size  Location     Type
  3557 ;;  fmt             2   73[BANK0 ] PTR const unsigned char 
  3558 ;;		 -> STR_1(99), 
  3559 ;; Auto vars:     Size  Location     Type
  3560 ;;  ap              2   89[BANK0 ] PTR void [1]
  3561 ;;		 -> ?_printf(2), 
  3562 ;;  ret             2    0        int 
  3563 ;; Return value:  Size  Location     Type
  3564 ;;                  2   73[BANK0 ] int 
  3565 ;; Registers used:
  3566 ;;		wreg, fsr1l, fsr1h, fsr2l, fsr2h, status,2, status,0, tblptrl, tblptrh, tblptru, prodl, prodh, cstack
  3567 ;; Tracked objects:
  3568 ;;		On entry : 0/0
  3569 ;;		On exit  : 0/0
  3570 ;;		Unchanged: 0/0
  3571 ;; Data sizes:     COMRAM   BANK0   BANK1   BANK2   BANK3   BANK4   BANK5   BANK6   BANK7   BANK8   BANK9  BANK10  BANK1
      +1  BANK12  BANK13  BANK14
  3572 ;;      Params:         0      16       0       0       0       0       0       0       0       0       0       0       
      +0       0       0       0
  3573 ;;      Locals:         0       2       0       0       0       0       0       0       0       0       0       0       
      +0       0       0       0
  3574 ;;      Temps:          0       0       0       0       0       0       0       0       0       0       0       0       
      +0       0       0       0
  3575 ;;      Totals:         0      18       0       0       0       0       0       0       0       0       0       0       
      +0       0       0       0
  3576 ;;Total ram usage:       18 bytes
  3577 ;; Hardware stack levels used: 1
  3578 ;; Hardware stack levels required when called: 15
  3579 ;; This function calls:
  3580 ;;		_vfprintf
  3581 ;; This function is called by:
  3582 ;;		_main
  3583 ;; This function uses a non-reentrant model
  3584 ;;
  3585                           
  3586                           	psect	text14
  3587   003728                     __ptext14:
  3588                           	callstack 0
  3589   003728                     _printf:
  3590                           	callstack 15
  3591   003728  0EAB               	movlw	low (?_printf+2)
  3592   00372A  0100               	movlb	0	; () banked
  3593   00372C  6FB9               	movwf	printf@ap& (0+255),b
  3594   00372E  0E00               	movlw	high (?_printf+2)
  3595   003730  6FBA               	movwf	(printf@ap+1)& (0+255),b
  3596   003732                     
  3597                           ; BSR set to: 0
  3598   003732  0E00               	movlw	0
  3599   003734  6FA1               	movwf	vfprintf@fp& (0+255),b
  3600   003736  0E00               	movlw	0
  3601   003738  6FA2               	movwf	(vfprintf@fp+1)& (0+255),b
  3602   00373A  C0A9  F0A3         	movff	printf@fmt,vfprintf@fmt
  3603   00373E  C0AA  F0A4         	movff	printf@fmt+1,vfprintf@fmt+1
  3604   003742  0EB9               	movlw	low printf@ap
  3605   003744  6FA5               	movwf	vfprintf@ap& (0+255),b
  3606   003746  0E00               	movlw	high printf@ap
  3607   003748  6FA6               	movwf	(vfprintf@ap+1)& (0+255),b
  3608   00374A  ECCB  F019         	call	_vfprintf	;wreg free
  3609   00374E  0012               	return		;funcret
  3610   003750                     __end_of_printf:
  3611                           	callstack 0
  3612                           
  3613 ;; *************** function _vfprintf *****************
  3614 ;; Defined at:
  3615 ;;		line 1520 in file "C:\Program Files\Microchip\xc8\v2.40\pic\sources\c99\common\doprnt.c"
  3616 ;; Parameters:    Size  Location     Type
  3617 ;;  fp              2   65[BANK0 ] PTR struct _IO_FILE
  3618 ;;		 -> NULL(0), 
  3619 ;;  fmt             2   67[BANK0 ] PTR const unsigned char 
  3620 ;;		 -> STR_1(99), 
  3621 ;;  ap              2   69[BANK0 ] PTR PTR void 
  3622 ;;		 -> printf@ap(2), 
  3623 ;; Auto vars:     Size  Location     Type
  3624 ;;  cfmt            2   71[BANK0 ] PTR unsigned char 
  3625 ;;		 -> STR_1(99), 
  3626 ;; Return value:  Size  Location     Type
  3627 ;;                  2   65[BANK0 ] int 
  3628 ;; Registers used:
  3629 ;;		wreg, fsr1l, fsr1h, fsr2l, fsr2h, status,2, status,0, tblptrl, tblptrh, tblptru, prodl, prodh, cstack
  3630 ;; Tracked objects:
  3631 ;;		On entry : 0/0
  3632 ;;		On exit  : 0/0
  3633 ;;		Unchanged: 0/0
  3634 ;; Data sizes:     COMRAM   BANK0   BANK1   BANK2   BANK3   BANK4   BANK5   BANK6   BANK7   BANK8   BANK9  BANK10  BANK1
      +1  BANK12  BANK13  BANK14
  3635 ;;      Params:         0       6       0       0       0       0       0       0       0       0       0       0       
      +0       0       0       0
  3636 ;;      Locals:         0       2       0       0       0       0       0       0       0       0       0       0       
      +0       0       0       0
  3637 ;;      Temps:          0       0       0       0       0       0       0       0       0       0       0       0       
      +0       0       0       0
  3638 ;;      Totals:         0       8       0       0       0       0       0       0       0       0       0       0       
      +0       0       0       0
  3639 ;;Total ram usage:        8 bytes
  3640 ;; Hardware stack levels used: 1
  3641 ;; Hardware stack levels required when called: 14
  3642 ;; This function calls:
  3643 ;;		_vfpfcnvrt
  3644 ;; This function is called by:
  3645 ;;		_printf
  3646 ;; This function uses a non-reentrant model
  3647 ;;
  3648                           
  3649                           	psect	text15
  3650   003396                     __ptext15:
  3651                           	callstack 0
  3652   003396                     _vfprintf:
  3653                           	callstack 15
  3654   003396                     
  3655                           ;C:\Program Files\Microchip\xc8\v2.40\pic\sources\c99\common\doprnt.c: 1520: int vfprint
      +                          f(FILE *fp, const char *fmt, va_list ap);C:\Program Files\Microchip\xc8\v2.40\pic\source
      +                          s\c99\common\doprnt.c: 1521: {;C:\Program Files\Microchip\xc8\v2.40\pic\sources\c99\comm
      +                          on\doprnt.c: 1523:     char *cfmt;;C:\Program Files\Microchip\xc8\v2.40\pic\sources\c99\
      +                          common\doprnt.c: 1525:     cfmt = (char *)fmt;
  3656   003396  C0A3  F0A7         	movff	vfprintf@fmt,vfprintf@cfmt
  3657   00339A  C0A4  F0A8         	movff	vfprintf@fmt+1,vfprintf@cfmt+1
  3658                           
  3659                           ;C:\Program Files\Microchip\xc8\v2.40\pic\sources\c99\common\doprnt.c: 1529:     while (
      +                          *cfmt) {
  3660   00339E  EFE0  F019         	goto	l5998
  3661   0033A2                     l5996:
  3662                           
  3663                           ;C:\Program Files\Microchip\xc8\v2.40\pic\sources\c99\common\doprnt.c: 1533:    vfpfcnvr
      +                          t(fp, &cfmt, ap);
  3664   0033A2  C0A1  F08D         	movff	vfprintf@fp,vfpfcnvrt@fp
  3665   0033A6  C0A2  F08E         	movff	vfprintf@fp+1,vfpfcnvrt@fp+1
  3666   0033AA  0EA7               	movlw	low vfprintf@cfmt
  3667   0033AC  0100               	movlb	0	; () banked
  3668   0033AE  6F8F               	movwf	vfpfcnvrt@fmt& (0+255),b
  3669   0033B0  0E00               	movlw	high vfprintf@cfmt
  3670   0033B2  6F90               	movwf	(vfpfcnvrt@fmt+1)& (0+255),b
  3671   0033B4  C0A5  F091         	movff	vfprintf@ap,vfpfcnvrt@ap
  3672   0033B8  C0A6  F092         	movff	vfprintf@ap+1,vfpfcnvrt@ap+1
  3673   0033BC  ECD9  F009         	call	_vfpfcnvrt	;wreg free
  3674   0033C0                     l5998:
  3675                           
  3676                           ;C:\Program Files\Microchip\xc8\v2.40\pic\sources\c99\common\doprnt.c: 1529:     while (
      +                          *cfmt) {
  3677   0033C0  C0A7  FFF6         	movff	vfprintf@cfmt,tblptrl
  3678   0033C4  C0A8  FFF7         	movff	vfprintf@cfmt+1,tblptrh
  3679   0033C8                     	if	1	;Program memory is < 0x10000, tblptru is always zero
  3680   0033C8  6AF8               	clrf	tblptru,c
  3681   0033CA                     	endif
  3682   0033CA                     	if	0	;tblptru may be non-zero
  3683   0033CA                     	endif
  3684   0033CA  0008               	tblrd		*
  3685   0033CC  50F5               	movf	tablat,w,c
  3686   0033CE  0900               	iorlw	0
  3687   0033D0  A4D8               	btfss	status,2,c
  3688   0033D2  EFED  F019         	goto	u4891
  3689   0033D6  EFEF  F019         	goto	u4890
  3690   0033DA                     u4891:
  3691   0033DA  EFD1  F019         	goto	l5996
  3692   0033DE                     u4890:
  3693   0033DE                     
  3694                           ;C:\Program Files\Microchip\xc8\v2.40\pic\sources\c99\common\doprnt.c: 1538:  return 0;
  3695   0033DE  0E00               	movlw	0
  3696   0033E0  0100               	movlb	0	; () banked
  3697   0033E2  6FA2               	movwf	(?_vfprintf+1)& (0+255),b
  3698   0033E4  0E00               	movlw	0
  3699   0033E6  6FA1               	movwf	?_vfprintf& (0+255),b
  3700   0033E8                     
  3701                           ; BSR set to: 0
  3702   0033E8  0012               	return		;funcret
  3703   0033EA                     __end_of_vfprintf:
  3704                           	callstack 0
  3705                           
  3706 ;; *************** function _vfpfcnvrt *****************
  3707 ;; Defined at:
  3708 ;;		line 1007 in file "C:\Program Files\Microchip\xc8\v2.40\pic\sources\c99\common\doprnt.c"
  3709 ;; Parameters:    Size  Location     Type
  3710 ;;  fp              2   45[BANK0 ] PTR struct _IO_FILE
  3711 ;;		 -> NULL(0), 
  3712 ;;  fmt             2   47[BANK0 ] PTR PTR unsigned char 
  3713 ;;		 -> vfprintf@cfmt(2), 
  3714 ;;  ap              2   49[BANK0 ] PTR PTR void 
  3715 ;;		 -> printf@ap(2), 
  3716 ;; Auto vars:     Size  Location     Type
  3717 ;;  convarg         8   55[BANK0 ] struct .
  3718 ;;  cp              2   63[BANK0 ] PTR unsigned char 
  3719 ;;		 -> STR_1(99), 
  3720 ;;  i               2    0        int 
  3721 ;;  done            2    0        int 
  3722 ;;  c               1    0        unsigned char 
  3723 ;; Return value:  Size  Location     Type
  3724 ;;                  1    wreg      void 
  3725 ;; Registers used:
  3726 ;;		wreg, fsr1l, fsr1h, fsr2l, fsr2h, status,2, status,0, tblptrl, tblptrh, tblptru, prodl, prodh, cstack
  3727 ;; Tracked objects:
  3728 ;;		On entry : 0/0
  3729 ;;		On exit  : 0/0
  3730 ;;		Unchanged: 0/0
  3731 ;; Data sizes:     COMRAM   BANK0   BANK1   BANK2   BANK3   BANK4   BANK5   BANK6   BANK7   BANK8   BANK9  BANK10  BANK1
      +1  BANK12  BANK13  BANK14
  3732 ;;      Params:         0       6       0       0       0       0       0       0       0       0       0       0       
      +0       0       0       0
  3733 ;;      Locals:         0      10       0       0       0       0       0       0       0       0       0       0       
      +0       0       0       0
  3734 ;;      Temps:          0       4       0       0       0       0       0       0       0       0       0       0       
      +0       0       0       0
  3735 ;;      Totals:         0      20       0       0       0       0       0       0       0       0       0       0       
      +0       0       0       0
  3736 ;;Total ram usage:       20 bytes
  3737 ;; Hardware stack levels used: 1
  3738 ;; Hardware stack levels required when called: 13
  3739 ;; This function calls:
  3740 ;;		_atoi
  3741 ;;		_dtoa
  3742 ;;		_fputc
  3743 ;;		_isdigit
  3744 ;;		_utoa
  3745 ;; This function is called by:
  3746 ;;		_vfprintf
  3747 ;; This function uses a non-reentrant model
  3748 ;;
  3749                           
  3750                           	psect	text16
  3751   0013B2                     __ptext16:
  3752                           	callstack 0
  3753   0013B2                     _vfpfcnvrt:
  3754                           	callstack 15
  3755   0013B2                     
  3756                           ;C:\Program Files\Microchip\xc8\v2.40\pic\sources\c99\common\doprnt.c: 1007: vfpfcnvrt(F
      +                          ILE *fp, char *fmt[], va_list ap);C:\Program Files\Microchip\xc8\v2.40\pic\sources\c99\c
      +                          ommon\doprnt.c: 1008: {;C:\Program Files\Microchip\xc8\v2.40\pic\sources\c99\common\dopr
      +                          nt.c: 1009:     char c, *cp;;C:\Program Files\Microchip\xc8\v2.40\pic\sources\c99\common
      +                          \doprnt.c: 1010:     int done, i;;C:\Program Files\Microchip\xc8\v2.40\pic\sources\c99\c
      +                          ommon\doprnt.c: 1016:  } convarg;;C:\Program Files\Microchip\xc8\v2.40\pic\sources\c99\c
      +                          ommon\doprnt.c: 1019:     if ((*fmt)[0] == '%') {
  3757   0013B2  C08F  FFD9         	movff	vfpfcnvrt@fmt,fsr2l
  3758   0013B6  C090  FFDA         	movff	vfpfcnvrt@fmt+1,fsr2h
  3759   0013BA  CFDE FFF6          	movff	postinc2,tblptrl
  3760   0013BE  CFDD FFF7          	movff	postdec2,tblptrh
  3761   0013C2                     	if	1	;Program memory is < 0x10000, tblptru is always zero
  3762   0013C2  6AF8               	clrf	tblptru,c
  3763   0013C4                     	endif
  3764   0013C4                     	if	0	;tblptru may be non-zero
  3765   0013C4                     	endif
  3766   0013C4  0008               	tblrd		*
  3767   0013C6  50F5               	movf	tablat,w,c
  3768   0013C8  0A25               	xorlw	37
  3769   0013CA  A4D8               	btfss	status,2,c
  3770   0013CC  EFEA  F009         	goto	u4241
  3771   0013D0  EFEC  F009         	goto	u4240
  3772   0013D4                     u4241:
  3773   0013D4  EFCF  F00B         	goto	l5596
  3774   0013D8                     u4240:
  3775   0013D8                     
  3776                           ;C:\Program Files\Microchip\xc8\v2.40\pic\sources\c99\common\doprnt.c: 1020:         ++*
      +                          fmt;
  3777   0013D8  C08F  FFD9         	movff	vfpfcnvrt@fmt,fsr2l
  3778   0013DC  C090  FFDA         	movff	vfpfcnvrt@fmt+1,fsr2h
  3779   0013E0  2ADE               	incf	postinc2,f,c
  3780   0013E2  0E00               	movlw	0
  3781   0013E4  22DD               	addwfc	postdec2,f,c
  3782   0013E6                     
  3783                           ;C:\Program Files\Microchip\xc8\v2.40\pic\sources\c99\common\doprnt.c: 1022:         fla
      +                          gs = width = 0;
  3784   0013E6  0E00               	movlw	0
  3785   0013E8  6E39               	movwf	(_width+1)^0,c
  3786   0013EA  0E00               	movlw	0
  3787   0013EC  6E38               	movwf	_width^0,c
  3788   0013EE  C038  F03E         	movff	_width,_flags
  3789   0013F2                     
  3790                           ;C:\Program Files\Microchip\xc8\v2.40\pic\sources\c99\common\doprnt.c: 1023:         pre
      +                          c = -1;
  3791   0013F2  683A               	setf	_prec^0,c
  3792   0013F4  683B               	setf	(_prec+1)^0,c
  3793   0013F6                     
  3794                           ;C:\Program Files\Microchip\xc8\v2.40\pic\sources\c99\common\doprnt.c: 1074:         if 
      +                          ((*fmt)[0] == '*') {
  3795   0013F6  C08F  FFD9         	movff	vfpfcnvrt@fmt,fsr2l
  3796   0013FA  C090  FFDA         	movff	vfpfcnvrt@fmt+1,fsr2h
  3797   0013FE  CFDE FFF6          	movff	postinc2,tblptrl
  3798   001402  CFDD FFF7          	movff	postdec2,tblptrh
  3799   001406                     	if	1	;Program memory is < 0x10000, tblptru is always zero
  3800   001406  6AF8               	clrf	tblptru,c
  3801   001408                     	endif
  3802   001408                     	if	0	;tblptru may be non-zero
  3803   001408                     	endif
  3804   001408  0008               	tblrd		*
  3805   00140A  50F5               	movf	tablat,w,c
  3806   00140C  0A2A               	xorlw	42
  3807   00140E  A4D8               	btfss	status,2,c
  3808   001410  EF0C  F00A         	goto	u4251
  3809   001414  EF0E  F00A         	goto	u4250
  3810   001418                     u4251:
  3811   001418  EF37  F00A         	goto	l5542
  3812   00141C                     u4250:
  3813   00141C                     
  3814                           ;C:\Program Files\Microchip\xc8\v2.40\pic\sources\c99\common\doprnt.c: 1075:            
      +                           ++*fmt;
  3815   00141C  C08F  FFD9         	movff	vfpfcnvrt@fmt,fsr2l
  3816   001420  C090  FFDA         	movff	vfpfcnvrt@fmt+1,fsr2h
  3817   001424  2ADE               	incf	postinc2,f,c
  3818   001426  0E00               	movlw	0
  3819   001428  22DD               	addwfc	postdec2,f,c
  3820                           
  3821                           ;C:\Program Files\Microchip\xc8\v2.40\pic\sources\c99\common\doprnt.c: 1076:            
      +                           width = (*(int *)__va_arg(*(int **)ap, (int)0));
  3822   00142A  C091  FFD9         	movff	vfpfcnvrt@ap,fsr2l
  3823   00142E  C092  FFDA         	movff	vfpfcnvrt@ap+1,fsr2h
  3824   001432  CFDF F093          	movff	indf2,??_vfpfcnvrt
  3825   001436  0E02               	movlw	2
  3826   001438  26DE               	addwf	postinc2,f,c
  3827   00143A  CFDF F094          	movff	indf2,??_vfpfcnvrt+1
  3828   00143E  0E00               	movlw	0
  3829   001440  22DD               	addwfc	postdec2,f,c
  3830   001442  C093  FFD9         	movff	??_vfpfcnvrt,fsr2l
  3831   001446  C094  FFDA         	movff	??_vfpfcnvrt+1,fsr2h
  3832   00144A  CFDE F038          	movff	postinc2,_width
  3833   00144E  CFDD F039          	movff	postdec2,_width+1
  3834   001452                     
  3835                           ;C:\Program Files\Microchip\xc8\v2.40\pic\sources\c99\common\doprnt.c: 1077:            
      +                           if (width < 0) {
  3836   001452  BE39               	btfsc	(_width+1)^0,7,c
  3837   001454  EF30  F00A         	goto	u4260
  3838   001458  EF2E  F00A         	goto	u4261
  3839   00145C                     u4261:
  3840   00145C  EF6C  F00A         	goto	l5550
  3841   001460                     u4260:
  3842   001460                     
  3843                           ;C:\Program Files\Microchip\xc8\v2.40\pic\sources\c99\common\doprnt.c: 1078:            
      +                               flags |= (1 << 0);
  3844   001460  803E               	bsf	_flags^0,0,c
  3845                           
  3846                           ;C:\Program Files\Microchip\xc8\v2.40\pic\sources\c99\common\doprnt.c: 1079:            
      +                               width = -width;
  3847   001462  6C38               	negf	_width^0,c
  3848   001464  1E39               	comf	(_width+1)^0,f,c
  3849   001466  B0D8               	btfsc	status,0,c
  3850   001468  2A39               	incf	(_width+1)^0,f,c
  3851   00146A  EF6C  F00A         	goto	l5550
  3852   00146E                     l5542:
  3853                           
  3854                           ;C:\Program Files\Microchip\xc8\v2.40\pic\sources\c99\common\doprnt.c: 1082:            
      +                           width = atoi(*fmt);
  3855   00146E  C08F  FFD9         	movff	vfpfcnvrt@fmt,fsr2l
  3856   001472  C090  FFDA         	movff	vfpfcnvrt@fmt+1,fsr2h
  3857   001476  CFDE F020          	movff	postinc2,atoi@s
  3858   00147A  CFDD F021          	movff	postdec2,atoi@s+1
  3859   00147E  EC1F  F013         	call	_atoi	;wreg free
  3860   001482  C020  F038         	movff	?_atoi,_width
  3861   001486  C021  F039         	movff	?_atoi+1,_width+1
  3862                           
  3863                           ;C:\Program Files\Microchip\xc8\v2.40\pic\sources\c99\common\doprnt.c: 1083:            
      +                           while ((0 && isdigit((*fmt)[0]), ((unsigned)((*fmt)[0])-'0') < 10)) {
  3864   00148A  EF4E  F00A         	goto	l5548
  3865   00148E                     l5544:
  3866                           
  3867                           ; BSR set to: 0
  3868                           ;C:\Program Files\Microchip\xc8\v2.40\pic\sources\c99\common\doprnt.c: 1084:            
      +                               ++*fmt;
  3869   00148E  C08F  FFD9         	movff	vfpfcnvrt@fmt,fsr2l
  3870   001492  C090  FFDA         	movff	vfpfcnvrt@fmt+1,fsr2h
  3871   001496  2ADE               	incf	postinc2,f,c
  3872   001498  0E00               	movlw	0
  3873   00149A  22DD               	addwfc	postdec2,f,c
  3874   00149C                     l5548:
  3875   00149C  C08F  FFD9         	movff	vfpfcnvrt@fmt,fsr2l
  3876   0014A0  C090  FFDA         	movff	vfpfcnvrt@fmt+1,fsr2h
  3877   0014A4  CFDE FFF6          	movff	postinc2,tblptrl
  3878   0014A8  CFDD FFF7          	movff	postdec2,tblptrh
  3879   0014AC                     	if	1	;Program memory is < 0x10000, tblptru is always zero
  3880   0014AC  6AF8               	clrf	tblptru,c
  3881   0014AE                     	endif
  3882   0014AE                     	if	0	;tblptru may be non-zero
  3883   0014AE                     	endif
  3884   0014AE  0008               	tblrd		*
  3885   0014B0  CFF5 F093          	movff	tablat,??_vfpfcnvrt
  3886   0014B4  0ED0               	movlw	208
  3887   0014B6  0100               	movlb	0	; () banked
  3888   0014B8  2593               	addwf	??_vfpfcnvrt& (0+255),w,b
  3889   0014BA  6F94               	movwf	(??_vfpfcnvrt+1)& (0+255),b
  3890   0014BC  6B95               	clrf	(??_vfpfcnvrt+2)& (0+255),b
  3891   0014BE  0EFF               	movlw	255
  3892   0014C0  2395               	addwfc	(??_vfpfcnvrt+2)& (0+255),f,b
  3893   0014C2  5195               	movf	(??_vfpfcnvrt+2)& (0+255),w,b
  3894   0014C4  E109               	bnz	u4270
  3895   0014C6  0E0A               	movlw	10
  3896   0014C8  5D94               	subwf	(??_vfpfcnvrt+1)& (0+255),w,b
  3897   0014CA  A0D8               	btfss	status,0,c
  3898   0014CC  EF6A  F00A         	goto	u4271
  3899   0014D0  EF6C  F00A         	goto	u4270
  3900   0014D4                     u4271:
  3901   0014D4  EF47  F00A         	goto	l5544
  3902   0014D8                     u4270:
  3903   0014D8                     l5550:
  3904                           
  3905                           ;C:\Program Files\Microchip\xc8\v2.40\pic\sources\c99\common\doprnt.c: 1091:         if 
      +                          ((*fmt)[0] == '.') {
  3906   0014D8  C08F  FFD9         	movff	vfpfcnvrt@fmt,fsr2l
  3907   0014DC  C090  FFDA         	movff	vfpfcnvrt@fmt+1,fsr2h
  3908   0014E0  CFDE FFF6          	movff	postinc2,tblptrl
  3909   0014E4  CFDD FFF7          	movff	postdec2,tblptrh
  3910   0014E8                     	if	1	;Program memory is < 0x10000, tblptru is always zero
  3911   0014E8  6AF8               	clrf	tblptru,c
  3912   0014EA                     	endif
  3913   0014EA                     	if	0	;tblptru may be non-zero
  3914   0014EA                     	endif
  3915   0014EA  0008               	tblrd		*
  3916   0014EC  50F5               	movf	tablat,w,c
  3917   0014EE  0A2E               	xorlw	46
  3918   0014F0  A4D8               	btfss	status,2,c
  3919   0014F2  EF7D  F00A         	goto	u4281
  3920   0014F6  EF7F  F00A         	goto	u4280
  3921   0014FA                     u4281:
  3922   0014FA  EFEF  F00A         	goto	l5568
  3923   0014FE                     u4280:
  3924   0014FE                     
  3925                           ;C:\Program Files\Microchip\xc8\v2.40\pic\sources\c99\common\doprnt.c: 1092:            
      +                           prec = 0;
  3926   0014FE  0E00               	movlw	0
  3927   001500  6E3B               	movwf	(_prec+1)^0,c
  3928   001502  0E00               	movlw	0
  3929   001504  6E3A               	movwf	_prec^0,c
  3930   001506                     
  3931                           ;C:\Program Files\Microchip\xc8\v2.40\pic\sources\c99\common\doprnt.c: 1093:            
      +                           ++*fmt;
  3932   001506  C08F  FFD9         	movff	vfpfcnvrt@fmt,fsr2l
  3933   00150A  C090  FFDA         	movff	vfpfcnvrt@fmt+1,fsr2h
  3934   00150E  2ADE               	incf	postinc2,f,c
  3935   001510  0E00               	movlw	0
  3936   001512  22DD               	addwfc	postdec2,f,c
  3937   001514                     
  3938                           ;C:\Program Files\Microchip\xc8\v2.40\pic\sources\c99\common\doprnt.c: 1094:            
      +                           if ((*fmt)[0] == '*') {
  3939   001514  C08F  FFD9         	movff	vfpfcnvrt@fmt,fsr2l
  3940   001518  C090  FFDA         	movff	vfpfcnvrt@fmt+1,fsr2h
  3941   00151C  CFDE FFF6          	movff	postinc2,tblptrl
  3942   001520  CFDD FFF7          	movff	postdec2,tblptrh
  3943   001524                     	if	1	;Program memory is < 0x10000, tblptru is always zero
  3944   001524  6AF8               	clrf	tblptru,c
  3945   001526                     	endif
  3946   001526                     	if	0	;tblptru may be non-zero
  3947   001526                     	endif
  3948   001526  0008               	tblrd		*
  3949   001528  50F5               	movf	tablat,w,c
  3950   00152A  0A2A               	xorlw	42
  3951   00152C  A4D8               	btfss	status,2,c
  3952   00152E  EF9B  F00A         	goto	u4291
  3953   001532  EF9D  F00A         	goto	u4290
  3954   001536                     u4291:
  3955   001536  EFBA  F00A         	goto	l5560
  3956   00153A                     u4290:
  3957   00153A                     
  3958                           ;C:\Program Files\Microchip\xc8\v2.40\pic\sources\c99\common\doprnt.c: 1095:            
      +                               ++*fmt;
  3959   00153A  C08F  FFD9         	movff	vfpfcnvrt@fmt,fsr2l
  3960   00153E  C090  FFDA         	movff	vfpfcnvrt@fmt+1,fsr2h
  3961   001542  2ADE               	incf	postinc2,f,c
  3962   001544  0E00               	movlw	0
  3963   001546  22DD               	addwfc	postdec2,f,c
  3964                           
  3965                           ;C:\Program Files\Microchip\xc8\v2.40\pic\sources\c99\common\doprnt.c: 1096:            
      +                               prec = (*(int *)__va_arg(*(int **)ap, (int)0));
  3966   001548  C091  FFD9         	movff	vfpfcnvrt@ap,fsr2l
  3967   00154C  C092  FFDA         	movff	vfpfcnvrt@ap+1,fsr2h
  3968   001550  CFDF F093          	movff	indf2,??_vfpfcnvrt
  3969   001554  0E02               	movlw	2
  3970   001556  26DE               	addwf	postinc2,f,c
  3971   001558  CFDF F094          	movff	indf2,??_vfpfcnvrt+1
  3972   00155C  0E00               	movlw	0
  3973   00155E  22DD               	addwfc	postdec2,f,c
  3974   001560  C093  FFD9         	movff	??_vfpfcnvrt,fsr2l
  3975   001564  C094  FFDA         	movff	??_vfpfcnvrt+1,fsr2h
  3976   001568  CFDE F03A          	movff	postinc2,_prec
  3977   00156C  CFDD F03B          	movff	postdec2,_prec+1
  3978                           
  3979                           ;C:\Program Files\Microchip\xc8\v2.40\pic\sources\c99\common\doprnt.c: 1097:            
      +                           } else {
  3980   001570  EFEF  F00A         	goto	l5568
  3981   001574                     l5560:
  3982                           
  3983                           ;C:\Program Files\Microchip\xc8\v2.40\pic\sources\c99\common\doprnt.c: 1098:            
      +                               prec = atoi(*fmt);
  3984   001574  C08F  FFD9         	movff	vfpfcnvrt@fmt,fsr2l
  3985   001578  C090  FFDA         	movff	vfpfcnvrt@fmt+1,fsr2h
  3986   00157C  CFDE F020          	movff	postinc2,atoi@s
  3987   001580  CFDD F021          	movff	postdec2,atoi@s+1
  3988   001584  EC1F  F013         	call	_atoi	;wreg free
  3989   001588  C020  F03A         	movff	?_atoi,_prec
  3990   00158C  C021  F03B         	movff	?_atoi+1,_prec+1
  3991                           
  3992                           ;C:\Program Files\Microchip\xc8\v2.40\pic\sources\c99\common\doprnt.c: 1099:            
      +                               while ((0 && isdigit((*fmt)[0]), ((unsigned)((*fmt)[0])-'0') < 10)) {
  3993   001590  EFD1  F00A         	goto	l5566
  3994   001594                     l5562:
  3995                           
  3996                           ; BSR set to: 0
  3997                           ;C:\Program Files\Microchip\xc8\v2.40\pic\sources\c99\common\doprnt.c: 1100:            
      +                                   ++*fmt;
  3998   001594  C08F  FFD9         	movff	vfpfcnvrt@fmt,fsr2l
  3999   001598  C090  FFDA         	movff	vfpfcnvrt@fmt+1,fsr2h
  4000   00159C  2ADE               	incf	postinc2,f,c
  4001   00159E  0E00               	movlw	0
  4002   0015A0  22DD               	addwfc	postdec2,f,c
  4003   0015A2                     l5566:
  4004   0015A2  C08F  FFD9         	movff	vfpfcnvrt@fmt,fsr2l
  4005   0015A6  C090  FFDA         	movff	vfpfcnvrt@fmt+1,fsr2h
  4006   0015AA  CFDE FFF6          	movff	postinc2,tblptrl
  4007   0015AE  CFDD FFF7          	movff	postdec2,tblptrh
  4008   0015B2                     	if	1	;Program memory is < 0x10000, tblptru is always zero
  4009   0015B2  6AF8               	clrf	tblptru,c
  4010   0015B4                     	endif
  4011   0015B4                     	if	0	;tblptru may be non-zero
  4012   0015B4                     	endif
  4013   0015B4  0008               	tblrd		*
  4014   0015B6  CFF5 F093          	movff	tablat,??_vfpfcnvrt
  4015   0015BA  0ED0               	movlw	208
  4016   0015BC  0100               	movlb	0	; () banked
  4017   0015BE  2593               	addwf	??_vfpfcnvrt& (0+255),w,b
  4018   0015C0  6F94               	movwf	(??_vfpfcnvrt+1)& (0+255),b
  4019   0015C2  6B95               	clrf	(??_vfpfcnvrt+2)& (0+255),b
  4020   0015C4  0EFF               	movlw	255
  4021   0015C6  2395               	addwfc	(??_vfpfcnvrt+2)& (0+255),f,b
  4022   0015C8  5195               	movf	(??_vfpfcnvrt+2)& (0+255),w,b
  4023   0015CA  E109               	bnz	u4300
  4024   0015CC  0E0A               	movlw	10
  4025   0015CE  5D94               	subwf	(??_vfpfcnvrt+1)& (0+255),w,b
  4026   0015D0  A0D8               	btfss	status,0,c
  4027   0015D2  EFED  F00A         	goto	u4301
  4028   0015D6  EFEF  F00A         	goto	u4300
  4029   0015DA                     u4301:
  4030   0015DA  EFCA  F00A         	goto	l5562
  4031   0015DE                     u4300:
  4032   0015DE                     l5568:
  4033                           
  4034                           ;C:\Program Files\Microchip\xc8\v2.40\pic\sources\c99\common\doprnt.c: 1117:   cp = *fmt
      +                          ;
  4035   0015DE  C08F  FFD9         	movff	vfpfcnvrt@fmt,fsr2l
  4036   0015E2  C090  FFDA         	movff	vfpfcnvrt@fmt+1,fsr2h
  4037   0015E6  CFDE F09F          	movff	postinc2,vfpfcnvrt@cp
  4038   0015EA  CFDD F0A0          	movff	postdec2,vfpfcnvrt@cp+1
  4039   0015EE                     
  4040                           ;C:\Program Files\Microchip\xc8\v2.40\pic\sources\c99\common\doprnt.c: 1187:   if (*cp =
      +                          = 'd' || *cp == 'i') {
  4041   0015EE  C09F  FFF6         	movff	vfpfcnvrt@cp,tblptrl
  4042   0015F2  C0A0  FFF7         	movff	vfpfcnvrt@cp+1,tblptrh
  4043   0015F6                     	if	1	;Program memory is < 0x10000, tblptru is always zero
  4044   0015F6  6AF8               	clrf	tblptru,c
  4045   0015F8                     	endif
  4046   0015F8                     	if	0	;tblptru may be non-zero
  4047   0015F8                     	endif
  4048   0015F8  0008               	tblrd		*
  4049   0015FA  50F5               	movf	tablat,w,c
  4050   0015FC  0A64               	xorlw	100
  4051   0015FE  B4D8               	btfsc	status,2,c
  4052   001600  EF04  F00B         	goto	u4311
  4053   001604  EF06  F00B         	goto	u4310
  4054   001608                     u4311:
  4055   001608  EF15  F00B         	goto	l5574
  4056   00160C                     u4310:
  4057   00160C  C09F  FFF6         	movff	vfpfcnvrt@cp,tblptrl
  4058   001610  C0A0  FFF7         	movff	vfpfcnvrt@cp+1,tblptrh
  4059   001614                     	if	1	;Program memory is < 0x10000, tblptru is always zero
  4060   001614  6AF8               	clrf	tblptru,c
  4061   001616                     	endif
  4062   001616                     	if	0	;tblptru may be non-zero
  4063   001616                     	endif
  4064   001616  0008               	tblrd		*
  4065   001618  50F5               	movf	tablat,w,c
  4066   00161A  0A69               	xorlw	105
  4067   00161C  A4D8               	btfss	status,2,c
  4068   00161E  EF13  F00B         	goto	u4321
  4069   001622  EF15  F00B         	goto	u4320
  4070   001626                     u4321:
  4071   001626  EF59  F00B         	goto	l5580
  4072   00162A                     u4320:
  4073   00162A                     l5574:
  4074                           
  4075                           ;C:\Program Files\Microchip\xc8\v2.40\pic\sources\c99\common\doprnt.c: 1230:    convarg.
      +                          ll = (long long)(int)(*(int *)__va_arg(*(int **)ap, (int)0));
  4076   00162A  C091  FFD9         	movff	vfpfcnvrt@ap,fsr2l
  4077   00162E  C092  FFDA         	movff	vfpfcnvrt@ap+1,fsr2h
  4078   001632  CFDF F093          	movff	indf2,??_vfpfcnvrt
  4079   001636  0E02               	movlw	2
  4080   001638  26DE               	addwf	postinc2,f,c
  4081   00163A  CFDF F094          	movff	indf2,??_vfpfcnvrt+1
  4082   00163E  0E00               	movlw	0
  4083   001640  22DD               	addwfc	postdec2,f,c
  4084   001642  C093  FFD9         	movff	??_vfpfcnvrt,fsr2l
  4085   001646  C094  FFDA         	movff	??_vfpfcnvrt+1,fsr2h
  4086   00164A  CFDE F097          	movff	postinc2,vfpfcnvrt@convarg
  4087   00164E  CFDD F098          	movff	postdec2,vfpfcnvrt@convarg+1
  4088   001652  0100               	movlb	0	; () banked
  4089   001654  0E00               	movlw	0
  4090   001656  BF98               	btfsc	(vfpfcnvrt@convarg+1)& (0+255),7,b
  4091   001658  0EFF               	movlw	-1
  4092   00165A  6F99               	movwf	(vfpfcnvrt@convarg+2)& (0+255),b
  4093   00165C  6F9A               	movwf	(vfpfcnvrt@convarg+3)& (0+255),b
  4094   00165E  6F9B               	movwf	(vfpfcnvrt@convarg+4)& (0+255),b
  4095   001660  6F9C               	movwf	(vfpfcnvrt@convarg+5)& (0+255),b
  4096   001662  6F9D               	movwf	(vfpfcnvrt@convarg+6)& (0+255),b
  4097   001664  6F9E               	movwf	(vfpfcnvrt@convarg+7)& (0+255),b
  4098                           
  4099                           ;C:\Program Files\Microchip\xc8\v2.40\pic\sources\c99\common\doprnt.c: 1232:    *fmt = c
      +                          p+1;
  4100   001666  0E01               	movlw	1
  4101   001668  259F               	addwf	vfpfcnvrt@cp& (0+255),w,b
  4102   00166A  6F93               	movwf	??_vfpfcnvrt& (0+255),b
  4103   00166C  0E00               	movlw	0
  4104   00166E  21A0               	addwfc	(vfpfcnvrt@cp+1)& (0+255),w,b
  4105   001670  6F94               	movwf	(??_vfpfcnvrt+1)& (0+255),b
  4106   001672  C08F  FFD9         	movff	vfpfcnvrt@fmt,fsr2l
  4107   001676  C090  FFDA         	movff	vfpfcnvrt@fmt+1,fsr2h
  4108   00167A  C093  FFDE         	movff	??_vfpfcnvrt,postinc2
  4109   00167E  C094  FFDD         	movff	??_vfpfcnvrt+1,postdec2
  4110   001682                     
  4111                           ; BSR set to: 0
  4112                           ;C:\Program Files\Microchip\xc8\v2.40\pic\sources\c99\common\doprnt.c: 1233:    return (
      +                          void) dtoa(fp, convarg.ll);;	Return value of _vfpfcnvrt is never used
  4113   001682  C08D  F06A         	movff	vfpfcnvrt@fp,dtoa@fp
  4114   001686  C08E  F06B         	movff	vfpfcnvrt@fp+1,dtoa@fp+1
  4115   00168A  C097  F06C         	movff	vfpfcnvrt@convarg,dtoa@d
  4116   00168E  C098  F06D         	movff	vfpfcnvrt@convarg+1,dtoa@d+1
  4117   001692  C099  F06E         	movff	vfpfcnvrt@convarg+2,dtoa@d+2
  4118   001696  C09A  F06F         	movff	vfpfcnvrt@convarg+3,dtoa@d+3
  4119   00169A  C09B  F070         	movff	vfpfcnvrt@convarg+4,dtoa@d+4
  4120   00169E  C09C  F071         	movff	vfpfcnvrt@convarg+5,dtoa@d+5
  4121   0016A2  C09D  F072         	movff	vfpfcnvrt@convarg+6,dtoa@d+6
  4122   0016A6  C09E  F073         	movff	vfpfcnvrt@convarg+7,dtoa@d+7
  4123   0016AA  ECB3  F00D         	call	_dtoa	;wreg free
  4124   0016AE  EFE4  F00B         	goto	l1580
  4125   0016B2                     l5580:
  4126   0016B2  C09F  FFF6         	movff	vfpfcnvrt@cp,tblptrl
  4127   0016B6  C0A0  FFF7         	movff	vfpfcnvrt@cp+1,tblptrh
  4128   0016BA                     	if	1	;Program memory is < 0x10000, tblptru is always zero
  4129   0016BA  6AF8               	clrf	tblptru,c
  4130   0016BC                     	endif
  4131   0016BC                     	if	0	;tblptru may be non-zero
  4132   0016BC                     	endif
  4133   0016BC  0008               	tblrd		*
  4134   0016BE  50F5               	movf	tablat,w,c
  4135   0016C0  0A75               	xorlw	117
  4136   0016C2  A4D8               	btfss	status,2,c
  4137   0016C4  EF66  F00B         	goto	u4331
  4138   0016C8  EF68  F00B         	goto	u4330
  4139   0016CC                     u4331:
  4140   0016CC  EFC6  F00B         	goto	l5592
  4141   0016D0                     u4330:
  4142   0016D0                     
  4143                           ;C:\Program Files\Microchip\xc8\v2.40\pic\sources\c99\common\doprnt.c: 1252:     ) {;C:\
      +                          Program Files\Microchip\xc8\v2.40\pic\sources\c99\common\doprnt.c: 1295:    convarg.llu 
      +                          = (unsigned long long)(unsigned int)(*(unsigned int *)__va_arg(*(unsigned int **)ap, (un
      +                          signed int)0));
  4144   0016D0  C091  FFD9         	movff	vfpfcnvrt@ap,fsr2l
  4145   0016D4  C092  FFDA         	movff	vfpfcnvrt@ap+1,fsr2h
  4146   0016D8  CFDF F093          	movff	indf2,??_vfpfcnvrt
  4147   0016DC  0E02               	movlw	2
  4148   0016DE  26DE               	addwf	postinc2,f,c
  4149   0016E0  CFDF F094          	movff	indf2,??_vfpfcnvrt+1
  4150   0016E4  0E00               	movlw	0
  4151   0016E6  22DD               	addwfc	postdec2,f,c
  4152   0016E8  C093  FFD9         	movff	??_vfpfcnvrt,fsr2l
  4153   0016EC  C094  FFDA         	movff	??_vfpfcnvrt+1,fsr2h
  4154   0016F0  CFDE F095          	movff	postinc2,??_vfpfcnvrt+2
  4155   0016F4  CFDD F096          	movff	postdec2,??_vfpfcnvrt+3
  4156   0016F8  C095  F097         	movff	??_vfpfcnvrt+2,vfpfcnvrt@convarg
  4157   0016FC  C096  F098         	movff	??_vfpfcnvrt+3,vfpfcnvrt@convarg+1
  4158   001700  0100               	movlb	0	; () banked
  4159   001702  6B99               	clrf	(vfpfcnvrt@convarg+2)& (0+255),b
  4160   001704  6B9A               	clrf	(vfpfcnvrt@convarg+3)& (0+255),b
  4161   001706  6B9B               	clrf	(vfpfcnvrt@convarg+4)& (0+255),b
  4162   001708  6B9C               	clrf	(vfpfcnvrt@convarg+5)& (0+255),b
  4163   00170A  6B9D               	clrf	(vfpfcnvrt@convarg+6)& (0+255),b
  4164   00170C  6B9E               	clrf	(vfpfcnvrt@convarg+7)& (0+255),b
  4165                           
  4166                           ;C:\Program Files\Microchip\xc8\v2.40\pic\sources\c99\common\doprnt.c: 1297:    *fmt = c
      +                          p+1;
  4167   00170E  0E01               	movlw	1
  4168   001710  259F               	addwf	vfpfcnvrt@cp& (0+255),w,b
  4169   001712  6F93               	movwf	??_vfpfcnvrt& (0+255),b
  4170   001714  0E00               	movlw	0
  4171   001716  21A0               	addwfc	(vfpfcnvrt@cp+1)& (0+255),w,b
  4172   001718  6F94               	movwf	(??_vfpfcnvrt+1)& (0+255),b
  4173   00171A  C08F  FFD9         	movff	vfpfcnvrt@fmt,fsr2l
  4174   00171E  C090  FFDA         	movff	vfpfcnvrt@fmt+1,fsr2h
  4175   001722  C093  FFDE         	movff	??_vfpfcnvrt,postinc2
  4176   001726  C094  FFDD         	movff	??_vfpfcnvrt+1,postdec2
  4177                           
  4178                           ;C:\Program Files\Microchip\xc8\v2.40\pic\sources\c99\common\doprnt.c: 1298:    switch (
      +                          *cp) {
  4179   00172A  EFAF  F00B         	goto	l5590
  4180   00172E                     l5584:
  4181                           
  4182                           ; BSR set to: 0
  4183                           ;C:\Program Files\Microchip\xc8\v2.40\pic\sources\c99\common\doprnt.c: 1305:      return
      +                           (void) utoa(fp, convarg.llu);;	Return value of _vfpfcnvrt is never used
  4184   00172E  C08D  F06A         	movff	vfpfcnvrt@fp,utoa@fp
  4185   001732  C08E  F06B         	movff	vfpfcnvrt@fp+1,utoa@fp+1
  4186   001736  C097  F06C         	movff	vfpfcnvrt@convarg,utoa@d
  4187   00173A  C098  F06D         	movff	vfpfcnvrt@convarg+1,utoa@d+1
  4188   00173E  C099  F06E         	movff	vfpfcnvrt@convarg+2,utoa@d+2
  4189   001742  C09A  F06F         	movff	vfpfcnvrt@convarg+3,utoa@d+3
  4190   001746  C09B  F070         	movff	vfpfcnvrt@convarg+4,utoa@d+4
  4191   00174A  C09C  F071         	movff	vfpfcnvrt@convarg+5,utoa@d+5
  4192   00174E  C09D  F072         	movff	vfpfcnvrt@convarg+6,utoa@d+6
  4193   001752  C09E  F073         	movff	vfpfcnvrt@convarg+7,utoa@d+7
  4194   001756  ECEB  F00F         	call	_utoa	;wreg free
  4195   00175A  EFE4  F00B         	goto	l1580
  4196   00175E                     l5590:
  4197                           
  4198                           ; BSR set to: 0
  4199   00175E  C09F  FFF6         	movff	vfpfcnvrt@cp,tblptrl
  4200   001762  C0A0  FFF7         	movff	vfpfcnvrt@cp+1,tblptrh
  4201   001766                     	if	1	;Program memory is < 0x10000, tblptru is always zero
  4202   001766  6AF8               	clrf	tblptru,c
  4203   001768                     	endif
  4204   001768                     	if	0	;tblptru may be non-zero
  4205   001768                     	endif
  4206   001768  0008               	tblrd		*
  4207   00176A  50F5               	movf	tablat,w,c
  4208   00176C  6F93               	movwf	??_vfpfcnvrt& (0+255),b
  4209   00176E  6B94               	clrf	(??_vfpfcnvrt+1)& (0+255),b
  4210                           
  4211                           ; Switch on 2 bytes has been partitioned into a top level switch of size 1, and 1 sub-sw
      +                          itches
  4212                           ; Switch size 1, requested type "simple"
  4213                           ; Number of cases is 1, Range of values is 0 to 0
  4214                           ; switch strategies available:
  4215                           ; Name         Instructions Cycles
  4216                           ; simple_byte            4     3 (average)
  4217                           ;	Chosen strategy is simple_byte
  4218   001770  5194               	movf	(??_vfpfcnvrt+1)& (0+255),w,b
  4219   001772  0A00               	xorlw	0	; case 0
  4220   001774  B4D8               	btfsc	status,2,c
  4221   001776  EFBF  F00B         	goto	l6380
  4222   00177A  EFC6  F00B         	goto	l5592
  4223   00177E                     l6380:
  4224                           
  4225                           ; BSR set to: 0
  4226                           ; Switch size 1, requested type "simple"
  4227                           ; Number of cases is 1, Range of values is 117 to 117
  4228                           ; switch strategies available:
  4229                           ; Name         Instructions Cycles
  4230                           ; simple_byte            4     3 (average)
  4231                           ;	Chosen strategy is simple_byte
  4232   00177E  5193               	movf	??_vfpfcnvrt& (0+255),w,b
  4233   001780  0A75               	xorlw	117	; case 117
  4234   001782  B4D8               	btfsc	status,2,c
  4235   001784  EF97  F00B         	goto	l5584
  4236   001788  EFC6  F00B         	goto	l5592
  4237   00178C                     l5592:
  4238                           
  4239                           ;C:\Program Files\Microchip\xc8\v2.40\pic\sources\c99\common\doprnt.c: 1509:         ++*
      +                          fmt;
  4240   00178C  C08F  FFD9         	movff	vfpfcnvrt@fmt,fsr2l
  4241   001790  C090  FFDA         	movff	vfpfcnvrt@fmt+1,fsr2h
  4242   001794  2ADE               	incf	postinc2,f,c
  4243   001796  0E00               	movlw	0
  4244   001798  22DD               	addwfc	postdec2,f,c
  4245   00179A  EFE4  F00B         	goto	l1580
  4246   00179E                     l5596:
  4247                           
  4248                           ;C:\Program Files\Microchip\xc8\v2.40\pic\sources\c99\common\doprnt.c: 1514:     fputc((
      +                          int)(*fmt)[0], fp);
  4249   00179E  C08F  FFD9         	movff	vfpfcnvrt@fmt,fsr2l
  4250   0017A2  C090  FFDA         	movff	vfpfcnvrt@fmt+1,fsr2h
  4251   0017A6  CFDE FFF6          	movff	postinc2,tblptrl
  4252   0017AA  CFDD FFF7          	movff	postdec2,tblptrh
  4253   0017AE                     	if	1	;Program memory is < 0x10000, tblptru is always zero
  4254   0017AE  6AF8               	clrf	tblptru,c
  4255   0017B0                     	endif
  4256   0017B0                     	if	0	;tblptru may be non-zero
  4257   0017B0                     	endif
  4258   0017B0  0008               	tblrd		*
  4259   0017B2  50F5               	movf	tablat,w,c
  4260   0017B4  6E1C               	movwf	fputc@c^0,c
  4261   0017B6  6A1D               	clrf	(fputc@c+1)^0,c
  4262   0017B8  C08D  F01E         	movff	vfpfcnvrt@fp,fputc@fp
  4263   0017BC  C08E  F01F         	movff	vfpfcnvrt@fp+1,fputc@fp+1
  4264   0017C0  EC11  F017         	call	_fputc	;wreg free
  4265   0017C4  EFC6  F00B         	goto	l5592
  4266   0017C8                     l1580:
  4267   0017C8  0012               	return		;funcret
  4268   0017CA                     __end_of_vfpfcnvrt:
  4269                           	callstack 0
  4270                           
  4271 ;; *************** function _utoa *****************
  4272 ;; Defined at:
  4273 ;;		line 894 in file "C:\Program Files\Microchip\xc8\v2.40\pic\sources\c99\common\doprnt.c"
  4274 ;; Parameters:    Size  Location     Type
  4275 ;;  fp              2   10[BANK0 ] PTR struct _IO_FILE
  4276 ;;		 -> NULL(0), 
  4277 ;;  d               8   12[BANK0 ] unsigned long long 
  4278 ;; Auto vars:     Size  Location     Type
  4279 ;;  n               8   32[BANK0 ] unsigned long long 
  4280 ;;  i               2   40[BANK0 ] int 
  4281 ;;  p               2   30[BANK0 ] int 
  4282 ;;  w               2   28[BANK0 ] int 
  4283 ;; Return value:  Size  Location     Type
  4284 ;;                  1    wreg      void 
  4285 ;; Registers used:
  4286 ;;		wreg, fsr1l, fsr1h, fsr2l, fsr2h, status,2, status,0, cstack
  4287 ;; Tracked objects:
  4288 ;;		On entry : 0/0
  4289 ;;		On exit  : 0/0
  4290 ;;		Unchanged: 0/0
  4291 ;; Data sizes:     COMRAM   BANK0   BANK1   BANK2   BANK3   BANK4   BANK5   BANK6   BANK7   BANK8   BANK9  BANK10  BANK1
      +1  BANK12  BANK13  BANK14
  4292 ;;      Params:         0      10       0       0       0       0       0       0       0       0       0       0       
      +0       0       0       0
  4293 ;;      Locals:         0      14       0       0       0       0       0       0       0       0       0       0       
      +0       0       0       0
  4294 ;;      Temps:          0       8       0       0       0       0       0       0       0       0       0       0       
      +0       0       0       0
  4295 ;;      Totals:         0      32       0       0       0       0       0       0       0       0       0       0       
      +0       0       0       0
  4296 ;;Total ram usage:       32 bytes
  4297 ;; Hardware stack levels used: 1
  4298 ;; Hardware stack levels required when called: 12
  4299 ;; This function calls:
  4300 ;;		___lodiv
  4301 ;;		___lomod
  4302 ;;		_pad
  4303 ;; This function is called by:
  4304 ;;		_vfpfcnvrt
  4305 ;; This function uses a non-reentrant model
  4306 ;;
  4307                           
  4308                           	psect	text17
  4309   001FD6                     __ptext17:
  4310                           	callstack 0
  4311   001FD6                     _utoa:
  4312                           	callstack 15
  4313   001FD6                     
  4314                           ;C:\Program Files\Microchip\xc8\v2.40\pic\sources\c99\common\doprnt.c: 894: static void 
      +                          utoa(FILE *fp, unsigned long long d);C:\Program Files\Microchip\xc8\v2.40\pic\sources\c9
      +                          9\common\doprnt.c: 895: {;C:\Program Files\Microchip\xc8\v2.40\pic\sources\c99\common\do
      +                          prnt.c: 896:     int i, p, w;;C:\Program Files\Microchip\xc8\v2.40\pic\sources\c99\commo
      +                          n\doprnt.c: 897:     unsigned long long n;;C:\Program Files\Microchip\xc8\v2.40\pic\sour
      +                          ces\c99\common\doprnt.c: 905:     p = (0 < prec) ? prec : 1;
  4315   001FD6  BE3B               	btfsc	(_prec+1)^0,7,c
  4316   001FD8  EFF8  F00F         	goto	u4140
  4317   001FDC  503B               	movf	(_prec+1)^0,w,c
  4318   001FDE  E106               	bnz	u4141
  4319   001FE0  043A               	decf	_prec^0,w,c
  4320   001FE2  B0D8               	btfsc	status,0,c
  4321   001FE4  EFF6  F00F         	goto	u4141
  4322   001FE8  EFF8  F00F         	goto	u4140
  4323   001FEC                     u4141:
  4324   001FEC  EFFF  F00F         	goto	l1549
  4325   001FF0                     u4140:
  4326   001FF0  0E00               	movlw	0
  4327   001FF2  0100               	movlb	0	; () banked
  4328   001FF4  6F7F               	movwf	(utoa@p+1)& (0+255),b
  4329   001FF6  0E01               	movlw	1
  4330   001FF8  6F7E               	movwf	utoa@p& (0+255),b
  4331   001FFA  EF03  F010         	goto	l1551
  4332   001FFE                     l1549:
  4333   001FFE  C03A  F07E         	movff	_prec,utoa@p
  4334   002002  C03B  F07F         	movff	_prec+1,utoa@p+1
  4335   002006                     l1551:
  4336                           
  4337                           ;C:\Program Files\Microchip\xc8\v2.40\pic\sources\c99\common\doprnt.c: 906:     w = widt
      +                          h;
  4338   002006  C038  F07C         	movff	_width,utoa@w
  4339   00200A  C039  F07D         	movff	_width+1,utoa@w+1
  4340                           
  4341                           ;C:\Program Files\Microchip\xc8\v2.40\pic\sources\c99\common\doprnt.c: 909:     n = d;
  4342   00200E  C06C  F080         	movff	utoa@d,utoa@n
  4343   002012  C06D  F081         	movff	utoa@d+1,utoa@n+1
  4344   002016  C06E  F082         	movff	utoa@d+2,utoa@n+2
  4345   00201A  C06F  F083         	movff	utoa@d+3,utoa@n+3
  4346   00201E  C070  F084         	movff	utoa@d+4,utoa@n+4
  4347   002022  C071  F085         	movff	utoa@d+5,utoa@n+5
  4348   002026  C072  F086         	movff	utoa@d+6,utoa@n+6
  4349   00202A  C073  F087         	movff	utoa@d+7,utoa@n+7
  4350   00202E                     
  4351                           ;C:\Program Files\Microchip\xc8\v2.40\pic\sources\c99\common\doprnt.c: 910:     i = size
      +                          of(dbuf) - 1;
  4352   00202E  0E00               	movlw	0
  4353   002030  0100               	movlb	0	; () banked
  4354   002032  6F89               	movwf	(utoa@i+1)& (0+255),b
  4355   002034  0E1F               	movlw	31
  4356   002036  6F88               	movwf	utoa@i& (0+255),b
  4357   002038                     
  4358                           ; BSR set to: 0
  4359                           ;C:\Program Files\Microchip\xc8\v2.40\pic\sources\c99\common\doprnt.c: 911:     dbuf[i] 
      +                          = '\0';
  4360   002038  0E00               	movlw	0
  4361   00203A  6FFF               	movwf	(_dbuf+31)& (0+255),b
  4362                           
  4363                           ;C:\Program Files\Microchip\xc8\v2.40\pic\sources\c99\common\doprnt.c: 912:     while (i
      +                           && (n || (0 < p)
  4364   00203C  EF97  F010         	goto	l5454
  4365   002040                     l5444:
  4366                           
  4367                           ; BSR set to: 0
  4368                           ;C:\Program Files\Microchip\xc8\v2.40\pic\sources\c99\common\doprnt.c: 916:     )) {;C:\
      +                          Program Files\Microchip\xc8\v2.40\pic\sources\c99\common\doprnt.c: 917:         --i;
  4369   002040  0788               	decf	utoa@i& (0+255),f,b
  4370   002042  A0D8               	btfss	status,0,c
  4371   002044  0789               	decf	(utoa@i+1)& (0+255),f,b
  4372   002046                     
  4373                           ; BSR set to: 0
  4374                           ;C:\Program Files\Microchip\xc8\v2.40\pic\sources\c99\common\doprnt.c: 918:         dbuf
      +                          [i] = '0' + (n % 10);
  4375   002046  0EE0               	movlw	low _dbuf
  4376   002048  2588               	addwf	utoa@i& (0+255),w,b
  4377   00204A  6ED9               	movwf	fsr2l,c
  4378   00204C  0E00               	movlw	high _dbuf
  4379   00204E  2189               	addwfc	(utoa@i+1)& (0+255),w,b
  4380   002050  6EDA               	movwf	fsr2h,c
  4381   002052  C080  F01A         	movff	utoa@n,___lomod@dividend
  4382   002056  C081  F01B         	movff	utoa@n+1,___lomod@dividend+1
  4383   00205A  C082  F01C         	movff	utoa@n+2,___lomod@dividend+2
  4384   00205E  C083  F01D         	movff	utoa@n+3,___lomod@dividend+3
  4385   002062  C084  F01E         	movff	utoa@n+4,___lomod@dividend+4
  4386   002066  C085  F01F         	movff	utoa@n+5,___lomod@dividend+5
  4387   00206A  C086  F020         	movff	utoa@n+6,___lomod@dividend+6
  4388   00206E  C087  F021         	movff	utoa@n+7,___lomod@dividend+7
  4389   002072  0E0A               	movlw	10
  4390   002074  6E22               	movwf	___lomod@divisor^0,c
  4391   002076  0E00               	movlw	0
  4392   002078  6E23               	movwf	(___lomod@divisor+1)^0,c
  4393   00207A  0E00               	movlw	0
  4394   00207C  6E24               	movwf	(___lomod@divisor+2)^0,c
  4395   00207E  0E00               	movlw	0
  4396   002080  6E25               	movwf	(___lomod@divisor+3)^0,c
  4397   002082  0E00               	movlw	0
  4398   002084  6E26               	movwf	(___lomod@divisor+4)^0,c
  4399   002086  0E00               	movlw	0
  4400   002088  6E27               	movwf	(___lomod@divisor+5)^0,c
  4401   00208A  0E00               	movlw	0
  4402   00208C  6E28               	movwf	(___lomod@divisor+6)^0,c
  4403   00208E  0E00               	movlw	0
  4404   002090  6E29               	movwf	(___lomod@divisor+7)^0,c
  4405   002092  EC4E  F015         	call	___lomod	;wreg free
  4406   002096  C01A  F074         	movff	?___lomod,??_utoa
  4407   00209A  C01B  F075         	movff	?___lomod+1,??_utoa+1
  4408   00209E  C01C  F076         	movff	?___lomod+2,??_utoa+2
  4409   0020A2  C01D  F077         	movff	?___lomod+3,??_utoa+3
  4410   0020A6  C01E  F078         	movff	?___lomod+4,??_utoa+4
  4411   0020AA  C01F  F079         	movff	?___lomod+5,??_utoa+5
  4412   0020AE  C020  F07A         	movff	?___lomod+6,??_utoa+6
  4413   0020B2  C021  F07B         	movff	?___lomod+7,??_utoa+7
  4414   0020B6  0100               	movlb	0	; () banked
  4415   0020B8  5174               	movf	??_utoa& (0+255),w,b
  4416   0020BA  0F30               	addlw	48
  4417   0020BC  6EDF               	movwf	indf2,c
  4418   0020BE                     
  4419                           ; BSR set to: 0
  4420                           ;C:\Program Files\Microchip\xc8\v2.40\pic\sources\c99\common\doprnt.c: 919:         --p;
  4421   0020BE  077E               	decf	utoa@p& (0+255),f,b
  4422   0020C0  A0D8               	btfss	status,0,c
  4423   0020C2  077F               	decf	(utoa@p+1)& (0+255),f,b
  4424   0020C4                     
  4425                           ; BSR set to: 0
  4426                           ;C:\Program Files\Microchip\xc8\v2.40\pic\sources\c99\common\doprnt.c: 920:         --w;
  4427   0020C4  077C               	decf	utoa@w& (0+255),f,b
  4428   0020C6  A0D8               	btfss	status,0,c
  4429   0020C8  077D               	decf	(utoa@w+1)& (0+255),f,b
  4430   0020CA                     
  4431                           ; BSR set to: 0
  4432                           ;C:\Program Files\Microchip\xc8\v2.40\pic\sources\c99\common\doprnt.c: 921:         n = 
      +                          n / 10;
  4433   0020CA  C080  F01A         	movff	utoa@n,___lodiv@dividend
  4434   0020CE  C081  F01B         	movff	utoa@n+1,___lodiv@dividend+1
  4435   0020D2  C082  F01C         	movff	utoa@n+2,___lodiv@dividend+2
  4436   0020D6  C083  F01D         	movff	utoa@n+3,___lodiv@dividend+3
  4437   0020DA  C084  F01E         	movff	utoa@n+4,___lodiv@dividend+4
  4438   0020DE  C085  F01F         	movff	utoa@n+5,___lodiv@dividend+5
  4439   0020E2  C086  F020         	movff	utoa@n+6,___lodiv@dividend+6
  4440   0020E6  C087  F021         	movff	utoa@n+7,___lodiv@dividend+7
  4441   0020EA  0E0A               	movlw	10
  4442   0020EC  6E22               	movwf	___lodiv@divisor^0,c
  4443   0020EE  0E00               	movlw	0
  4444   0020F0  6E23               	movwf	(___lodiv@divisor+1)^0,c
  4445   0020F2  0E00               	movlw	0
  4446   0020F4  6E24               	movwf	(___lodiv@divisor+2)^0,c
  4447   0020F6  0E00               	movlw	0
  4448   0020F8  6E25               	movwf	(___lodiv@divisor+3)^0,c
  4449   0020FA  0E00               	movlw	0
  4450   0020FC  6E26               	movwf	(___lodiv@divisor+4)^0,c
  4451   0020FE  0E00               	movlw	0
  4452   002100  6E27               	movwf	(___lodiv@divisor+5)^0,c
  4453   002102  0E00               	movlw	0
  4454   002104  6E28               	movwf	(___lodiv@divisor+6)^0,c
  4455   002106  0E00               	movlw	0
  4456   002108  6E29               	movwf	(___lodiv@divisor+7)^0,c
  4457   00210A  ECD5  F014         	call	___lodiv	;wreg free
  4458   00210E  C01A  F080         	movff	?___lodiv,utoa@n
  4459   002112  C01B  F081         	movff	?___lodiv+1,utoa@n+1
  4460   002116  C01C  F082         	movff	?___lodiv+2,utoa@n+2
  4461   00211A  C01D  F083         	movff	?___lodiv+3,utoa@n+3
  4462   00211E  C01E  F084         	movff	?___lodiv+4,utoa@n+4
  4463   002122  C01F  F085         	movff	?___lodiv+5,utoa@n+5
  4464   002126  C020  F086         	movff	?___lodiv+6,utoa@n+6
  4465   00212A  C021  F087         	movff	?___lodiv+7,utoa@n+7
  4466   00212E                     l5454:
  4467                           
  4468                           ;C:\Program Files\Microchip\xc8\v2.40\pic\sources\c99\common\doprnt.c: 912:     while (i
      +                           && (n || (0 < p)
  4469   00212E  0100               	movlb	0	; () banked
  4470   002130  5188               	movf	utoa@i& (0+255),w,b
  4471   002132  1189               	iorwf	(utoa@i+1)& (0+255),w,b
  4472   002134  B4D8               	btfsc	status,2,c
  4473   002136  EF9F  F010         	goto	u4151
  4474   00213A  EFA1  F010         	goto	u4150
  4475   00213E                     u4151:
  4476   00213E  EFBD  F010         	goto	l5460
  4477   002142                     u4150:
  4478   002142                     
  4479                           ; BSR set to: 0
  4480   002142  5180               	movf	utoa@n& (0+255),w,b
  4481   002144  1181               	iorwf	(utoa@n+1)& (0+255),w,b
  4482   002146  1182               	iorwf	(utoa@n+2)& (0+255),w,b
  4483   002148  1183               	iorwf	(utoa@n+3)& (0+255),w,b
  4484   00214A  1184               	iorwf	(utoa@n+4)& (0+255),w,b
  4485   00214C  1185               	iorwf	(utoa@n+5)& (0+255),w,b
  4486   00214E  1186               	iorwf	(utoa@n+6)& (0+255),w,b
  4487   002150  1187               	iorwf	(utoa@n+7)& (0+255),w,b
  4488   002152  A4D8               	btfss	status,2,c
  4489   002154  EFAE  F010         	goto	u4161
  4490   002158  EFB0  F010         	goto	u4160
  4491   00215C                     u4161:
  4492   00215C  EF20  F010         	goto	l5444
  4493   002160                     u4160:
  4494   002160                     
  4495                           ; BSR set to: 0
  4496   002160  BF7F               	btfsc	(utoa@p+1)& (0+255),7,b
  4497   002162  EFBD  F010         	goto	u4170
  4498   002166  517F               	movf	(utoa@p+1)& (0+255),w,b
  4499   002168  E106               	bnz	u4171
  4500   00216A  057E               	decf	utoa@p& (0+255),w,b
  4501   00216C  B0D8               	btfsc	status,0,c
  4502   00216E  EFBB  F010         	goto	u4171
  4503   002172  EFBD  F010         	goto	u4170
  4504   002176                     u4171:
  4505   002176  EF20  F010         	goto	l5444
  4506   00217A                     u4170:
  4507   00217A                     l5460:
  4508                           
  4509                           ; BSR set to: 0
  4510                           ;C:\Program Files\Microchip\xc8\v2.40\pic\sources\c99\common\doprnt.c: 925:     return (
      +                          void) pad(fp, &dbuf[i], w);
  4511   00217A  C06A  F060         	movff	utoa@fp,pad@fp
  4512   00217E  C06B  F061         	movff	utoa@fp+1,pad@fp+1
  4513   002182  0EE0               	movlw	low _dbuf
  4514   002184  2588               	addwf	utoa@i& (0+255),w,b
  4515   002186  6F62               	movwf	pad@buf& (0+255),b
  4516   002188  0E00               	movlw	high _dbuf
  4517   00218A  2189               	addwfc	(utoa@i+1)& (0+255),w,b
  4518   00218C  6F63               	movwf	(pad@buf+1)& (0+255),b
  4519   00218E  C07C  F064         	movff	utoa@w,pad@p
  4520   002192  C07D  F065         	movff	utoa@w+1,pad@p+1
  4521   002196  EC18  F016         	call	_pad	;wreg free
  4522   00219A  0012               	return		;funcret
  4523   00219C                     __end_of_utoa:
  4524                           	callstack 0
  4525                           
  4526 ;; *************** function ___lomod *****************
  4527 ;; Defined at:
  4528 ;;		line 9 in file "C:\Program Files\Microchip\xc8\v2.40\pic\sources\c99\common\lomod.c"
  4529 ;; Parameters:    Size  Location     Type
  4530 ;;  dividend        8   25[COMRAM] unsigned long long 
  4531 ;;  divisor         8   33[COMRAM] unsigned long long 
  4532 ;; Auto vars:     Size  Location     Type
  4533 ;;  counter         1   41[COMRAM] unsigned char 
  4534 ;; Return value:  Size  Location     Type
  4535 ;;                  8   25[COMRAM] unsigned long long 
  4536 ;; Registers used:
  4537 ;;		wreg, status,2, status,0
  4538 ;; Tracked objects:
  4539 ;;		On entry : 0/0
  4540 ;;		On exit  : 0/0
  4541 ;;		Unchanged: 0/0
  4542 ;; Data sizes:     COMRAM   BANK0   BANK1   BANK2   BANK3   BANK4   BANK5   BANK6   BANK7   BANK8   BANK9  BANK10  BANK1
      +1  BANK12  BANK13  BANK14
  4543 ;;      Params:        16       0       0       0       0       0       0       0       0       0       0       0       
      +0       0       0       0
  4544 ;;      Locals:         1       0       0       0       0       0       0       0       0       0       0       0       
      +0       0       0       0
  4545 ;;      Temps:          0       0       0       0       0       0       0       0       0       0       0       0       
      +0       0       0       0
  4546 ;;      Totals:        17       0       0       0       0       0       0       0       0       0       0       0       
      +0       0       0       0
  4547 ;;Total ram usage:       17 bytes
  4548 ;; Hardware stack levels used: 1
  4549 ;; Hardware stack levels required when called: 7
  4550 ;; This function calls:
  4551 ;;		Nothing
  4552 ;; This function is called by:
  4553 ;;		_utoa
  4554 ;; This function uses a non-reentrant model
  4555 ;;
  4556                           
  4557                           	psect	text18
  4558   002A9C                     __ptext18:
  4559                           	callstack 0
  4560   002A9C                     ___lomod:
  4561                           	callstack 19
  4562   002A9C  5022               	movf	___lomod@divisor^0,w,c
  4563   002A9E  1023               	iorwf	(___lomod@divisor+1)^0,w,c
  4564   002AA0  1024               	iorwf	(___lomod@divisor+2)^0,w,c
  4565   002AA2  1025               	iorwf	(___lomod@divisor+3)^0,w,c
  4566   002AA4  1026               	iorwf	(___lomod@divisor+4)^0,w,c
  4567   002AA6  1027               	iorwf	(___lomod@divisor+5)^0,w,c
  4568   002AA8  1028               	iorwf	(___lomod@divisor+6)^0,w,c
  4569   002AAA  1029               	iorwf	(___lomod@divisor+7)^0,w,c
  4570   002AAC  B4D8               	btfsc	status,2,c
  4571   002AAE  EF5B  F015         	goto	u3901
  4572   002AB2  EF5D  F015         	goto	u3900
  4573   002AB6                     u3901:
  4574   002AB6  EFA5  F015         	goto	l1264
  4575   002ABA                     u3900:
  4576   002ABA  0E01               	movlw	1
  4577   002ABC  6E2A               	movwf	___lomod@counter^0,c
  4578   002ABE  EF6B  F015         	goto	l5312
  4579   002AC2                     l5310:
  4580   002AC2  90D8               	bcf	status,0,c
  4581   002AC4  3622               	rlcf	___lomod@divisor^0,f,c
  4582   002AC6  3623               	rlcf	(___lomod@divisor+1)^0,f,c
  4583   002AC8  3624               	rlcf	(___lomod@divisor+2)^0,f,c
  4584   002ACA  3625               	rlcf	(___lomod@divisor+3)^0,f,c
  4585   002ACC  3626               	rlcf	(___lomod@divisor+4)^0,f,c
  4586   002ACE  3627               	rlcf	(___lomod@divisor+5)^0,f,c
  4587   002AD0  3628               	rlcf	(___lomod@divisor+6)^0,f,c
  4588   002AD2  3629               	rlcf	(___lomod@divisor+7)^0,f,c
  4589   002AD4  2A2A               	incf	___lomod@counter^0,f,c
  4590   002AD6                     l5312:
  4591   002AD6  AE29               	btfss	(___lomod@divisor+7)^0,7,c
  4592   002AD8  EF70  F015         	goto	u3911
  4593   002ADC  EF72  F015         	goto	u3910
  4594   002AE0                     u3911:
  4595   002AE0  EF61  F015         	goto	l5310
  4596   002AE4                     u3910:
  4597   002AE4                     l5314:
  4598   002AE4  5022               	movf	___lomod@divisor^0,w,c
  4599   002AE6  5C1A               	subwf	___lomod@dividend^0,w,c
  4600   002AE8  5023               	movf	(___lomod@divisor+1)^0,w,c
  4601   002AEA  581B               	subwfb	(___lomod@dividend+1)^0,w,c
  4602   002AEC  5024               	movf	(___lomod@divisor+2)^0,w,c
  4603   002AEE  581C               	subwfb	(___lomod@dividend+2)^0,w,c
  4604   002AF0  5025               	movf	(___lomod@divisor+3)^0,w,c
  4605   002AF2  581D               	subwfb	(___lomod@dividend+3)^0,w,c
  4606   002AF4  5026               	movf	(___lomod@divisor+4)^0,w,c
  4607   002AF6  581E               	subwfb	(___lomod@dividend+4)^0,w,c
  4608   002AF8  5027               	movf	(___lomod@divisor+5)^0,w,c
  4609   002AFA  581F               	subwfb	(___lomod@dividend+5)^0,w,c
  4610   002AFC  5028               	movf	(___lomod@divisor+6)^0,w,c
  4611   002AFE  5820               	subwfb	(___lomod@dividend+6)^0,w,c
  4612   002B00  5029               	movf	(___lomod@divisor+7)^0,w,c
  4613   002B02  5821               	subwfb	(___lomod@dividend+7)^0,w,c
  4614   002B04  A0D8               	btfss	status,0,c
  4615   002B06  EF87  F015         	goto	u3921
  4616   002B0A  EF89  F015         	goto	u3920
  4617   002B0E                     u3921:
  4618   002B0E  EF99  F015         	goto	l5318
  4619   002B12                     u3920:
  4620   002B12  5022               	movf	___lomod@divisor^0,w,c
  4621   002B14  5E1A               	subwf	___lomod@dividend^0,f,c
  4622   002B16  5023               	movf	(___lomod@divisor+1)^0,w,c
  4623   002B18  5A1B               	subwfb	(___lomod@dividend+1)^0,f,c
  4624   002B1A  5024               	movf	(___lomod@divisor+2)^0,w,c
  4625   002B1C  5A1C               	subwfb	(___lomod@dividend+2)^0,f,c
  4626   002B1E  5025               	movf	(___lomod@divisor+3)^0,w,c
  4627   002B20  5A1D               	subwfb	(___lomod@dividend+3)^0,f,c
  4628   002B22  5026               	movf	(___lomod@divisor+4)^0,w,c
  4629   002B24  5A1E               	subwfb	(___lomod@dividend+4)^0,f,c
  4630   002B26  5027               	movf	(___lomod@divisor+5)^0,w,c
  4631   002B28  5A1F               	subwfb	(___lomod@dividend+5)^0,f,c
  4632   002B2A  5028               	movf	(___lomod@divisor+6)^0,w,c
  4633   002B2C  5A20               	subwfb	(___lomod@dividend+6)^0,f,c
  4634   002B2E  5029               	movf	(___lomod@divisor+7)^0,w,c
  4635   002B30  5A21               	subwfb	(___lomod@dividend+7)^0,f,c
  4636   002B32                     l5318:
  4637   002B32  90D8               	bcf	status,0,c
  4638   002B34  3229               	rrcf	(___lomod@divisor+7)^0,f,c
  4639   002B36  3228               	rrcf	(___lomod@divisor+6)^0,f,c
  4640   002B38  3227               	rrcf	(___lomod@divisor+5)^0,f,c
  4641   002B3A  3226               	rrcf	(___lomod@divisor+4)^0,f,c
  4642   002B3C  3225               	rrcf	(___lomod@divisor+3)^0,f,c
  4643   002B3E  3224               	rrcf	(___lomod@divisor+2)^0,f,c
  4644   002B40  3223               	rrcf	(___lomod@divisor+1)^0,f,c
  4645   002B42  3222               	rrcf	___lomod@divisor^0,f,c
  4646   002B44  2E2A               	decfsz	___lomod@counter^0,f,c
  4647   002B46  EF72  F015         	goto	l5314
  4648   002B4A                     l1264:
  4649   002B4A  C01A  F01A         	movff	___lomod@dividend,?___lomod
  4650   002B4E  C01B  F01B         	movff	___lomod@dividend+1,?___lomod+1
  4651   002B52  C01C  F01C         	movff	___lomod@dividend+2,?___lomod+2
  4652   002B56  C01D  F01D         	movff	___lomod@dividend+3,?___lomod+3
  4653   002B5A  C01E  F01E         	movff	___lomod@dividend+4,?___lomod+4
  4654   002B5E  C01F  F01F         	movff	___lomod@dividend+5,?___lomod+5
  4655   002B62  C020  F020         	movff	___lomod@dividend+6,?___lomod+6
  4656   002B66  C021  F021         	movff	___lomod@dividend+7,?___lomod+7
  4657   002B6A  0012               	return		;funcret
  4658   002B6C                     __end_of___lomod:
  4659                           	callstack 0
  4660                           
  4661 ;; *************** function ___lodiv *****************
  4662 ;; Defined at:
  4663 ;;		line 9 in file "C:\Program Files\Microchip\xc8\v2.40\pic\sources\c99\common\lodiv.c"
  4664 ;; Parameters:    Size  Location     Type
  4665 ;;  dividend        8   25[COMRAM] unsigned long long 
  4666 ;;  divisor         8   33[COMRAM] unsigned long long 
  4667 ;; Auto vars:     Size  Location     Type
  4668 ;;  quotient        8    0[BANK0 ] unsigned long long 
  4669 ;;  counter         1    8[BANK0 ] unsigned char 
  4670 ;; Return value:  Size  Location     Type
  4671 ;;                  8   25[COMRAM] unsigned long long 
  4672 ;; Registers used:
  4673 ;;		wreg, fsr2l, fsr2h, status,2, status,0
  4674 ;; Tracked objects:
  4675 ;;		On entry : 0/0
  4676 ;;		On exit  : 0/0
  4677 ;;		Unchanged: 0/0
  4678 ;; Data sizes:     COMRAM   BANK0   BANK1   BANK2   BANK3   BANK4   BANK5   BANK6   BANK7   BANK8   BANK9  BANK10  BANK1
      +1  BANK12  BANK13  BANK14
  4679 ;;      Params:        16       0       0       0       0       0       0       0       0       0       0       0       
      +0       0       0       0
  4680 ;;      Locals:         0       9       0       0       0       0       0       0       0       0       0       0       
      +0       0       0       0
  4681 ;;      Temps:          0       0       0       0       0       0       0       0       0       0       0       0       
      +0       0       0       0
  4682 ;;      Totals:        16       9       0       0       0       0       0       0       0       0       0       0       
      +0       0       0       0
  4683 ;;Total ram usage:       25 bytes
  4684 ;; Hardware stack levels used: 1
  4685 ;; Hardware stack levels required when called: 7
  4686 ;; This function calls:
  4687 ;;		Nothing
  4688 ;; This function is called by:
  4689 ;;		_utoa
  4690 ;; This function uses a non-reentrant model
  4691 ;;
  4692                           
  4693                           	psect	text19
  4694   0029AA                     __ptext19:
  4695                           	callstack 0
  4696   0029AA                     ___lodiv:
  4697                           	callstack 19
  4698   0029AA  EE20  F060         	lfsr	2,___lodiv@quotient
  4699   0029AE  0E07               	movlw	7
  4700   0029B0                     u3861:
  4701   0029B0  6ADE               	clrf	postinc2,c
  4702   0029B2  06E8               	decf	wreg,f,c
  4703   0029B4  E2FD               	bc	u3861
  4704   0029B6  5022               	movf	___lodiv@divisor^0,w,c
  4705   0029B8  1023               	iorwf	(___lodiv@divisor+1)^0,w,c
  4706   0029BA  1024               	iorwf	(___lodiv@divisor+2)^0,w,c
  4707   0029BC  1025               	iorwf	(___lodiv@divisor+3)^0,w,c
  4708   0029BE  1026               	iorwf	(___lodiv@divisor+4)^0,w,c
  4709   0029C0  1027               	iorwf	(___lodiv@divisor+5)^0,w,c
  4710   0029C2  1028               	iorwf	(___lodiv@divisor+6)^0,w,c
  4711   0029C4  1029               	iorwf	(___lodiv@divisor+7)^0,w,c
  4712   0029C6  B4D8               	btfsc	status,2,c
  4713   0029C8  EFE8  F014         	goto	u3871
  4714   0029CC  EFEA  F014         	goto	u3870
  4715   0029D0                     u3871:
  4716   0029D0  EF3D  F015         	goto	l1254
  4717   0029D4                     u3870:
  4718   0029D4  0E01               	movlw	1
  4719   0029D6  0100               	movlb	0	; () banked
  4720   0029D8  6F68               	movwf	___lodiv@counter& (0+255),b
  4721   0029DA  EFF9  F014         	goto	l5292
  4722   0029DE                     l5290:
  4723                           
  4724                           ; BSR set to: 0
  4725   0029DE  90D8               	bcf	status,0,c
  4726   0029E0  3622               	rlcf	___lodiv@divisor^0,f,c
  4727   0029E2  3623               	rlcf	(___lodiv@divisor+1)^0,f,c
  4728   0029E4  3624               	rlcf	(___lodiv@divisor+2)^0,f,c
  4729   0029E6  3625               	rlcf	(___lodiv@divisor+3)^0,f,c
  4730   0029E8  3626               	rlcf	(___lodiv@divisor+4)^0,f,c
  4731   0029EA  3627               	rlcf	(___lodiv@divisor+5)^0,f,c
  4732   0029EC  3628               	rlcf	(___lodiv@divisor+6)^0,f,c
  4733   0029EE  3629               	rlcf	(___lodiv@divisor+7)^0,f,c
  4734   0029F0  2B68               	incf	___lodiv@counter& (0+255),f,b
  4735   0029F2                     l5292:
  4736                           
  4737                           ; BSR set to: 0
  4738   0029F2  AE29               	btfss	(___lodiv@divisor+7)^0,7,c
  4739   0029F4  EFFE  F014         	goto	u3881
  4740   0029F8  EF00  F015         	goto	u3880
  4741   0029FC                     u3881:
  4742   0029FC  EFEF  F014         	goto	l5290
  4743   002A00                     u3880:
  4744   002A00                     l5294:
  4745                           
  4746                           ; BSR set to: 0
  4747   002A00  90D8               	bcf	status,0,c
  4748   002A02  3760               	rlcf	___lodiv@quotient& (0+255),f,b
  4749   002A04  3761               	rlcf	(___lodiv@quotient+1)& (0+255),f,b
  4750   002A06  3762               	rlcf	(___lodiv@quotient+2)& (0+255),f,b
  4751   002A08  3763               	rlcf	(___lodiv@quotient+3)& (0+255),f,b
  4752   002A0A  3764               	rlcf	(___lodiv@quotient+4)& (0+255),f,b
  4753   002A0C  3765               	rlcf	(___lodiv@quotient+5)& (0+255),f,b
  4754   002A0E  3766               	rlcf	(___lodiv@quotient+6)& (0+255),f,b
  4755   002A10  3767               	rlcf	(___lodiv@quotient+7)& (0+255),f,b
  4756   002A12                     
  4757                           ; BSR set to: 0
  4758   002A12  5022               	movf	___lodiv@divisor^0,w,c
  4759   002A14  5C1A               	subwf	___lodiv@dividend^0,w,c
  4760   002A16  5023               	movf	(___lodiv@divisor+1)^0,w,c
  4761   002A18  581B               	subwfb	(___lodiv@dividend+1)^0,w,c
  4762   002A1A  5024               	movf	(___lodiv@divisor+2)^0,w,c
  4763   002A1C  581C               	subwfb	(___lodiv@dividend+2)^0,w,c
  4764   002A1E  5025               	movf	(___lodiv@divisor+3)^0,w,c
  4765   002A20  581D               	subwfb	(___lodiv@dividend+3)^0,w,c
  4766   002A22  5026               	movf	(___lodiv@divisor+4)^0,w,c
  4767   002A24  581E               	subwfb	(___lodiv@dividend+4)^0,w,c
  4768   002A26  5027               	movf	(___lodiv@divisor+5)^0,w,c
  4769   002A28  581F               	subwfb	(___lodiv@dividend+5)^0,w,c
  4770   002A2A  5028               	movf	(___lodiv@divisor+6)^0,w,c
  4771   002A2C  5820               	subwfb	(___lodiv@dividend+6)^0,w,c
  4772   002A2E  5029               	movf	(___lodiv@divisor+7)^0,w,c
  4773   002A30  5821               	subwfb	(___lodiv@dividend+7)^0,w,c
  4774   002A32  A0D8               	btfss	status,0,c
  4775   002A34  EF1E  F015         	goto	u3891
  4776   002A38  EF20  F015         	goto	u3890
  4777   002A3C                     u3891:
  4778   002A3C  EF31  F015         	goto	l5302
  4779   002A40                     u3890:
  4780   002A40                     
  4781                           ; BSR set to: 0
  4782   002A40  5022               	movf	___lodiv@divisor^0,w,c
  4783   002A42  5E1A               	subwf	___lodiv@dividend^0,f,c
  4784   002A44  5023               	movf	(___lodiv@divisor+1)^0,w,c
  4785   002A46  5A1B               	subwfb	(___lodiv@dividend+1)^0,f,c
  4786   002A48  5024               	movf	(___lodiv@divisor+2)^0,w,c
  4787   002A4A  5A1C               	subwfb	(___lodiv@dividend+2)^0,f,c
  4788   002A4C  5025               	movf	(___lodiv@divisor+3)^0,w,c
  4789   002A4E  5A1D               	subwfb	(___lodiv@dividend+3)^0,f,c
  4790   002A50  5026               	movf	(___lodiv@divisor+4)^0,w,c
  4791   002A52  5A1E               	subwfb	(___lodiv@dividend+4)^0,f,c
  4792   002A54  5027               	movf	(___lodiv@divisor+5)^0,w,c
  4793   002A56  5A1F               	subwfb	(___lodiv@dividend+5)^0,f,c
  4794   002A58  5028               	movf	(___lodiv@divisor+6)^0,w,c
  4795   002A5A  5A20               	subwfb	(___lodiv@dividend+6)^0,f,c
  4796   002A5C  5029               	movf	(___lodiv@divisor+7)^0,w,c
  4797   002A5E  5A21               	subwfb	(___lodiv@dividend+7)^0,f,c
  4798   002A60                     
  4799                           ; BSR set to: 0
  4800   002A60  8160               	bsf	___lodiv@quotient& (0+255),0,b
  4801   002A62                     l5302:
  4802                           
  4803                           ; BSR set to: 0
  4804   002A62  90D8               	bcf	status,0,c
  4805   002A64  3229               	rrcf	(___lodiv@divisor+7)^0,f,c
  4806   002A66  3228               	rrcf	(___lodiv@divisor+6)^0,f,c
  4807   002A68  3227               	rrcf	(___lodiv@divisor+5)^0,f,c
  4808   002A6A  3226               	rrcf	(___lodiv@divisor+4)^0,f,c
  4809   002A6C  3225               	rrcf	(___lodiv@divisor+3)^0,f,c
  4810   002A6E  3224               	rrcf	(___lodiv@divisor+2)^0,f,c
  4811   002A70  3223               	rrcf	(___lodiv@divisor+1)^0,f,c
  4812   002A72  3222               	rrcf	___lodiv@divisor^0,f,c
  4813   002A74                     
  4814                           ; BSR set to: 0
  4815   002A74  2F68               	decfsz	___lodiv@counter& (0+255),f,b
  4816   002A76  EF00  F015         	goto	l5294
  4817   002A7A                     l1254:
  4818   002A7A  C060  F01A         	movff	___lodiv@quotient,?___lodiv
  4819   002A7E  C061  F01B         	movff	___lodiv@quotient+1,?___lodiv+1
  4820   002A82  C062  F01C         	movff	___lodiv@quotient+2,?___lodiv+2
  4821   002A86  C063  F01D         	movff	___lodiv@quotient+3,?___lodiv+3
  4822   002A8A  C064  F01E         	movff	___lodiv@quotient+4,?___lodiv+4
  4823   002A8E  C065  F01F         	movff	___lodiv@quotient+5,?___lodiv+5
  4824   002A92  C066  F020         	movff	___lodiv@quotient+6,?___lodiv+6
  4825   002A96  C067  F021         	movff	___lodiv@quotient+7,?___lodiv+7
  4826   002A9A  0012               	return		;funcret
  4827   002A9C                     __end_of___lodiv:
  4828                           	callstack 0
  4829                           
  4830 ;; *************** function _dtoa *****************
  4831 ;; Defined at:
  4832 ;;		line 443 in file "C:\Program Files\Microchip\xc8\v2.40\pic\sources\c99\common\doprnt.c"
  4833 ;; Parameters:    Size  Location     Type
  4834 ;;  fp              2   10[BANK0 ] PTR struct _IO_FILE
  4835 ;;		 -> NULL(0), 
  4836 ;;  d               8   12[BANK0 ] long long 
  4837 ;; Auto vars:     Size  Location     Type
  4838 ;;  n               8   34[BANK0 ] long long 
  4839 ;;  i               2   43[BANK0 ] int 
  4840 ;;  w               2   32[BANK0 ] int 
  4841 ;;  p               2   30[BANK0 ] int 
  4842 ;;  s               1   42[BANK0 ] unsigned char 
  4843 ;; Return value:  Size  Location     Type
  4844 ;;                  1    wreg      void 
  4845 ;; Registers used:
  4846 ;;		wreg, fsr1l, fsr1h, fsr2l, fsr2h, status,2, status,0, cstack
  4847 ;; Tracked objects:
  4848 ;;		On entry : 0/0
  4849 ;;		On exit  : 0/0
  4850 ;;		Unchanged: 0/0
  4851 ;; Data sizes:     COMRAM   BANK0   BANK1   BANK2   BANK3   BANK4   BANK5   BANK6   BANK7   BANK8   BANK9  BANK10  BANK1
      +1  BANK12  BANK13  BANK14
  4852 ;;      Params:         0      10       0       0       0       0       0       0       0       0       0       0       
      +0       0       0       0
  4853 ;;      Locals:         0      17       0       0       0       0       0       0       0       0       0       0       
      +0       0       0       0
  4854 ;;      Temps:          0       8       0       0       0       0       0       0       0       0       0       0       
      +0       0       0       0
  4855 ;;      Totals:         0      35       0       0       0       0       0       0       0       0       0       0       
      +0       0       0       0
  4856 ;;Total ram usage:       35 bytes
  4857 ;; Hardware stack levels used: 1
  4858 ;; Hardware stack levels required when called: 12
  4859 ;; This function calls:
  4860 ;;		___aodiv
  4861 ;;		___aomod
  4862 ;;		_abs
  4863 ;;		_pad
  4864 ;; This function is called by:
  4865 ;;		_vfpfcnvrt
  4866 ;; This function uses a non-reentrant model
  4867 ;;
  4868                           
  4869                           	psect	text20
  4870   001B66                     __ptext20:
  4871                           	callstack 0
  4872   001B66                     _dtoa:
  4873                           	callstack 15
  4874   001B66                     
  4875                           ;C:\Program Files\Microchip\xc8\v2.40\pic\sources\c99\common\doprnt.c: 443: static void 
      +                          dtoa(FILE *fp, long long d);C:\Program Files\Microchip\xc8\v2.40\pic\sources\c99\common\
      +                          doprnt.c: 444: {;C:\Program Files\Microchip\xc8\v2.40\pic\sources\c99\common\doprnt.c: 4
      +                          45:  char s;;C:\Program Files\Microchip\xc8\v2.40\pic\sources\c99\common\doprnt.c: 446: 
      +                              int i, p, w;;C:\Program Files\Microchip\xc8\v2.40\pic\sources\c99\common\doprnt.c: 4
      +                          47:     long long n;;C:\Program Files\Microchip\xc8\v2.40\pic\sources\c99\common\doprnt.
      +                          c: 450:     n = d;
  4876   001B66  C06C  F082         	movff	dtoa@d,dtoa@n
  4877   001B6A  C06D  F083         	movff	dtoa@d+1,dtoa@n+1
  4878   001B6E  C06E  F084         	movff	dtoa@d+2,dtoa@n+2
  4879   001B72  C06F  F085         	movff	dtoa@d+3,dtoa@n+3
  4880   001B76  C070  F086         	movff	dtoa@d+4,dtoa@n+4
  4881   001B7A  C071  F087         	movff	dtoa@d+5,dtoa@n+5
  4882   001B7E  C072  F088         	movff	dtoa@d+6,dtoa@n+6
  4883   001B82  C073  F089         	movff	dtoa@d+7,dtoa@n+7
  4884   001B86                     
  4885                           ;C:\Program Files\Microchip\xc8\v2.40\pic\sources\c99\common\doprnt.c: 451:     s = n < 
      +                          0 ? 1 : 0;
  4886   001B86  0100               	movlb	0	; () banked
  4887   001B88  BF89               	btfsc	(dtoa@n+7)& (0+255),7,b
  4888   001B8A  EFC9  F00D         	goto	u4041
  4889   001B8E  EFCC  F00D         	goto	u4040
  4890   001B92                     u4041:
  4891   001B92  0E01               	movlw	1
  4892   001B94  EFCD  F00D         	goto	u4050
  4893   001B98                     u4040:
  4894   001B98  0E00               	movlw	0
  4895   001B9A                     u4050:
  4896   001B9A  6F8A               	movwf	dtoa@s& (0+255),b
  4897   001B9C                     
  4898                           ; BSR set to: 0
  4899                           ;C:\Program Files\Microchip\xc8\v2.40\pic\sources\c99\common\doprnt.c: 452:     if (s) {
  4900   001B9C  518A               	movf	dtoa@s& (0+255),w,b
  4901   001B9E  B4D8               	btfsc	status,2,c
  4902   001BA0  EFD4  F00D         	goto	u4061
  4903   001BA4  EFD6  F00D         	goto	u4060
  4904   001BA8                     u4061:
  4905   001BA8  EFE6  F00D         	goto	l5392
  4906   001BAC                     u4060:
  4907   001BAC                     
  4908                           ; BSR set to: 0
  4909                           ;C:\Program Files\Microchip\xc8\v2.40\pic\sources\c99\common\doprnt.c: 453:         n = 
      +                          -n;
  4910   001BAC  1F89               	comf	(dtoa@n+7)& (0+255),f,b
  4911   001BAE  1F88               	comf	(dtoa@n+6)& (0+255),f,b
  4912   001BB0  1F87               	comf	(dtoa@n+5)& (0+255),f,b
  4913   001BB2  1F86               	comf	(dtoa@n+4)& (0+255),f,b
  4914   001BB4  1F85               	comf	(dtoa@n+3)& (0+255),f,b
  4915   001BB6  1F84               	comf	(dtoa@n+2)& (0+255),f,b
  4916   001BB8  1F83               	comf	(dtoa@n+1)& (0+255),f,b
  4917   001BBA  6D82               	negf	dtoa@n& (0+255),b
  4918   001BBC  0E00               	movlw	0
  4919   001BBE  2383               	addwfc	(dtoa@n+1)& (0+255),f,b
  4920   001BC0  2384               	addwfc	(dtoa@n+2)& (0+255),f,b
  4921   001BC2  2385               	addwfc	(dtoa@n+3)& (0+255),f,b
  4922   001BC4  2386               	addwfc	(dtoa@n+4)& (0+255),f,b
  4923   001BC6  2387               	addwfc	(dtoa@n+5)& (0+255),f,b
  4924   001BC8  2388               	addwfc	(dtoa@n+6)& (0+255),f,b
  4925   001BCA  2389               	addwfc	(dtoa@n+7)& (0+255),f,b
  4926   001BCC                     l5392:
  4927                           
  4928                           ; BSR set to: 0
  4929                           ;C:\Program Files\Microchip\xc8\v2.40\pic\sources\c99\common\doprnt.c: 462:     p = (0 <
      +                           prec) ? prec : 1;
  4930   001BCC  BE3B               	btfsc	(_prec+1)^0,7,c
  4931   001BCE  EFF3  F00D         	goto	u4070
  4932   001BD2  503B               	movf	(_prec+1)^0,w,c
  4933   001BD4  E106               	bnz	u4071
  4934   001BD6  043A               	decf	_prec^0,w,c
  4935   001BD8  B0D8               	btfsc	status,0,c
  4936   001BDA  EFF1  F00D         	goto	u4071
  4937   001BDE  EFF3  F00D         	goto	u4070
  4938   001BE2                     u4071:
  4939   001BE2  EFF9  F00D         	goto	l1531
  4940   001BE6                     u4070:
  4941   001BE6                     
  4942                           ; BSR set to: 0
  4943   001BE6  0E00               	movlw	0
  4944   001BE8  6F7F               	movwf	(dtoa@p+1)& (0+255),b
  4945   001BEA  0E01               	movlw	1
  4946   001BEC  6F7E               	movwf	dtoa@p& (0+255),b
  4947   001BEE  EFFD  F00D         	goto	l1533
  4948   001BF2                     l1531:
  4949                           
  4950                           ; BSR set to: 0
  4951   001BF2  C03A  F07E         	movff	_prec,dtoa@p
  4952   001BF6  C03B  F07F         	movff	_prec+1,dtoa@p+1
  4953   001BFA                     l1533:
  4954                           
  4955                           ; BSR set to: 0
  4956                           ;C:\Program Files\Microchip\xc8\v2.40\pic\sources\c99\common\doprnt.c: 463:     w = widt
      +                          h;
  4957   001BFA  C038  F080         	movff	_width,dtoa@w
  4958   001BFE  C039  F081         	movff	_width+1,dtoa@w+1
  4959   001C02                     
  4960                           ; BSR set to: 0
  4961                           ;C:\Program Files\Microchip\xc8\v2.40\pic\sources\c99\common\doprnt.c: 464:     if (s
  4962   001C02  518A               	movf	dtoa@s& (0+255),w,b
  4963   001C04  B4D8               	btfsc	status,2,c
  4964   001C06  EF07  F00E         	goto	u4081
  4965   001C0A  EF09  F00E         	goto	u4080
  4966   001C0E                     u4081:
  4967   001C0E  EF20  F00E         	goto	l1534
  4968   001C12                     u4080:
  4969   001C12                     
  4970                           ; BSR set to: 0
  4971                           ;C:\Program Files\Microchip\xc8\v2.40\pic\sources\c99\common\doprnt.c: 468:     ) {;C:\P
      +                          rogram Files\Microchip\xc8\v2.40\pic\sources\c99\common\doprnt.c: 469:         --w;
  4972   001C12  0780               	decf	dtoa@w& (0+255),f,b
  4973   001C14  A0D8               	btfss	status,0,c
  4974   001C16  0781               	decf	(dtoa@w+1)& (0+255),f,b
  4975   001C18                     
  4976                           ; BSR set to: 0
  4977                           ;C:\Program Files\Microchip\xc8\v2.40\pic\sources\c99\common\doprnt.c: 470:   s = s ? '-
      +                          ' : '+';
  4978   001C18  518A               	movf	dtoa@s& (0+255),w,b
  4979   001C1A  A4D8               	btfss	status,2,c
  4980   001C1C  EF12  F00E         	goto	u4091
  4981   001C20  EF14  F00E         	goto	u4090
  4982   001C24                     u4091:
  4983   001C24  EF1A  F00E         	goto	l5404
  4984   001C28                     u4090:
  4985   001C28                     
  4986                           ; BSR set to: 0
  4987   001C28  0E00               	movlw	0
  4988   001C2A  6F7D               	movwf	(_dtoa$2473+1)& (0+255),b
  4989   001C2C  0E2B               	movlw	43
  4990   001C2E  6F7C               	movwf	_dtoa$2473& (0+255),b
  4991   001C30  EF1E  F00E         	goto	l5406
  4992   001C34                     l5404:
  4993                           
  4994                           ; BSR set to: 0
  4995   001C34  0E00               	movlw	0
  4996   001C36  6F7D               	movwf	(_dtoa$2473+1)& (0+255),b
  4997   001C38  0E2D               	movlw	45
  4998   001C3A  6F7C               	movwf	_dtoa$2473& (0+255),b
  4999   001C3C                     l5406:
  5000                           
  5001                           ; BSR set to: 0
  5002   001C3C  C07C  F08A         	movff	_dtoa$2473,dtoa@s
  5003   001C40                     l1534:
  5004                           
  5005                           ; BSR set to: 0
  5006                           ;C:\Program Files\Microchip\xc8\v2.40\pic\sources\c99\common\doprnt.c: 480:     i = size
      +                          of(dbuf) - 1;
  5007   001C40  0E00               	movlw	0
  5008   001C42  6F8C               	movwf	(dtoa@i+1)& (0+255),b
  5009   001C44  0E1F               	movlw	31
  5010   001C46  6F8B               	movwf	dtoa@i& (0+255),b
  5011   001C48                     
  5012                           ; BSR set to: 0
  5013                           ;C:\Program Files\Microchip\xc8\v2.40\pic\sources\c99\common\doprnt.c: 481:     dbuf[i] 
      +                          = '\0';
  5014   001C48  0E00               	movlw	0
  5015   001C4A  6FFF               	movwf	(_dbuf+31)& (0+255),b
  5016                           
  5017                           ;C:\Program Files\Microchip\xc8\v2.40\pic\sources\c99\common\doprnt.c: 482:     while (!
      +                          (i < 1) && (n || (0 < p)
  5018   001C4C  EFA5  F00E         	goto	l5420
  5019   001C50                     l5410:
  5020                           
  5021                           ; BSR set to: 0
  5022                           ;C:\Program Files\Microchip\xc8\v2.40\pic\sources\c99\common\doprnt.c: 486:     )) {;C:\
      +                          Program Files\Microchip\xc8\v2.40\pic\sources\c99\common\doprnt.c: 487:         --i;
  5023   001C50  078B               	decf	dtoa@i& (0+255),f,b
  5024   001C52  A0D8               	btfss	status,0,c
  5025   001C54  078C               	decf	(dtoa@i+1)& (0+255),f,b
  5026   001C56                     
  5027                           ; BSR set to: 0
  5028                           ;C:\Program Files\Microchip\xc8\v2.40\pic\sources\c99\common\doprnt.c: 488:         dbuf
      +                          [i] = (char)((int)'0' + abs(n % 10));
  5029   001C56  0EE0               	movlw	low _dbuf
  5030   001C58  258B               	addwf	dtoa@i& (0+255),w,b
  5031   001C5A  6ED9               	movwf	fsr2l,c
  5032   001C5C  0E00               	movlw	high _dbuf
  5033   001C5E  218C               	addwfc	(dtoa@i+1)& (0+255),w,b
  5034   001C60  6EDA               	movwf	fsr2h,c
  5035   001C62  C082  F01A         	movff	dtoa@n,___aomod@dividend
  5036   001C66  C083  F01B         	movff	dtoa@n+1,___aomod@dividend+1
  5037   001C6A  C084  F01C         	movff	dtoa@n+2,___aomod@dividend+2
  5038   001C6E  C085  F01D         	movff	dtoa@n+3,___aomod@dividend+3
  5039   001C72  C086  F01E         	movff	dtoa@n+4,___aomod@dividend+4
  5040   001C76  C087  F01F         	movff	dtoa@n+5,___aomod@dividend+5
  5041   001C7A  C088  F020         	movff	dtoa@n+6,___aomod@dividend+6
  5042   001C7E  C089  F021         	movff	dtoa@n+7,___aomod@dividend+7
  5043   001C82  0E0A               	movlw	10
  5044   001C84  6E22               	movwf	___aomod@divisor^0,c
  5045   001C86  0E00               	movlw	0
  5046   001C88  6E23               	movwf	(___aomod@divisor+1)^0,c
  5047   001C8A  0E00               	movlw	0
  5048   001C8C  6E24               	movwf	(___aomod@divisor+2)^0,c
  5049   001C8E  0E00               	movlw	0
  5050   001C90  6E25               	movwf	(___aomod@divisor+3)^0,c
  5051   001C92  0E00               	movlw	0
  5052   001C94  6E26               	movwf	(___aomod@divisor+4)^0,c
  5053   001C96  0E00               	movlw	0
  5054   001C98  6E27               	movwf	(___aomod@divisor+5)^0,c
  5055   001C9A  0E00               	movlw	0
  5056   001C9C  6E28               	movwf	(___aomod@divisor+6)^0,c
  5057   001C9E  0E00               	movlw	0
  5058   001CA0  6E29               	movwf	(___aomod@divisor+7)^0,c
  5059   001CA2  EC6D  F012         	call	___aomod	;wreg free
  5060   001CA6  C01A  F074         	movff	?___aomod,??_dtoa
  5061   001CAA  C01B  F075         	movff	?___aomod+1,??_dtoa+1
  5062   001CAE  C01C  F076         	movff	?___aomod+2,??_dtoa+2
  5063   001CB2  C01D  F077         	movff	?___aomod+3,??_dtoa+3
  5064   001CB6  C01E  F078         	movff	?___aomod+4,??_dtoa+4
  5065   001CBA  C01F  F079         	movff	?___aomod+5,??_dtoa+5
  5066   001CBE  C020  F07A         	movff	?___aomod+6,??_dtoa+6
  5067   001CC2  C021  F07B         	movff	?___aomod+7,??_dtoa+7
  5068   001CC6  C074  F02C         	movff	??_dtoa,abs@a
  5069   001CCA  C075  F02D         	movff	??_dtoa+1,abs@a+1
  5070   001CCE  EC3A  F01A         	call	_abs	;wreg free
  5071   001CD2  502C               	movf	?_abs^0,w,c
  5072   001CD4  0F30               	addlw	48
  5073   001CD6  6EDF               	movwf	indf2,c
  5074   001CD8                     
  5075                           ;C:\Program Files\Microchip\xc8\v2.40\pic\sources\c99\common\doprnt.c: 489:         --p;
  5076   001CD8  0100               	movlb	0	; () banked
  5077   001CDA  077E               	decf	dtoa@p& (0+255),f,b
  5078   001CDC  A0D8               	btfss	status,0,c
  5079   001CDE  077F               	decf	(dtoa@p+1)& (0+255),f,b
  5080   001CE0                     
  5081                           ; BSR set to: 0
  5082                           ;C:\Program Files\Microchip\xc8\v2.40\pic\sources\c99\common\doprnt.c: 490:         --w;
  5083   001CE0  0780               	decf	dtoa@w& (0+255),f,b
  5084   001CE2  A0D8               	btfss	status,0,c
  5085   001CE4  0781               	decf	(dtoa@w+1)& (0+255),f,b
  5086   001CE6                     
  5087                           ; BSR set to: 0
  5088                           ;C:\Program Files\Microchip\xc8\v2.40\pic\sources\c99\common\doprnt.c: 491:         n = 
      +                          n / 10;
  5089   001CE6  C082  F01A         	movff	dtoa@n,___aodiv@dividend
  5090   001CEA  C083  F01B         	movff	dtoa@n+1,___aodiv@dividend+1
  5091   001CEE  C084  F01C         	movff	dtoa@n+2,___aodiv@dividend+2
  5092   001CF2  C085  F01D         	movff	dtoa@n+3,___aodiv@dividend+3
  5093   001CF6  C086  F01E         	movff	dtoa@n+4,___aodiv@dividend+4
  5094   001CFA  C087  F01F         	movff	dtoa@n+5,___aodiv@dividend+5
  5095   001CFE  C088  F020         	movff	dtoa@n+6,___aodiv@dividend+6
  5096   001D02  C089  F021         	movff	dtoa@n+7,___aodiv@dividend+7
  5097   001D06  0E0A               	movlw	10
  5098   001D08  6E22               	movwf	___aodiv@divisor^0,c
  5099   001D0A  0E00               	movlw	0
  5100   001D0C  6E23               	movwf	(___aodiv@divisor+1)^0,c
  5101   001D0E  0E00               	movlw	0
  5102   001D10  6E24               	movwf	(___aodiv@divisor+2)^0,c
  5103   001D12  0E00               	movlw	0
  5104   001D14  6E25               	movwf	(___aodiv@divisor+3)^0,c
  5105   001D16  0E00               	movlw	0
  5106   001D18  6E26               	movwf	(___aodiv@divisor+4)^0,c
  5107   001D1A  0E00               	movlw	0
  5108   001D1C  6E27               	movwf	(___aodiv@divisor+5)^0,c
  5109   001D1E  0E00               	movlw	0
  5110   001D20  6E28               	movwf	(___aodiv@divisor+6)^0,c
  5111   001D22  0E00               	movlw	0
  5112   001D24  6E29               	movwf	(___aodiv@divisor+7)^0,c
  5113   001D26  ECA8  F011         	call	___aodiv	;wreg free
  5114   001D2A  C01A  F082         	movff	?___aodiv,dtoa@n
  5115   001D2E  C01B  F083         	movff	?___aodiv+1,dtoa@n+1
  5116   001D32  C01C  F084         	movff	?___aodiv+2,dtoa@n+2
  5117   001D36  C01D  F085         	movff	?___aodiv+3,dtoa@n+3
  5118   001D3A  C01E  F086         	movff	?___aodiv+4,dtoa@n+4
  5119   001D3E  C01F  F087         	movff	?___aodiv+5,dtoa@n+5
  5120   001D42  C020  F088         	movff	?___aodiv+6,dtoa@n+6
  5121   001D46  C021  F089         	movff	?___aodiv+7,dtoa@n+7
  5122   001D4A                     l5420:
  5123                           
  5124                           ;C:\Program Files\Microchip\xc8\v2.40\pic\sources\c99\common\doprnt.c: 482:     while (!
      +                          (i < 1) && (n || (0 < p)
  5125   001D4A  0100               	movlb	0	; () banked
  5126   001D4C  BF8C               	btfsc	(dtoa@i+1)& (0+255),7,b
  5127   001D4E  EFB1  F00E         	goto	u4101
  5128   001D52  518C               	movf	(dtoa@i+1)& (0+255),w,b
  5129   001D54  E108               	bnz	u4100
  5130   001D56  058B               	decf	dtoa@i& (0+255),w,b
  5131   001D58  A0D8               	btfss	status,0,c
  5132   001D5A  EFB1  F00E         	goto	u4101
  5133   001D5E  EFB3  F00E         	goto	u4100
  5134   001D62                     u4101:
  5135   001D62  EFCF  F00E         	goto	l5426
  5136   001D66                     u4100:
  5137   001D66                     
  5138                           ; BSR set to: 0
  5139   001D66  5182               	movf	dtoa@n& (0+255),w,b
  5140   001D68  1183               	iorwf	(dtoa@n+1)& (0+255),w,b
  5141   001D6A  1184               	iorwf	(dtoa@n+2)& (0+255),w,b
  5142   001D6C  1185               	iorwf	(dtoa@n+3)& (0+255),w,b
  5143   001D6E  1186               	iorwf	(dtoa@n+4)& (0+255),w,b
  5144   001D70  1187               	iorwf	(dtoa@n+5)& (0+255),w,b
  5145   001D72  1188               	iorwf	(dtoa@n+6)& (0+255),w,b
  5146   001D74  1189               	iorwf	(dtoa@n+7)& (0+255),w,b
  5147   001D76  A4D8               	btfss	status,2,c
  5148   001D78  EFC0  F00E         	goto	u4111
  5149   001D7C  EFC2  F00E         	goto	u4110
  5150   001D80                     u4111:
  5151   001D80  EF28  F00E         	goto	l5410
  5152   001D84                     u4110:
  5153   001D84                     
  5154                           ; BSR set to: 0
  5155   001D84  BF7F               	btfsc	(dtoa@p+1)& (0+255),7,b
  5156   001D86  EFCF  F00E         	goto	u4120
  5157   001D8A  517F               	movf	(dtoa@p+1)& (0+255),w,b
  5158   001D8C  E106               	bnz	u4121
  5159   001D8E  057E               	decf	dtoa@p& (0+255),w,b
  5160   001D90  B0D8               	btfsc	status,0,c
  5161   001D92  EFCD  F00E         	goto	u4121
  5162   001D96  EFCF  F00E         	goto	u4120
  5163   001D9A                     u4121:
  5164   001D9A  EF28  F00E         	goto	l5410
  5165   001D9E                     u4120:
  5166   001D9E                     l5426:
  5167                           
  5168                           ; BSR set to: 0
  5169                           ;C:\Program Files\Microchip\xc8\v2.40\pic\sources\c99\common\doprnt.c: 495:     if (s !=
      +                           0) {
  5170   001D9E  518A               	movf	dtoa@s& (0+255),w,b
  5171   001DA0  B4D8               	btfsc	status,2,c
  5172   001DA2  EFD5  F00E         	goto	u4131
  5173   001DA6  EFD7  F00E         	goto	u4130
  5174   001DAA                     u4131:
  5175   001DAA  EFE2  F00E         	goto	l5432
  5176   001DAE                     u4130:
  5177   001DAE                     
  5178                           ; BSR set to: 0
  5179                           ;C:\Program Files\Microchip\xc8\v2.40\pic\sources\c99\common\doprnt.c: 496:         --i;
  5180   001DAE  078B               	decf	dtoa@i& (0+255),f,b
  5181   001DB0  A0D8               	btfss	status,0,c
  5182   001DB2  078C               	decf	(dtoa@i+1)& (0+255),f,b
  5183   001DB4                     
  5184                           ; BSR set to: 0
  5185                           ;C:\Program Files\Microchip\xc8\v2.40\pic\sources\c99\common\doprnt.c: 497:         dbuf
      +                          [i] = s;
  5186   001DB4  0EE0               	movlw	low _dbuf
  5187   001DB6  258B               	addwf	dtoa@i& (0+255),w,b
  5188   001DB8  6ED9               	movwf	fsr2l,c
  5189   001DBA  0E00               	movlw	high _dbuf
  5190   001DBC  218C               	addwfc	(dtoa@i+1)& (0+255),w,b
  5191   001DBE  6EDA               	movwf	fsr2h,c
  5192   001DC0  C08A  FFDF         	movff	dtoa@s,indf2
  5193   001DC4                     l5432:
  5194                           
  5195                           ; BSR set to: 0
  5196                           ;C:\Program Files\Microchip\xc8\v2.40\pic\sources\c99\common\doprnt.c: 501:     return (
      +                          void) pad(fp, &dbuf[i], w);
  5197   001DC4  C06A  F060         	movff	dtoa@fp,pad@fp
  5198   001DC8  C06B  F061         	movff	dtoa@fp+1,pad@fp+1
  5199   001DCC  0EE0               	movlw	low _dbuf
  5200   001DCE  258B               	addwf	dtoa@i& (0+255),w,b
  5201   001DD0  6F62               	movwf	pad@buf& (0+255),b
  5202   001DD2  0E00               	movlw	high _dbuf
  5203   001DD4  218C               	addwfc	(dtoa@i+1)& (0+255),w,b
  5204   001DD6  6F63               	movwf	(pad@buf+1)& (0+255),b
  5205   001DD8  C080  F064         	movff	dtoa@w,pad@p
  5206   001DDC  C081  F065         	movff	dtoa@w+1,pad@p+1
  5207   001DE0  EC18  F016         	call	_pad	;wreg free
  5208   001DE4  0012               	return		;funcret
  5209   001DE6                     __end_of_dtoa:
  5210                           	callstack 0
  5211                           
  5212 ;; *************** function _pad *****************
  5213 ;; Defined at:
  5214 ;;		line 133 in file "C:\Program Files\Microchip\xc8\v2.40\pic\sources\c99\common\doprnt.c"
  5215 ;; Parameters:    Size  Location     Type
  5216 ;;  fp              2    0[BANK0 ] PTR struct _IO_FILE
  5217 ;;		 -> NULL(0), 
  5218 ;;  buf             2    2[BANK0 ] PTR unsigned char 
  5219 ;;		 -> dbuf(32), 
  5220 ;;  p               2    4[BANK0 ] int 
  5221 ;; Auto vars:     Size  Location     Type
  5222 ;;  w               2    8[BANK0 ] int 
  5223 ;;  i               2    6[BANK0 ] int 
  5224 ;; Return value:  Size  Location     Type
  5225 ;;                  1    wreg      void 
  5226 ;; Registers used:
  5227 ;;		wreg, fsr1l, fsr1h, fsr2l, fsr2h, status,2, status,0, cstack
  5228 ;; Tracked objects:
  5229 ;;		On entry : 0/0
  5230 ;;		On exit  : 0/0
  5231 ;;		Unchanged: 0/0
  5232 ;; Data sizes:     COMRAM   BANK0   BANK1   BANK2   BANK3   BANK4   BANK5   BANK6   BANK7   BANK8   BANK9  BANK10  BANK1
      +1  BANK12  BANK13  BANK14
  5233 ;;      Params:         0       6       0       0       0       0       0       0       0       0       0       0       
      +0       0       0       0
  5234 ;;      Locals:         0       4       0       0       0       0       0       0       0       0       0       0       
      +0       0       0       0
  5235 ;;      Temps:          1       0       0       0       0       0       0       0       0       0       0       0       
      +0       0       0       0
  5236 ;;      Totals:         1      10       0       0       0       0       0       0       0       0       0       0       
      +0       0       0       0
  5237 ;;Total ram usage:       11 bytes
  5238 ;; Hardware stack levels used: 1
  5239 ;; Hardware stack levels required when called: 11
  5240 ;; This function calls:
  5241 ;;		_fputc
  5242 ;;		_fputs
  5243 ;; This function is called by:
  5244 ;;		_dtoa
  5245 ;;		_utoa
  5246 ;; This function uses a non-reentrant model
  5247 ;;
  5248                           
  5249                           	psect	text21
  5250   002C30                     __ptext21:
  5251                           	callstack 0
  5252   002C30                     _pad:
  5253                           	callstack 15
  5254   002C30                     
  5255                           ;C:\Program Files\Microchip\xc8\v2.40\pic\sources\c99\common\doprnt.c: 133: static void 
      +                          pad(FILE *fp, char *buf, int p);C:\Program Files\Microchip\xc8\v2.40\pic\sources\c99\com
      +                          mon\doprnt.c: 134: {;C:\Program Files\Microchip\xc8\v2.40\pic\sources\c99\common\doprnt.
      +                          c: 135:     int i, w;;C:\Program Files\Microchip\xc8\v2.40\pic\sources\c99\common\doprnt
      +                          .c: 139:     if (flags & (1 << 0)) {
  5256   002C30  A03E               	btfss	_flags^0,0,c
  5257   002C32  EF1D  F016         	goto	u3931
  5258   002C36  EF1F  F016         	goto	u3930
  5259   002C3A                     u3931:
  5260   002C3A  EF29  F016         	goto	l5326
  5261   002C3E                     u3930:
  5262   002C3E                     
  5263                           ;C:\Program Files\Microchip\xc8\v2.40\pic\sources\c99\common\doprnt.c: 140:         fput
      +                          s((const char *)buf, fp);
  5264   002C3E  C062  F025         	movff	pad@buf,fputs@s
  5265   002C42  C063  F026         	movff	pad@buf+1,fputs@s+1
  5266   002C46  C060  F027         	movff	pad@fp,fputs@fp
  5267   002C4A  C061  F028         	movff	pad@fp+1,fputs@fp+1
  5268   002C4E  EC18  F01A         	call	_fputs	;wreg free
  5269   002C52                     l5326:
  5270                           
  5271                           ;C:\Program Files\Microchip\xc8\v2.40\pic\sources\c99\common\doprnt.c: 145:     w = (p <
      +                           0) ? 0 : p;
  5272   002C52  0100               	movlb	0	; () banked
  5273   002C54  BF65               	btfsc	(pad@p+1)& (0+255),7,b
  5274   002C56  EF2F  F016         	goto	u3941
  5275   002C5A  EF31  F016         	goto	u3940
  5276   002C5E                     u3941:
  5277   002C5E  EF37  F016         	goto	l5330
  5278   002C62                     u3940:
  5279   002C62                     
  5280                           ; BSR set to: 0
  5281   002C62  C064  F068         	movff	pad@p,pad@w
  5282   002C66  C065  F069         	movff	pad@p+1,pad@w+1
  5283   002C6A  EF3B  F016         	goto	l1521
  5284   002C6E                     l5330:
  5285                           
  5286                           ; BSR set to: 0
  5287   002C6E  0E00               	movlw	0
  5288   002C70  6F69               	movwf	(pad@w+1)& (0+255),b
  5289   002C72  0E00               	movlw	0
  5290   002C74  6F68               	movwf	pad@w& (0+255),b
  5291   002C76                     l1521:
  5292                           
  5293                           ; BSR set to: 0
  5294                           ;C:\Program Files\Microchip\xc8\v2.40\pic\sources\c99\common\doprnt.c: 146:     i = 0;
  5295   002C76  0E00               	movlw	0
  5296   002C78  6F67               	movwf	(pad@i+1)& (0+255),b
  5297   002C7A  0E00               	movlw	0
  5298   002C7C  6F66               	movwf	pad@i& (0+255),b
  5299                           
  5300                           ;C:\Program Files\Microchip\xc8\v2.40\pic\sources\c99\common\doprnt.c: 147:     while (i
      +                           < w) {
  5301   002C7E  EF4E  F016         	goto	l5336
  5302   002C82                     l5332:
  5303                           
  5304                           ; BSR set to: 0
  5305                           ;C:\Program Files\Microchip\xc8\v2.40\pic\sources\c99\common\doprnt.c: 148:         fput
      +                          c(' ', fp);
  5306   002C82  0E00               	movlw	0
  5307   002C84  6E1D               	movwf	(fputc@c+1)^0,c
  5308   002C86  0E20               	movlw	32
  5309   002C88  6E1C               	movwf	fputc@c^0,c
  5310   002C8A  C060  F01E         	movff	pad@fp,fputc@fp
  5311   002C8E  C061  F01F         	movff	pad@fp+1,fputc@fp+1
  5312   002C92  EC11  F017         	call	_fputc	;wreg free
  5313   002C96                     
  5314                           ;C:\Program Files\Microchip\xc8\v2.40\pic\sources\c99\common\doprnt.c: 149:         ++i;
  5315   002C96  0100               	movlb	0	; () banked
  5316   002C98  4B66               	infsnz	pad@i& (0+255),f,b
  5317   002C9A  2B67               	incf	(pad@i+1)& (0+255),f,b
  5318   002C9C                     l5336:
  5319                           
  5320                           ; BSR set to: 0
  5321                           ;C:\Program Files\Microchip\xc8\v2.40\pic\sources\c99\common\doprnt.c: 147:     while (i
      +                           < w) {
  5322   002C9C  5168               	movf	pad@w& (0+255),w,b
  5323   002C9E  5D66               	subwf	pad@i& (0+255),w,b
  5324   002CA0  5167               	movf	(pad@i+1)& (0+255),w,b
  5325   002CA2  0A80               	xorlw	128
  5326   002CA4  6E2C               	movwf	??_pad^0,c
  5327   002CA6  5169               	movf	(pad@w+1)& (0+255),w,b
  5328   002CA8  0A80               	xorlw	128
  5329   002CAA  582C               	subwfb	??_pad^0,w,c
  5330   002CAC  A0D8               	btfss	status,0,c
  5331   002CAE  EF5B  F016         	goto	u3951
  5332   002CB2  EF5D  F016         	goto	u3950
  5333   002CB6                     u3951:
  5334   002CB6  EF41  F016         	goto	l5332
  5335   002CBA                     u3950:
  5336   002CBA                     
  5337                           ; BSR set to: 0
  5338                           ;C:\Program Files\Microchip\xc8\v2.40\pic\sources\c99\common\doprnt.c: 154:     if (!(fl
      +                          ags & (1 << 0))) {
  5339   002CBA  B03E               	btfsc	_flags^0,0,c
  5340   002CBC  EF62  F016         	goto	u3961
  5341   002CC0  EF64  F016         	goto	u3960
  5342   002CC4                     u3961:
  5343   002CC4  EF6E  F016         	goto	l1526
  5344   002CC8                     u3960:
  5345   002CC8                     
  5346                           ; BSR set to: 0
  5347                           ;C:\Program Files\Microchip\xc8\v2.40\pic\sources\c99\common\doprnt.c: 156:         fput
      +                          s((const char *)buf, fp);
  5348   002CC8  C062  F025         	movff	pad@buf,fputs@s
  5349   002CCC  C063  F026         	movff	pad@buf+1,fputs@s+1
  5350   002CD0  C060  F027         	movff	pad@fp,fputs@fp
  5351   002CD4  C061  F028         	movff	pad@fp+1,fputs@fp+1
  5352   002CD8  EC18  F01A         	call	_fputs	;wreg free
  5353   002CDC                     l1526:
  5354   002CDC  0012               	return		;funcret
  5355   002CDE                     __end_of_pad:
  5356                           	callstack 0
  5357                           
  5358 ;; *************** function _fputs *****************
  5359 ;; Defined at:
  5360 ;;		line 8 in file "C:\Program Files\Microchip\xc8\v2.40\pic\sources\c99\common\nf_fputs.c"
  5361 ;; Parameters:    Size  Location     Type
  5362 ;;  s               2   36[COMRAM] PTR const unsigned char 
  5363 ;;		 -> dbuf(32), 
  5364 ;;  fp              2   38[COMRAM] PTR struct _IO_FILE
  5365 ;;		 -> NULL(0), 
  5366 ;; Auto vars:     Size  Location     Type
  5367 ;;  i               2   41[COMRAM] int 
  5368 ;;  c               1   40[COMRAM] unsigned char 
  5369 ;; Return value:  Size  Location     Type
  5370 ;;                  2   36[COMRAM] int 
  5371 ;; Registers used:
  5372 ;;		wreg, fsr1l, fsr1h, fsr2l, fsr2h, status,2, status,0, cstack
  5373 ;; Tracked objects:
  5374 ;;		On entry : 0/0
  5375 ;;		On exit  : 0/0
  5376 ;;		Unchanged: 0/0
  5377 ;; Data sizes:     COMRAM   BANK0   BANK1   BANK2   BANK3   BANK4   BANK5   BANK6   BANK7   BANK8   BANK9  BANK10  BANK1
      +1  BANK12  BANK13  BANK14
  5378 ;;      Params:         4       0       0       0       0       0       0       0       0       0       0       0       
      +0       0       0       0
  5379 ;;      Locals:         3       0       0       0       0       0       0       0       0       0       0       0       
      +0       0       0       0
  5380 ;;      Temps:          0       0       0       0       0       0       0       0       0       0       0       0       
      +0       0       0       0
  5381 ;;      Totals:         7       0       0       0       0       0       0       0       0       0       0       0       
      +0       0       0       0
  5382 ;;Total ram usage:        7 bytes
  5383 ;; Hardware stack levels used: 1
  5384 ;; Hardware stack levels required when called: 10
  5385 ;; This function calls:
  5386 ;;		_fputc
  5387 ;; This function is called by:
  5388 ;;		_pad
  5389 ;; This function uses a non-reentrant model
  5390 ;;
  5391                           
  5392                           	psect	text22
  5393   003430                     __ptext22:
  5394                           	callstack 0
  5395   003430                     _fputs:
  5396                           	callstack 15
  5397   003430  0E00               	movlw	0
  5398   003432  6E2B               	movwf	(fputs@i+1)^0,c
  5399   003434  0E00               	movlw	0
  5400   003436  6E2A               	movwf	fputs@i^0,c
  5401   003438  EF29  F01A         	goto	l5114
  5402   00343C                     l5110:
  5403   00343C  C029  F01C         	movff	fputs@c,fputc@c
  5404   003440  6A1D               	clrf	(fputc@c+1)^0,c
  5405   003442  C027  F01E         	movff	fputs@fp,fputc@fp
  5406   003446  C028  F01F         	movff	fputs@fp+1,fputc@fp+1
  5407   00344A  EC11  F017         	call	_fputc	;wreg free
  5408   00344E  4A2A               	infsnz	fputs@i^0,f,c
  5409   003450  2A2B               	incf	(fputs@i+1)^0,f,c
  5410   003452                     l5114:
  5411   003452  502A               	movf	fputs@i^0,w,c
  5412   003454  2425               	addwf	fputs@s^0,w,c
  5413   003456  6ED9               	movwf	fsr2l,c
  5414   003458  502B               	movf	(fputs@i+1)^0,w,c
  5415   00345A  2026               	addwfc	(fputs@s+1)^0,w,c
  5416   00345C  6EDA               	movwf	fsr2h,c
  5417   00345E  50DF               	movf	indf2,w,c
  5418   003460  6E29               	movwf	fputs@c^0,c
  5419   003462  5029               	movf	fputs@c^0,w,c
  5420   003464  A4D8               	btfss	status,2,c
  5421   003466  EF37  F01A         	goto	u3691
  5422   00346A  EF39  F01A         	goto	u3690
  5423   00346E                     u3691:
  5424   00346E  EF1E  F01A         	goto	l5110
  5425   003472                     u3690:
  5426   003472  0012               	return		;funcret
  5427   003474                     __end_of_fputs:
  5428                           	callstack 0
  5429                           
  5430 ;; *************** function _fputc *****************
  5431 ;; Defined at:
  5432 ;;		line 8 in file "C:\Program Files\Microchip\xc8\v2.40\pic\sources\c99\common\nf_fputc.c"
  5433 ;; Parameters:    Size  Location     Type
  5434 ;;  c               2   27[COMRAM] int 
  5435 ;;  fp              2   29[COMRAM] PTR struct _IO_FILE
  5436 ;;		 -> NULL(0), 
  5437 ;; Auto vars:     Size  Location     Type
  5438 ;;		None
  5439 ;; Return value:  Size  Location     Type
  5440 ;;                  2   27[COMRAM] int 
  5441 ;; Registers used:
  5442 ;;		wreg, fsr1l, fsr1h, fsr2l, fsr2h, status,2, status,0, cstack
  5443 ;; Tracked objects:
  5444 ;;		On entry : 0/0
  5445 ;;		On exit  : 0/0
  5446 ;;		Unchanged: 0/0
  5447 ;; Data sizes:     COMRAM   BANK0   BANK1   BANK2   BANK3   BANK4   BANK5   BANK6   BANK7   BANK8   BANK9  BANK10  BANK1
      +1  BANK12  BANK13  BANK14
  5448 ;;      Params:         4       0       0       0       0       0       0       0       0       0       0       0       
      +0       0       0       0
  5449 ;;      Locals:         0       0       0       0       0       0       0       0       0       0       0       0       
      +0       0       0       0
  5450 ;;      Temps:          5       0       0       0       0       0       0       0       0       0       0       0       
      +0       0       0       0
  5451 ;;      Totals:         9       0       0       0       0       0       0       0       0       0       0       0       
      +0       0       0       0
  5452 ;;Total ram usage:        9 bytes
  5453 ;; Hardware stack levels used: 1
  5454 ;; Hardware stack levels required when called: 9
  5455 ;; This function calls:
  5456 ;;		_putch
  5457 ;; This function is called by:
  5458 ;;		_pad
  5459 ;;		_vfpfcnvrt
  5460 ;;		_fputs
  5461 ;; This function uses a non-reentrant model
  5462 ;;
  5463                           
  5464                           	psect	text23
  5465   002E22                     __ptext23:
  5466                           	callstack 0
  5467   002E22                     _fputc:
  5468                           	callstack 15
  5469   002E22  501E               	movf	fputc@fp^0,w,c
  5470   002E24  101F               	iorwf	(fputc@fp+1)^0,w,c
  5471   002E26  B4D8               	btfsc	status,2,c
  5472   002E28  EF18  F017         	goto	u3611
  5473   002E2C  EF1A  F017         	goto	u3610
  5474   002E30                     u3611:
  5475   002E30  EF23  F017         	goto	l5054
  5476   002E34                     u3610:
  5477   002E34  501E               	movf	fputc@fp^0,w,c
  5478   002E36  101F               	iorwf	(fputc@fp+1)^0,w,c
  5479   002E38  A4D8               	btfss	status,2,c
  5480   002E3A  EF21  F017         	goto	u3621
  5481   002E3E  EF23  F017         	goto	u3620
  5482   002E42                     u3621:
  5483   002E42  EF28  F017         	goto	l5056
  5484   002E46                     u3620:
  5485   002E46                     l5054:
  5486   002E46  501C               	movf	fputc@c^0,w,c
  5487   002E48  ECBA  F01C         	call	_putch
  5488   002E4C  EF5B  F017         	goto	l1650
  5489   002E50                     l5056:
  5490   002E50  EE20 F009          	lfsr	2,9
  5491   002E54  501E               	movf	fputc@fp^0,w,c
  5492   002E56  26D9               	addwf	fsr2l,f,c
  5493   002E58  501F               	movf	(fputc@fp+1)^0,w,c
  5494   002E5A  22DA               	addwfc	fsr2h,f,c
  5495   002E5C  50DE               	movf	postinc2,w,c
  5496   002E5E  10DE               	iorwf	postinc2,w,c
  5497   002E60  B4D8               	btfsc	status,2,c
  5498   002E62  EF35  F017         	goto	u3631
  5499   002E66  EF37  F017         	goto	u3630
  5500   002E6A                     u3631:
  5501   002E6A  EF52  F017         	goto	l5060
  5502   002E6E                     u3630:
  5503   002E6E  EE20 F009          	lfsr	2,9
  5504   002E72  501E               	movf	fputc@fp^0,w,c
  5505   002E74  26D9               	addwf	fsr2l,f,c
  5506   002E76  501F               	movf	(fputc@fp+1)^0,w,c
  5507   002E78  22DA               	addwfc	fsr2h,f,c
  5508   002E7A  EE10 F003          	lfsr	1,3
  5509   002E7E  501E               	movf	fputc@fp^0,w,c
  5510   002E80  26E1               	addwf	fsr1l,f,c
  5511   002E82  501F               	movf	(fputc@fp+1)^0,w,c
  5512   002E84  22E2               	addwfc	fsr1h,f,c
  5513   002E86  50DE               	movf	postinc2,w,c
  5514   002E88  5CE6               	subwf	postinc1,w,c
  5515   002E8A  50E6               	movf	postinc1,w,c
  5516   002E8C  0A80               	xorlw	128
  5517   002E8E  6E24               	movwf	(??_fputc+4)^0,c
  5518   002E90  50DE               	movf	postinc2,w,c
  5519   002E92  0A80               	xorlw	128
  5520   002E94  5824               	subwfb	(??_fputc+4)^0,w,c
  5521   002E96  B0D8               	btfsc	status,0,c
  5522   002E98  EF50  F017         	goto	u3641
  5523   002E9C  EF52  F017         	goto	u3640
  5524   002EA0                     u3641:
  5525   002EA0  EF5B  F017         	goto	l1650
  5526   002EA4                     u3640:
  5527   002EA4                     l5060:
  5528   002EA4  EE20 F003          	lfsr	2,3
  5529   002EA8  501E               	movf	fputc@fp^0,w,c
  5530   002EAA  26D9               	addwf	fsr2l,f,c
  5531   002EAC  501F               	movf	(fputc@fp+1)^0,w,c
  5532   002EAE  22DA               	addwfc	fsr2h,f,c
  5533   002EB0  2ADE               	incf	postinc2,f,c
  5534   002EB2  0E00               	movlw	0
  5535   002EB4  22DD               	addwfc	postdec2,f,c
  5536   002EB6                     l1650:
  5537   002EB6  0012               	return		;funcret
  5538   002EB8                     __end_of_fputc:
  5539                           	callstack 0
  5540                           
  5541 ;; *************** function _putch *****************
  5542 ;; Defined at:
  5543 ;;		line 146 in file "mcc_generated_files/eusart1.c"
  5544 ;; Parameters:    Size  Location     Type
  5545 ;;  txData          1    wreg     unsigned char 
  5546 ;; Auto vars:     Size  Location     Type
  5547 ;;  txData          1   26[COMRAM] unsigned char 
  5548 ;; Return value:  Size  Location     Type
  5549 ;;                  1    wreg      void 
  5550 ;; Registers used:
  5551 ;;		wreg, status,2, cstack
  5552 ;; Tracked objects:
  5553 ;;		On entry : 0/0
  5554 ;;		On exit  : 0/0
  5555 ;;		Unchanged: 0/0
  5556 ;; Data sizes:     COMRAM   BANK0   BANK1   BANK2   BANK3   BANK4   BANK5   BANK6   BANK7   BANK8   BANK9  BANK10  BANK1
      +1  BANK12  BANK13  BANK14
  5557 ;;      Params:         0       0       0       0       0       0       0       0       0       0       0       0       
      +0       0       0       0
  5558 ;;      Locals:         1       0       0       0       0       0       0       0       0       0       0       0       
      +0       0       0       0
  5559 ;;      Temps:          0       0       0       0       0       0       0       0       0       0       0       0       
      +0       0       0       0
  5560 ;;      Totals:         1       0       0       0       0       0       0       0       0       0       0       0       
      +0       0       0       0
  5561 ;;Total ram usage:        1 bytes
  5562 ;; Hardware stack levels used: 1
  5563 ;; Hardware stack levels required when called: 8
  5564 ;; This function calls:
  5565 ;;		_EUSART1_Write
  5566 ;; This function is called by:
  5567 ;;		_fputc
  5568 ;; This function uses a non-reentrant model
  5569 ;;
  5570                           
  5571                           	psect	text24
  5572   003974                     __ptext24:
  5573                           	callstack 0
  5574   003974                     _putch:
  5575                           	callstack 15
  5576                           
  5577                           ;incstack = 0
  5578                           ;putch@txData stored from wreg
  5579   003974  6E1B               	movwf	putch@txData^0,c
  5580   003976                     
  5581                           ;mcc_generated_files/eusart1.c: 146: void putch(char txData);mcc_generated_files/eusart1
      +                          .c: 147: {;mcc_generated_files/eusart1.c: 148:     EUSART1_Write(txData);
  5582   003976  501B               	movf	putch@txData^0,w,c
  5583   003978  EC3B  F01C         	call	_EUSART1_Write
  5584   00397C  0012               	return		;funcret
  5585   00397E                     __end_of_putch:
  5586                           	callstack 0
  5587                           
  5588 ;; *************** function _EUSART1_Write *****************
  5589 ;; Defined at:
  5590 ;;		line 132 in file "mcc_generated_files/eusart1.c"
  5591 ;; Parameters:    Size  Location     Type
  5592 ;;  txData          1    wreg     unsigned char 
  5593 ;; Auto vars:     Size  Location     Type
  5594 ;;  txData          1   25[COMRAM] unsigned char 
  5595 ;; Return value:  Size  Location     Type
  5596 ;;                  1    wreg      void 
  5597 ;; Registers used:
  5598 ;;		wreg
  5599 ;; Tracked objects:
  5600 ;;		On entry : 0/0
  5601 ;;		On exit  : 0/0
  5602 ;;		Unchanged: 0/0
  5603 ;; Data sizes:     COMRAM   BANK0   BANK1   BANK2   BANK3   BANK4   BANK5   BANK6   BANK7   BANK8   BANK9  BANK10  BANK1
      +1  BANK12  BANK13  BANK14
  5604 ;;      Params:         0       0       0       0       0       0       0       0       0       0       0       0       
      +0       0       0       0
  5605 ;;      Locals:         1       0       0       0       0       0       0       0       0       0       0       0       
      +0       0       0       0
  5606 ;;      Temps:          0       0       0       0       0       0       0       0       0       0       0       0       
      +0       0       0       0
  5607 ;;      Totals:         1       0       0       0       0       0       0       0       0       0       0       0       
      +0       0       0       0
  5608 ;;Total ram usage:        1 bytes
  5609 ;; Hardware stack levels used: 1
  5610 ;; Hardware stack levels required when called: 7
  5611 ;; This function calls:
  5612 ;;		Nothing
  5613 ;; This function is called by:
  5614 ;;		_putch
  5615 ;; This function uses a non-reentrant model
  5616 ;;
  5617                           
  5618                           	psect	text25
  5619   003876                     __ptext25:
  5620                           	callstack 0
  5621   003876                     _EUSART1_Write:
  5622                           	callstack 15
  5623                           
  5624                           ;incstack = 0
  5625                           ;EUSART1_Write@txData stored from wreg
  5626   003876  6E1A               	movwf	EUSART1_Write@txData^0,c
  5627   003878                     l719:
  5628                           
  5629                           ;mcc_generated_files/eusart1.c: 134:     while(0 == PIR3bits.TX1IF)
  5630   003878  010E               	movlb	14	; () banked
  5631   00387A  A9CD               	btfss	205,4,b	;volatile
  5632   00387C  EF42  F01C         	goto	u3601
  5633   003880  EF44  F01C         	goto	u3600
  5634   003884                     u3601:
  5635   003884  EF3C  F01C         	goto	l719
  5636   003888                     u3600:
  5637   003888                     
  5638                           ; BSR set to: 14
  5639                           ;mcc_generated_files/eusart1.c: 138:     TX1REG = txData;
  5640   003888  C01A  FF9A         	movff	EUSART1_Write@txData,3994	;volatile
  5641   00388C                     
  5642                           ; BSR set to: 14
  5643   00388C  0012               	return		;funcret
  5644   00388E                     __end_of_EUSART1_Write:
  5645                           	callstack 0
  5646                           
  5647 ;; *************** function _abs *****************
  5648 ;; Defined at:
  5649 ;;		line 1 in file "C:\Program Files\Microchip\xc8\v2.40\pic\sources\c99\common\abs.c"
  5650 ;; Parameters:    Size  Location     Type
  5651 ;;  a               2   43[COMRAM] int 
  5652 ;; Auto vars:     Size  Location     Type
  5653 ;;		None
  5654 ;; Return value:  Size  Location     Type
  5655 ;;                  2   43[COMRAM] int 
  5656 ;; Registers used:
  5657 ;;		wreg, status,2, status,0
  5658 ;; Tracked objects:
  5659 ;;		On entry : 0/0
  5660 ;;		On exit  : 0/0
  5661 ;;		Unchanged: 0/0
  5662 ;; Data sizes:     COMRAM   BANK0   BANK1   BANK2   BANK3   BANK4   BANK5   BANK6   BANK7   BANK8   BANK9  BANK10  BANK1
      +1  BANK12  BANK13  BANK14
  5663 ;;      Params:         2       0       0       0       0       0       0       0       0       0       0       0       
      +0       0       0       0
  5664 ;;      Locals:         0       0       0       0       0       0       0       0       0       0       0       0       
      +0       0       0       0
  5665 ;;      Temps:          2       0       0       0       0       0       0       0       0       0       0       0       
      +0       0       0       0
  5666 ;;      Totals:         4       0       0       0       0       0       0       0       0       0       0       0       
      +0       0       0       0
  5667 ;;Total ram usage:        4 bytes
  5668 ;; Hardware stack levels used: 1
  5669 ;; Hardware stack levels required when called: 7
  5670 ;; This function calls:
  5671 ;;		Nothing
  5672 ;; This function is called by:
  5673 ;;		_dtoa
  5674 ;; This function uses a non-reentrant model
  5675 ;;
  5676                           
  5677                           	psect	text26
  5678   003474                     __ptext26:
  5679                           	callstack 0
  5680   003474                     _abs:
  5681                           	callstack 19
  5682   003474  BE2D               	btfsc	(abs@a+1)^0,7,c
  5683   003476  EF47  F01A         	goto	u3970
  5684   00347A  502D               	movf	(abs@a+1)^0,w,c
  5685   00347C  E106               	bnz	u3971
  5686   00347E  042C               	decf	abs@a^0,w,c
  5687   003480  B0D8               	btfsc	status,0,c
  5688   003482  EF45  F01A         	goto	u3971
  5689   003486  EF47  F01A         	goto	u3970
  5690   00348A                     u3971:
  5691   00348A  EF55  F01A         	goto	l1596
  5692   00348E                     u3970:
  5693   00348E  C02C  F02E         	movff	abs@a,??_abs
  5694   003492  C02D  F02F         	movff	abs@a+1,??_abs+1
  5695   003496  1E2E               	comf	??_abs^0,f,c
  5696   003498  1E2F               	comf	(??_abs+1)^0,f,c
  5697   00349A  4A2E               	infsnz	??_abs^0,f,c
  5698   00349C  2A2F               	incf	(??_abs+1)^0,f,c
  5699   00349E  C02E  F02C         	movff	??_abs,?_abs
  5700   0034A2  C02F  F02D         	movff	??_abs+1,?_abs+1
  5701   0034A6  EF59  F01A         	goto	l1599
  5702   0034AA                     l1596:
  5703   0034AA  C02C  F02C         	movff	abs@a,?_abs
  5704   0034AE  C02D  F02D         	movff	abs@a+1,?_abs+1
  5705   0034B2                     l1599:
  5706   0034B2  0012               	return		;funcret
  5707   0034B4                     __end_of_abs:
  5708                           	callstack 0
  5709                           
  5710 ;; *************** function ___aomod *****************
  5711 ;; Defined at:
  5712 ;;		line 9 in file "C:\Program Files\Microchip\xc8\v2.40\pic\sources\c99\common\aomod.c"
  5713 ;; Parameters:    Size  Location     Type
  5714 ;;  dividend        8   25[COMRAM] long long 
  5715 ;;  divisor         8   33[COMRAM] long long 
  5716 ;; Auto vars:     Size  Location     Type
  5717 ;;  sign            1   42[COMRAM] unsigned char 
  5718 ;;  counter         1   41[COMRAM] unsigned char 
  5719 ;; Return value:  Size  Location     Type
  5720 ;;                  8   25[COMRAM] long long 
  5721 ;; Registers used:
  5722 ;;		wreg, status,2, status,0
  5723 ;; Tracked objects:
  5724 ;;		On entry : 0/0
  5725 ;;		On exit  : 0/0
  5726 ;;		Unchanged: 0/0
  5727 ;; Data sizes:     COMRAM   BANK0   BANK1   BANK2   BANK3   BANK4   BANK5   BANK6   BANK7   BANK8   BANK9  BANK10  BANK1
      +1  BANK12  BANK13  BANK14
  5728 ;;      Params:        16       0       0       0       0       0       0       0       0       0       0       0       
      +0       0       0       0
  5729 ;;      Locals:         2       0       0       0       0       0       0       0       0       0       0       0       
      +0       0       0       0
  5730 ;;      Temps:          0       0       0       0       0       0       0       0       0       0       0       0       
      +0       0       0       0
  5731 ;;      Totals:        18       0       0       0       0       0       0       0       0       0       0       0       
      +0       0       0       0
  5732 ;;Total ram usage:       18 bytes
  5733 ;; Hardware stack levels used: 1
  5734 ;; Hardware stack levels required when called: 7
  5735 ;; This function calls:
  5736 ;;		Nothing
  5737 ;; This function is called by:
  5738 ;;		_dtoa
  5739 ;; This function uses a non-reentrant model
  5740 ;;
  5741                           
  5742                           	psect	text27
  5743   0024DA                     __ptext27:
  5744                           	callstack 0
  5745   0024DA                     ___aomod:
  5746                           	callstack 19
  5747   0024DA  0E00               	movlw	0
  5748   0024DC  6E2B               	movwf	___aomod@sign^0,c
  5749   0024DE  BE21               	btfsc	(___aomod@dividend+7)^0,7,c
  5750   0024E0  EF76  F012         	goto	u3800
  5751   0024E4  EF74  F012         	goto	u3801
  5752   0024E8                     u3801:
  5753   0024E8  EF88  F012         	goto	l5256
  5754   0024EC                     u3800:
  5755   0024EC  1E21               	comf	(___aomod@dividend+7)^0,f,c
  5756   0024EE  1E20               	comf	(___aomod@dividend+6)^0,f,c
  5757   0024F0  1E1F               	comf	(___aomod@dividend+5)^0,f,c
  5758   0024F2  1E1E               	comf	(___aomod@dividend+4)^0,f,c
  5759   0024F4  1E1D               	comf	(___aomod@dividend+3)^0,f,c
  5760   0024F6  1E1C               	comf	(___aomod@dividend+2)^0,f,c
  5761   0024F8  1E1B               	comf	(___aomod@dividend+1)^0,f,c
  5762   0024FA  6C1A               	negf	___aomod@dividend^0,c
  5763   0024FC  0E00               	movlw	0
  5764   0024FE  221B               	addwfc	(___aomod@dividend+1)^0,f,c
  5765   002500  221C               	addwfc	(___aomod@dividend+2)^0,f,c
  5766   002502  221D               	addwfc	(___aomod@dividend+3)^0,f,c
  5767   002504  221E               	addwfc	(___aomod@dividend+4)^0,f,c
  5768   002506  221F               	addwfc	(___aomod@dividend+5)^0,f,c
  5769   002508  2220               	addwfc	(___aomod@dividend+6)^0,f,c
  5770   00250A  2221               	addwfc	(___aomod@dividend+7)^0,f,c
  5771   00250C  0E01               	movlw	1
  5772   00250E  6E2B               	movwf	___aomod@sign^0,c
  5773   002510                     l5256:
  5774   002510  BE29               	btfsc	(___aomod@divisor+7)^0,7,c
  5775   002512  EF8F  F012         	goto	u3810
  5776   002516  EF8D  F012         	goto	u3811
  5777   00251A                     u3811:
  5778   00251A  EF9F  F012         	goto	l5260
  5779   00251E                     u3810:
  5780   00251E  1E29               	comf	(___aomod@divisor+7)^0,f,c
  5781   002520  1E28               	comf	(___aomod@divisor+6)^0,f,c
  5782   002522  1E27               	comf	(___aomod@divisor+5)^0,f,c
  5783   002524  1E26               	comf	(___aomod@divisor+4)^0,f,c
  5784   002526  1E25               	comf	(___aomod@divisor+3)^0,f,c
  5785   002528  1E24               	comf	(___aomod@divisor+2)^0,f,c
  5786   00252A  1E23               	comf	(___aomod@divisor+1)^0,f,c
  5787   00252C  6C22               	negf	___aomod@divisor^0,c
  5788   00252E  0E00               	movlw	0
  5789   002530  2223               	addwfc	(___aomod@divisor+1)^0,f,c
  5790   002532  2224               	addwfc	(___aomod@divisor+2)^0,f,c
  5791   002534  2225               	addwfc	(___aomod@divisor+3)^0,f,c
  5792   002536  2226               	addwfc	(___aomod@divisor+4)^0,f,c
  5793   002538  2227               	addwfc	(___aomod@divisor+5)^0,f,c
  5794   00253A  2228               	addwfc	(___aomod@divisor+6)^0,f,c
  5795   00253C  2229               	addwfc	(___aomod@divisor+7)^0,f,c
  5796   00253E                     l5260:
  5797   00253E  5022               	movf	___aomod@divisor^0,w,c
  5798   002540  1023               	iorwf	(___aomod@divisor+1)^0,w,c
  5799   002542  1024               	iorwf	(___aomod@divisor+2)^0,w,c
  5800   002544  1025               	iorwf	(___aomod@divisor+3)^0,w,c
  5801   002546  1026               	iorwf	(___aomod@divisor+4)^0,w,c
  5802   002548  1027               	iorwf	(___aomod@divisor+5)^0,w,c
  5803   00254A  1028               	iorwf	(___aomod@divisor+6)^0,w,c
  5804   00254C  1029               	iorwf	(___aomod@divisor+7)^0,w,c
  5805   00254E  B4D8               	btfsc	status,2,c
  5806   002550  EFAC  F012         	goto	u3821
  5807   002554  EFAE  F012         	goto	u3820
  5808   002558                     u3821:
  5809   002558  EFF6  F012         	goto	l5276
  5810   00255C                     u3820:
  5811   00255C  0E01               	movlw	1
  5812   00255E  6E2A               	movwf	___aomod@counter^0,c
  5813   002560  EFBC  F012         	goto	l5266
  5814   002564                     l5264:
  5815   002564  90D8               	bcf	status,0,c
  5816   002566  3622               	rlcf	___aomod@divisor^0,f,c
  5817   002568  3623               	rlcf	(___aomod@divisor+1)^0,f,c
  5818   00256A  3624               	rlcf	(___aomod@divisor+2)^0,f,c
  5819   00256C  3625               	rlcf	(___aomod@divisor+3)^0,f,c
  5820   00256E  3626               	rlcf	(___aomod@divisor+4)^0,f,c
  5821   002570  3627               	rlcf	(___aomod@divisor+5)^0,f,c
  5822   002572  3628               	rlcf	(___aomod@divisor+6)^0,f,c
  5823   002574  3629               	rlcf	(___aomod@divisor+7)^0,f,c
  5824   002576  2A2A               	incf	___aomod@counter^0,f,c
  5825   002578                     l5266:
  5826   002578  AE29               	btfss	(___aomod@divisor+7)^0,7,c
  5827   00257A  EFC1  F012         	goto	u3831
  5828   00257E  EFC3  F012         	goto	u3830
  5829   002582                     u3831:
  5830   002582  EFB2  F012         	goto	l5264
  5831   002586                     u3830:
  5832   002586                     l5268:
  5833   002586  5022               	movf	___aomod@divisor^0,w,c
  5834   002588  5C1A               	subwf	___aomod@dividend^0,w,c
  5835   00258A  5023               	movf	(___aomod@divisor+1)^0,w,c
  5836   00258C  581B               	subwfb	(___aomod@dividend+1)^0,w,c
  5837   00258E  5024               	movf	(___aomod@divisor+2)^0,w,c
  5838   002590  581C               	subwfb	(___aomod@dividend+2)^0,w,c
  5839   002592  5025               	movf	(___aomod@divisor+3)^0,w,c
  5840   002594  581D               	subwfb	(___aomod@dividend+3)^0,w,c
  5841   002596  5026               	movf	(___aomod@divisor+4)^0,w,c
  5842   002598  581E               	subwfb	(___aomod@dividend+4)^0,w,c
  5843   00259A  5027               	movf	(___aomod@divisor+5)^0,w,c
  5844   00259C  581F               	subwfb	(___aomod@dividend+5)^0,w,c
  5845   00259E  5028               	movf	(___aomod@divisor+6)^0,w,c
  5846   0025A0  5820               	subwfb	(___aomod@dividend+6)^0,w,c
  5847   0025A2  5029               	movf	(___aomod@divisor+7)^0,w,c
  5848   0025A4  5821               	subwfb	(___aomod@dividend+7)^0,w,c
  5849   0025A6  A0D8               	btfss	status,0,c
  5850   0025A8  EFD8  F012         	goto	u3841
  5851   0025AC  EFDA  F012         	goto	u3840
  5852   0025B0                     u3841:
  5853   0025B0  EFEA  F012         	goto	l5272
  5854   0025B4                     u3840:
  5855   0025B4  5022               	movf	___aomod@divisor^0,w,c
  5856   0025B6  5E1A               	subwf	___aomod@dividend^0,f,c
  5857   0025B8  5023               	movf	(___aomod@divisor+1)^0,w,c
  5858   0025BA  5A1B               	subwfb	(___aomod@dividend+1)^0,f,c
  5859   0025BC  5024               	movf	(___aomod@divisor+2)^0,w,c
  5860   0025BE  5A1C               	subwfb	(___aomod@dividend+2)^0,f,c
  5861   0025C0  5025               	movf	(___aomod@divisor+3)^0,w,c
  5862   0025C2  5A1D               	subwfb	(___aomod@dividend+3)^0,f,c
  5863   0025C4  5026               	movf	(___aomod@divisor+4)^0,w,c
  5864   0025C6  5A1E               	subwfb	(___aomod@dividend+4)^0,f,c
  5865   0025C8  5027               	movf	(___aomod@divisor+5)^0,w,c
  5866   0025CA  5A1F               	subwfb	(___aomod@dividend+5)^0,f,c
  5867   0025CC  5028               	movf	(___aomod@divisor+6)^0,w,c
  5868   0025CE  5A20               	subwfb	(___aomod@dividend+6)^0,f,c
  5869   0025D0  5029               	movf	(___aomod@divisor+7)^0,w,c
  5870   0025D2  5A21               	subwfb	(___aomod@dividend+7)^0,f,c
  5871   0025D4                     l5272:
  5872   0025D4  90D8               	bcf	status,0,c
  5873   0025D6  3229               	rrcf	(___aomod@divisor+7)^0,f,c
  5874   0025D8  3228               	rrcf	(___aomod@divisor+6)^0,f,c
  5875   0025DA  3227               	rrcf	(___aomod@divisor+5)^0,f,c
  5876   0025DC  3226               	rrcf	(___aomod@divisor+4)^0,f,c
  5877   0025DE  3225               	rrcf	(___aomod@divisor+3)^0,f,c
  5878   0025E0  3224               	rrcf	(___aomod@divisor+2)^0,f,c
  5879   0025E2  3223               	rrcf	(___aomod@divisor+1)^0,f,c
  5880   0025E4  3222               	rrcf	___aomod@divisor^0,f,c
  5881   0025E6  2E2A               	decfsz	___aomod@counter^0,f,c
  5882   0025E8  EFC3  F012         	goto	l5268
  5883   0025EC                     l5276:
  5884   0025EC  502B               	movf	___aomod@sign^0,w,c
  5885   0025EE  B4D8               	btfsc	status,2,c
  5886   0025F0  EFFC  F012         	goto	u3851
  5887   0025F4  EFFE  F012         	goto	u3850
  5888   0025F8                     u3851:
  5889   0025F8  EF0E  F013         	goto	l5280
  5890   0025FC                     u3850:
  5891   0025FC  1E21               	comf	(___aomod@dividend+7)^0,f,c
  5892   0025FE  1E20               	comf	(___aomod@dividend+6)^0,f,c
  5893   002600  1E1F               	comf	(___aomod@dividend+5)^0,f,c
  5894   002602  1E1E               	comf	(___aomod@dividend+4)^0,f,c
  5895   002604  1E1D               	comf	(___aomod@dividend+3)^0,f,c
  5896   002606  1E1C               	comf	(___aomod@dividend+2)^0,f,c
  5897   002608  1E1B               	comf	(___aomod@dividend+1)^0,f,c
  5898   00260A  6C1A               	negf	___aomod@dividend^0,c
  5899   00260C  0E00               	movlw	0
  5900   00260E  221B               	addwfc	(___aomod@dividend+1)^0,f,c
  5901   002610  221C               	addwfc	(___aomod@dividend+2)^0,f,c
  5902   002612  221D               	addwfc	(___aomod@dividend+3)^0,f,c
  5903   002614  221E               	addwfc	(___aomod@dividend+4)^0,f,c
  5904   002616  221F               	addwfc	(___aomod@dividend+5)^0,f,c
  5905   002618  2220               	addwfc	(___aomod@dividend+6)^0,f,c
  5906   00261A  2221               	addwfc	(___aomod@dividend+7)^0,f,c
  5907   00261C                     l5280:
  5908   00261C  C01A  F01A         	movff	___aomod@dividend,?___aomod
  5909   002620  C01B  F01B         	movff	___aomod@dividend+1,?___aomod+1
  5910   002624  C01C  F01C         	movff	___aomod@dividend+2,?___aomod+2
  5911   002628  C01D  F01D         	movff	___aomod@dividend+3,?___aomod+3
  5912   00262C  C01E  F01E         	movff	___aomod@dividend+4,?___aomod+4
  5913   002630  C01F  F01F         	movff	___aomod@dividend+5,?___aomod+5
  5914   002634  C020  F020         	movff	___aomod@dividend+6,?___aomod+6
  5915   002638  C021  F021         	movff	___aomod@dividend+7,?___aomod+7
  5916   00263C  0012               	return		;funcret
  5917   00263E                     __end_of___aomod:
  5918                           	callstack 0
  5919                           
  5920 ;; *************** function ___aodiv *****************
  5921 ;; Defined at:
  5922 ;;		line 9 in file "C:\Program Files\Microchip\xc8\v2.40\pic\sources\c99\common\aodiv.c"
  5923 ;; Parameters:    Size  Location     Type
  5924 ;;  dividend        8   25[COMRAM] long long 
  5925 ;;  divisor         8   33[COMRAM] long long 
  5926 ;; Auto vars:     Size  Location     Type
  5927 ;;  quotient        8    2[BANK0 ] long long 
  5928 ;;  sign            1    1[BANK0 ] unsigned char 
  5929 ;;  counter         1    0[BANK0 ] unsigned char 
  5930 ;; Return value:  Size  Location     Type
  5931 ;;                  8   25[COMRAM] long long 
  5932 ;; Registers used:
  5933 ;;		wreg, fsr2l, fsr2h, status,2, status,0
  5934 ;; Tracked objects:
  5935 ;;		On entry : 0/0
  5936 ;;		On exit  : 0/0
  5937 ;;		Unchanged: 0/0
  5938 ;; Data sizes:     COMRAM   BANK0   BANK1   BANK2   BANK3   BANK4   BANK5   BANK6   BANK7   BANK8   BANK9  BANK10  BANK1
      +1  BANK12  BANK13  BANK14
  5939 ;;      Params:        16       0       0       0       0       0       0       0       0       0       0       0       
      +0       0       0       0
  5940 ;;      Locals:         0      10       0       0       0       0       0       0       0       0       0       0       
      +0       0       0       0
  5941 ;;      Temps:          0       0       0       0       0       0       0       0       0       0       0       0       
      +0       0       0       0
  5942 ;;      Totals:        16      10       0       0       0       0       0       0       0       0       0       0       
      +0       0       0       0
  5943 ;;Total ram usage:       26 bytes
  5944 ;; Hardware stack levels used: 1
  5945 ;; Hardware stack levels required when called: 7
  5946 ;; This function calls:
  5947 ;;		Nothing
  5948 ;; This function is called by:
  5949 ;;		_dtoa
  5950 ;; This function uses a non-reentrant model
  5951 ;;
  5952                           
  5953                           	psect	text28
  5954   002350                     __ptext28:
  5955                           	callstack 0
  5956   002350                     ___aodiv:
  5957                           	callstack 19
  5958   002350  0E00               	movlw	0
  5959   002352  0100               	movlb	0	; () banked
  5960   002354  6F61               	movwf	___aodiv@sign& (0+255),b
  5961   002356                     
  5962                           ; BSR set to: 0
  5963   002356  BE29               	btfsc	(___aodiv@divisor+7)^0,7,c
  5964   002358  EFB2  F011         	goto	u3730
  5965   00235C  EFB0  F011         	goto	u3731
  5966   002360                     u3731:
  5967   002360  EFC4  F011         	goto	l5212
  5968   002364                     u3730:
  5969   002364                     
  5970                           ; BSR set to: 0
  5971   002364  1E29               	comf	(___aodiv@divisor+7)^0,f,c
  5972   002366  1E28               	comf	(___aodiv@divisor+6)^0,f,c
  5973   002368  1E27               	comf	(___aodiv@divisor+5)^0,f,c
  5974   00236A  1E26               	comf	(___aodiv@divisor+4)^0,f,c
  5975   00236C  1E25               	comf	(___aodiv@divisor+3)^0,f,c
  5976   00236E  1E24               	comf	(___aodiv@divisor+2)^0,f,c
  5977   002370  1E23               	comf	(___aodiv@divisor+1)^0,f,c
  5978   002372  6C22               	negf	___aodiv@divisor^0,c
  5979   002374  0E00               	movlw	0
  5980   002376  2223               	addwfc	(___aodiv@divisor+1)^0,f,c
  5981   002378  2224               	addwfc	(___aodiv@divisor+2)^0,f,c
  5982   00237A  2225               	addwfc	(___aodiv@divisor+3)^0,f,c
  5983   00237C  2226               	addwfc	(___aodiv@divisor+4)^0,f,c
  5984   00237E  2227               	addwfc	(___aodiv@divisor+5)^0,f,c
  5985   002380  2228               	addwfc	(___aodiv@divisor+6)^0,f,c
  5986   002382  2229               	addwfc	(___aodiv@divisor+7)^0,f,c
  5987   002384                     
  5988                           ; BSR set to: 0
  5989   002384  0E01               	movlw	1
  5990   002386  6F61               	movwf	___aodiv@sign& (0+255),b
  5991   002388                     l5212:
  5992                           
  5993                           ; BSR set to: 0
  5994   002388  BE21               	btfsc	(___aodiv@dividend+7)^0,7,c
  5995   00238A  EFCB  F011         	goto	u3740
  5996   00238E  EFC9  F011         	goto	u3741
  5997   002392                     u3741:
  5998   002392  EFDD  F011         	goto	l5218
  5999   002396                     u3740:
  6000   002396                     
  6001                           ; BSR set to: 0
  6002   002396  1E21               	comf	(___aodiv@dividend+7)^0,f,c
  6003   002398  1E20               	comf	(___aodiv@dividend+6)^0,f,c
  6004   00239A  1E1F               	comf	(___aodiv@dividend+5)^0,f,c
  6005   00239C  1E1E               	comf	(___aodiv@dividend+4)^0,f,c
  6006   00239E  1E1D               	comf	(___aodiv@dividend+3)^0,f,c
  6007   0023A0  1E1C               	comf	(___aodiv@dividend+2)^0,f,c
  6008   0023A2  1E1B               	comf	(___aodiv@dividend+1)^0,f,c
  6009   0023A4  6C1A               	negf	___aodiv@dividend^0,c
  6010   0023A6  0E00               	movlw	0
  6011   0023A8  221B               	addwfc	(___aodiv@dividend+1)^0,f,c
  6012   0023AA  221C               	addwfc	(___aodiv@dividend+2)^0,f,c
  6013   0023AC  221D               	addwfc	(___aodiv@dividend+3)^0,f,c
  6014   0023AE  221E               	addwfc	(___aodiv@dividend+4)^0,f,c
  6015   0023B0  221F               	addwfc	(___aodiv@dividend+5)^0,f,c
  6016   0023B2  2220               	addwfc	(___aodiv@dividend+6)^0,f,c
  6017   0023B4  2221               	addwfc	(___aodiv@dividend+7)^0,f,c
  6018   0023B6                     
  6019                           ; BSR set to: 0
  6020   0023B6  0E01               	movlw	1
  6021   0023B8  1B61               	xorwf	___aodiv@sign& (0+255),f,b
  6022   0023BA                     l5218:
  6023                           
  6024                           ; BSR set to: 0
  6025   0023BA  EE20  F062         	lfsr	2,___aodiv@quotient
  6026   0023BE  0E07               	movlw	7
  6027   0023C0                     u3751:
  6028   0023C0  6ADE               	clrf	postinc2,c
  6029   0023C2  06E8               	decf	wreg,f,c
  6030   0023C4  E2FD               	bc	u3751
  6031   0023C6                     
  6032                           ; BSR set to: 0
  6033   0023C6  5022               	movf	___aodiv@divisor^0,w,c
  6034   0023C8  1023               	iorwf	(___aodiv@divisor+1)^0,w,c
  6035   0023CA  1024               	iorwf	(___aodiv@divisor+2)^0,w,c
  6036   0023CC  1025               	iorwf	(___aodiv@divisor+3)^0,w,c
  6037   0023CE  1026               	iorwf	(___aodiv@divisor+4)^0,w,c
  6038   0023D0  1027               	iorwf	(___aodiv@divisor+5)^0,w,c
  6039   0023D2  1028               	iorwf	(___aodiv@divisor+6)^0,w,c
  6040   0023D4  1029               	iorwf	(___aodiv@divisor+7)^0,w,c
  6041   0023D6  B4D8               	btfsc	status,2,c
  6042   0023D8  EFF0  F011         	goto	u3761
  6043   0023DC  EFF2  F011         	goto	u3760
  6044   0023E0                     u3761:
  6045   0023E0  EF44  F012         	goto	l5240
  6046   0023E4                     u3760:
  6047   0023E4                     
  6048                           ; BSR set to: 0
  6049   0023E4  0E01               	movlw	1
  6050   0023E6  6F60               	movwf	___aodiv@counter& (0+255),b
  6051   0023E8  EF00  F012         	goto	l5226
  6052   0023EC                     l5224:
  6053                           
  6054                           ; BSR set to: 0
  6055   0023EC  90D8               	bcf	status,0,c
  6056   0023EE  3622               	rlcf	___aodiv@divisor^0,f,c
  6057   0023F0  3623               	rlcf	(___aodiv@divisor+1)^0,f,c
  6058   0023F2  3624               	rlcf	(___aodiv@divisor+2)^0,f,c
  6059   0023F4  3625               	rlcf	(___aodiv@divisor+3)^0,f,c
  6060   0023F6  3626               	rlcf	(___aodiv@divisor+4)^0,f,c
  6061   0023F8  3627               	rlcf	(___aodiv@divisor+5)^0,f,c
  6062   0023FA  3628               	rlcf	(___aodiv@divisor+6)^0,f,c
  6063   0023FC  3629               	rlcf	(___aodiv@divisor+7)^0,f,c
  6064   0023FE  2B60               	incf	___aodiv@counter& (0+255),f,b
  6065   002400                     l5226:
  6066                           
  6067                           ; BSR set to: 0
  6068   002400  AE29               	btfss	(___aodiv@divisor+7)^0,7,c
  6069   002402  EF05  F012         	goto	u3771
  6070   002406  EF07  F012         	goto	u3770
  6071   00240A                     u3771:
  6072   00240A  EFF6  F011         	goto	l5224
  6073   00240E                     u3770:
  6074   00240E                     l5228:
  6075                           
  6076                           ; BSR set to: 0
  6077   00240E  90D8               	bcf	status,0,c
  6078   002410  3762               	rlcf	___aodiv@quotient& (0+255),f,b
  6079   002412  3763               	rlcf	(___aodiv@quotient+1)& (0+255),f,b
  6080   002414  3764               	rlcf	(___aodiv@quotient+2)& (0+255),f,b
  6081   002416  3765               	rlcf	(___aodiv@quotient+3)& (0+255),f,b
  6082   002418  3766               	rlcf	(___aodiv@quotient+4)& (0+255),f,b
  6083   00241A  3767               	rlcf	(___aodiv@quotient+5)& (0+255),f,b
  6084   00241C  3768               	rlcf	(___aodiv@quotient+6)& (0+255),f,b
  6085   00241E  3769               	rlcf	(___aodiv@quotient+7)& (0+255),f,b
  6086   002420                     
  6087                           ; BSR set to: 0
  6088   002420  5022               	movf	___aodiv@divisor^0,w,c
  6089   002422  5C1A               	subwf	___aodiv@dividend^0,w,c
  6090   002424  5023               	movf	(___aodiv@divisor+1)^0,w,c
  6091   002426  581B               	subwfb	(___aodiv@dividend+1)^0,w,c
  6092   002428  5024               	movf	(___aodiv@divisor+2)^0,w,c
  6093   00242A  581C               	subwfb	(___aodiv@dividend+2)^0,w,c
  6094   00242C  5025               	movf	(___aodiv@divisor+3)^0,w,c
  6095   00242E  581D               	subwfb	(___aodiv@dividend+3)^0,w,c
  6096   002430  5026               	movf	(___aodiv@divisor+4)^0,w,c
  6097   002432  581E               	subwfb	(___aodiv@dividend+4)^0,w,c
  6098   002434  5027               	movf	(___aodiv@divisor+5)^0,w,c
  6099   002436  581F               	subwfb	(___aodiv@dividend+5)^0,w,c
  6100   002438  5028               	movf	(___aodiv@divisor+6)^0,w,c
  6101   00243A  5820               	subwfb	(___aodiv@dividend+6)^0,w,c
  6102   00243C  5029               	movf	(___aodiv@divisor+7)^0,w,c
  6103   00243E  5821               	subwfb	(___aodiv@dividend+7)^0,w,c
  6104   002440  A0D8               	btfss	status,0,c
  6105   002442  EF25  F012         	goto	u3781
  6106   002446  EF27  F012         	goto	u3780
  6107   00244A                     u3781:
  6108   00244A  EF38  F012         	goto	l5236
  6109   00244E                     u3780:
  6110   00244E                     
  6111                           ; BSR set to: 0
  6112   00244E  5022               	movf	___aodiv@divisor^0,w,c
  6113   002450  5E1A               	subwf	___aodiv@dividend^0,f,c
  6114   002452  5023               	movf	(___aodiv@divisor+1)^0,w,c
  6115   002454  5A1B               	subwfb	(___aodiv@dividend+1)^0,f,c
  6116   002456  5024               	movf	(___aodiv@divisor+2)^0,w,c
  6117   002458  5A1C               	subwfb	(___aodiv@dividend+2)^0,f,c
  6118   00245A  5025               	movf	(___aodiv@divisor+3)^0,w,c
  6119   00245C  5A1D               	subwfb	(___aodiv@dividend+3)^0,f,c
  6120   00245E  5026               	movf	(___aodiv@divisor+4)^0,w,c
  6121   002460  5A1E               	subwfb	(___aodiv@dividend+4)^0,f,c
  6122   002462  5027               	movf	(___aodiv@divisor+5)^0,w,c
  6123   002464  5A1F               	subwfb	(___aodiv@dividend+5)^0,f,c
  6124   002466  5028               	movf	(___aodiv@divisor+6)^0,w,c
  6125   002468  5A20               	subwfb	(___aodiv@dividend+6)^0,f,c
  6126   00246A  5029               	movf	(___aodiv@divisor+7)^0,w,c
  6127   00246C  5A21               	subwfb	(___aodiv@dividend+7)^0,f,c
  6128   00246E                     
  6129                           ; BSR set to: 0
  6130   00246E  8162               	bsf	___aodiv@quotient& (0+255),0,b
  6131   002470                     l5236:
  6132                           
  6133                           ; BSR set to: 0
  6134   002470  90D8               	bcf	status,0,c
  6135   002472  3229               	rrcf	(___aodiv@divisor+7)^0,f,c
  6136   002474  3228               	rrcf	(___aodiv@divisor+6)^0,f,c
  6137   002476  3227               	rrcf	(___aodiv@divisor+5)^0,f,c
  6138   002478  3226               	rrcf	(___aodiv@divisor+4)^0,f,c
  6139   00247A  3225               	rrcf	(___aodiv@divisor+3)^0,f,c
  6140   00247C  3224               	rrcf	(___aodiv@divisor+2)^0,f,c
  6141   00247E  3223               	rrcf	(___aodiv@divisor+1)^0,f,c
  6142   002480  3222               	rrcf	___aodiv@divisor^0,f,c
  6143   002482                     
  6144                           ; BSR set to: 0
  6145   002482  2F60               	decfsz	___aodiv@counter& (0+255),f,b
  6146   002484  EF07  F012         	goto	l5228
  6147   002488                     l5240:
  6148                           
  6149                           ; BSR set to: 0
  6150   002488  5161               	movf	___aodiv@sign& (0+255),w,b
  6151   00248A  B4D8               	btfsc	status,2,c
  6152   00248C  EF4A  F012         	goto	u3791
  6153   002490  EF4C  F012         	goto	u3790
  6154   002494                     u3791:
  6155   002494  EF5C  F012         	goto	l5244
  6156   002498                     u3790:
  6157   002498                     
  6158                           ; BSR set to: 0
  6159   002498  1F69               	comf	(___aodiv@quotient+7)& (0+255),f,b
  6160   00249A  1F68               	comf	(___aodiv@quotient+6)& (0+255),f,b
  6161   00249C  1F67               	comf	(___aodiv@quotient+5)& (0+255),f,b
  6162   00249E  1F66               	comf	(___aodiv@quotient+4)& (0+255),f,b
  6163   0024A0  1F65               	comf	(___aodiv@quotient+3)& (0+255),f,b
  6164   0024A2  1F64               	comf	(___aodiv@quotient+2)& (0+255),f,b
  6165   0024A4  1F63               	comf	(___aodiv@quotient+1)& (0+255),f,b
  6166   0024A6  6D62               	negf	___aodiv@quotient& (0+255),b
  6167   0024A8  0E00               	movlw	0
  6168   0024AA  2363               	addwfc	(___aodiv@quotient+1)& (0+255),f,b
  6169   0024AC  2364               	addwfc	(___aodiv@quotient+2)& (0+255),f,b
  6170   0024AE  2365               	addwfc	(___aodiv@quotient+3)& (0+255),f,b
  6171   0024B0  2366               	addwfc	(___aodiv@quotient+4)& (0+255),f,b
  6172   0024B2  2367               	addwfc	(___aodiv@quotient+5)& (0+255),f,b
  6173   0024B4  2368               	addwfc	(___aodiv@quotient+6)& (0+255),f,b
  6174   0024B6  2369               	addwfc	(___aodiv@quotient+7)& (0+255),f,b
  6175   0024B8                     l5244:
  6176                           
  6177                           ; BSR set to: 0
  6178   0024B8  C062  F01A         	movff	___aodiv@quotient,?___aodiv
  6179   0024BC  C063  F01B         	movff	___aodiv@quotient+1,?___aodiv+1
  6180   0024C0  C064  F01C         	movff	___aodiv@quotient+2,?___aodiv+2
  6181   0024C4  C065  F01D         	movff	___aodiv@quotient+3,?___aodiv+3
  6182   0024C8  C066  F01E         	movff	___aodiv@quotient+4,?___aodiv+4
  6183   0024CC  C067  F01F         	movff	___aodiv@quotient+5,?___aodiv+5
  6184   0024D0  C068  F020         	movff	___aodiv@quotient+6,?___aodiv+6
  6185   0024D4  C069  F021         	movff	___aodiv@quotient+7,?___aodiv+7
  6186   0024D8                     
  6187                           ; BSR set to: 0
  6188   0024D8  0012               	return		;funcret
  6189   0024DA                     __end_of___aodiv:
  6190                           	callstack 0
  6191                           
  6192 ;; *************** function _atoi *****************
  6193 ;; Defined at:
  6194 ;;		line 4 in file "C:\Program Files\Microchip\xc8\v2.40\pic\sources\c99\common\atoi.c"
  6195 ;; Parameters:    Size  Location     Type
  6196 ;;  s               2   31[COMRAM] PTR const unsigned char 
  6197 ;;		 -> STR_1(99), 
  6198 ;; Auto vars:     Size  Location     Type
  6199 ;;  n               2   38[COMRAM] int 
  6200 ;;  neg             2   36[COMRAM] int 
  6201 ;; Return value:  Size  Location     Type
  6202 ;;                  2   31[COMRAM] int 
  6203 ;; Registers used:
  6204 ;;		wreg, status,2, status,0, tblptrl, tblptrh, tblptru, prodl, prodh, cstack
  6205 ;; Tracked objects:
  6206 ;;		On entry : 0/0
  6207 ;;		On exit  : 0/0
  6208 ;;		Unchanged: 0/0
  6209 ;; Data sizes:     COMRAM   BANK0   BANK1   BANK2   BANK3   BANK4   BANK5   BANK6   BANK7   BANK8   BANK9  BANK10  BANK1
      +1  BANK12  BANK13  BANK14
  6210 ;;      Params:         2       0       0       0       0       0       0       0       0       0       0       0       
      +0       0       0       0
  6211 ;;      Locals:         4       0       0       0       0       0       0       0       0       0       0       0       
      +0       0       0       0
  6212 ;;      Temps:          3       0       0       0       0       0       0       0       0       0       0       0       
      +0       0       0       0
  6213 ;;      Totals:         9       0       0       0       0       0       0       0       0       0       0       0       
      +0       0       0       0
  6214 ;;Total ram usage:        9 bytes
  6215 ;; Hardware stack levels used: 1
  6216 ;; Hardware stack levels required when called: 8
  6217 ;; This function calls:
  6218 ;;		___wmul
  6219 ;;		_isdigit
  6220 ;;		_isspace
  6221 ;; This function is called by:
  6222 ;;		_vfpfcnvrt
  6223 ;; This function uses a non-reentrant model
  6224 ;;
  6225                           
  6226                           	psect	text29
  6227   00263E                     __ptext29:
  6228                           	callstack 0
  6229   00263E                     _atoi:
  6230                           	callstack 19
  6231   00263E  0E00               	movlw	0
  6232   002640  6E28               	movwf	(atoi@n+1)^0,c
  6233   002642  0E00               	movlw	0
  6234   002644  6E27               	movwf	atoi@n^0,c
  6235   002646  0E00               	movlw	0
  6236   002648  6E26               	movwf	(atoi@neg+1)^0,c
  6237   00264A  0E00               	movlw	0
  6238   00264C  6E25               	movwf	atoi@neg^0,c
  6239   00264E  EF2B  F013         	goto	l5470
  6240   002652                     l5466:
  6241   002652  4A20               	infsnz	atoi@s^0,f,c
  6242   002654  2A21               	incf	(atoi@s+1)^0,f,c
  6243   002656                     l5470:
  6244   002656  C020  FFF6         	movff	atoi@s,tblptrl
  6245   00265A  C021  FFF7         	movff	atoi@s+1,tblptrh
  6246   00265E                     	if	1	;Program memory is < 0x10000, tblptru is always zero
  6247   00265E  6AF8               	clrf	tblptru,c
  6248   002660                     	endif
  6249   002660                     	if	0	;tblptru may be non-zero
  6250   002660                     	endif
  6251   002660  0008               	tblrd		*
  6252   002662  50F5               	movf	tablat,w,c
  6253   002664  0A20               	xorlw	32
  6254   002666  B4D8               	btfsc	status,2,c
  6255   002668  EF38  F013         	goto	u4181
  6256   00266C  EF3A  F013         	goto	u4180
  6257   002670                     u4181:
  6258   002670  EF29  F013         	goto	l5466
  6259   002674                     u4180:
  6260   002674  C020  FFF6         	movff	atoi@s,tblptrl
  6261   002678  C021  FFF7         	movff	atoi@s+1,tblptrh
  6262   00267C                     	if	1	;Program memory is < 0x10000, tblptru is always zero
  6263   00267C  6AF8               	clrf	tblptru,c
  6264   00267E                     	endif
  6265   00267E                     	if	0	;tblptru may be non-zero
  6266   00267E                     	endif
  6267   00267E  0008               	tblrd		*
  6268   002680  CFF5 F022          	movff	tablat,??_atoi
  6269   002684  0EF7               	movlw	247
  6270   002686  2422               	addwf	??_atoi^0,w,c
  6271   002688  6E23               	movwf	(??_atoi+1)^0,c
  6272   00268A  6A24               	clrf	(??_atoi+2)^0,c
  6273   00268C  0EFF               	movlw	255
  6274   00268E  2224               	addwfc	(??_atoi+2)^0,f,c
  6275   002690  5024               	movf	(??_atoi+2)^0,w,c
  6276   002692  E109               	bnz	u4190
  6277   002694  0E05               	movlw	5
  6278   002696  5C23               	subwf	(??_atoi+1)^0,w,c
  6279   002698  A0D8               	btfss	status,0,c
  6280   00269A  EF51  F013         	goto	u4191
  6281   00269E  EF53  F013         	goto	u4190
  6282   0026A2                     u4191:
  6283   0026A2  EF29  F013         	goto	l5466
  6284   0026A6                     u4190:
  6285   0026A6  EF5D  F013         	goto	l5478
  6286   0026AA                     l5474:
  6287   0026AA  0E00               	movlw	0
  6288   0026AC  6E26               	movwf	(atoi@neg+1)^0,c
  6289   0026AE  0E01               	movlw	1
  6290   0026B0  6E25               	movwf	atoi@neg^0,c
  6291   0026B2                     l5476:
  6292   0026B2  4A20               	infsnz	atoi@s^0,f,c
  6293   0026B4  2A21               	incf	(atoi@s+1)^0,f,c
  6294   0026B6  EF94  F013         	goto	l5486
  6295   0026BA                     l5478:
  6296   0026BA  C020  FFF6         	movff	atoi@s,tblptrl
  6297   0026BE  C021  FFF7         	movff	atoi@s+1,tblptrh
  6298   0026C2                     	if	1	;Program memory is < 0x10000, tblptru is always zero
  6299   0026C2  6AF8               	clrf	tblptru,c
  6300   0026C4                     	endif
  6301   0026C4                     	if	0	;tblptru may be non-zero
  6302   0026C4                     	endif
  6303   0026C4  0008               	tblrd		*
  6304   0026C6  50F5               	movf	tablat,w,c
  6305   0026C8  6E22               	movwf	??_atoi^0,c
  6306   0026CA  6A23               	clrf	(??_atoi+1)^0,c
  6307                           
  6308                           ; Switch on 2 bytes has been partitioned into a top level switch of size 1, and 1 sub-sw
      +                          itches
  6309                           ; Switch size 1, requested type "simple"
  6310                           ; Number of cases is 1, Range of values is 0 to 0
  6311                           ; switch strategies available:
  6312                           ; Name         Instructions Cycles
  6313                           ; simple_byte            4     3 (average)
  6314                           ;	Chosen strategy is simple_byte
  6315   0026CC  5023               	movf	(??_atoi+1)^0,w,c
  6316   0026CE  0A00               	xorlw	0	; case 0
  6317   0026D0  B4D8               	btfsc	status,2,c
  6318   0026D2  EF6D  F013         	goto	l6382
  6319   0026D6  EF94  F013         	goto	l5486
  6320   0026DA                     l6382:
  6321                           
  6322                           ; Switch size 1, requested type "simple"
  6323                           ; Number of cases is 2, Range of values is 43 to 45
  6324                           ; switch strategies available:
  6325                           ; Name         Instructions Cycles
  6326                           ; simple_byte            7     4 (average)
  6327                           ;	Chosen strategy is simple_byte
  6328   0026DA  5022               	movf	??_atoi^0,w,c
  6329   0026DC  0A2B               	xorlw	43	; case 43
  6330   0026DE  B4D8               	btfsc	status,2,c
  6331   0026E0  EF59  F013         	goto	l5476
  6332   0026E4  0A06               	xorlw	6	; case 45
  6333   0026E6  B4D8               	btfsc	status,2,c
  6334   0026E8  EF55  F013         	goto	l5474
  6335   0026EC  EF94  F013         	goto	l5486
  6336   0026F0                     l5480:
  6337   0026F0  C027  F01A         	movff	atoi@n,___wmul@multiplier
  6338   0026F4  C028  F01B         	movff	atoi@n+1,___wmul@multiplier+1
  6339   0026F8  0E00               	movlw	0
  6340   0026FA  6E1D               	movwf	(___wmul@multiplicand+1)^0,c
  6341   0026FC  0E0A               	movlw	10
  6342   0026FE  6E1C               	movwf	___wmul@multiplicand^0,c
  6343   002700  ECA8  F01B         	call	___wmul	;wreg free
  6344   002704  C020  FFF6         	movff	atoi@s,tblptrl
  6345   002708  C021  FFF7         	movff	atoi@s+1,tblptrh
  6346   00270C                     	if	1	;Program memory is < 0x10000, tblptru is always zero
  6347   00270C  6AF8               	clrf	tblptru,c
  6348   00270E                     	endif
  6349   00270E                     	if	0	;tblptru may be non-zero
  6350   00270E                     	endif
  6351   00270E  0008               	tblrd		*
  6352   002710  50F5               	movf	tablat,w,c
  6353   002712  5E1A               	subwf	?___wmul^0,f,c
  6354   002714  0E00               	movlw	0
  6355   002716  5A1B               	subwfb	(?___wmul+1)^0,f,c
  6356   002718  0E30               	movlw	48
  6357   00271A  241A               	addwf	?___wmul^0,w,c
  6358   00271C  6E27               	movwf	atoi@n^0,c
  6359   00271E  0E00               	movlw	0
  6360   002720  201B               	addwfc	(?___wmul+1)^0,w,c
  6361   002722  6E28               	movwf	(atoi@n+1)^0,c
  6362   002724  EF59  F013         	goto	l5476
  6363   002728                     l5486:
  6364   002728  C020  FFF6         	movff	atoi@s,tblptrl
  6365   00272C  C021  FFF7         	movff	atoi@s+1,tblptrh
  6366   002730                     	if	1	;Program memory is < 0x10000, tblptru is always zero
  6367   002730  6AF8               	clrf	tblptru,c
  6368   002732                     	endif
  6369   002732                     	if	0	;tblptru may be non-zero
  6370   002732                     	endif
  6371   002732  0008               	tblrd		*
  6372   002734  CFF5 F022          	movff	tablat,??_atoi
  6373   002738  0ED0               	movlw	208
  6374   00273A  2422               	addwf	??_atoi^0,w,c
  6375   00273C  6E23               	movwf	(??_atoi+1)^0,c
  6376   00273E  6A24               	clrf	(??_atoi+2)^0,c
  6377   002740  0EFF               	movlw	255
  6378   002742  2224               	addwfc	(??_atoi+2)^0,f,c
  6379   002744  5024               	movf	(??_atoi+2)^0,w,c
  6380   002746  E109               	bnz	u4200
  6381   002748  0E0A               	movlw	10
  6382   00274A  5C23               	subwf	(??_atoi+1)^0,w,c
  6383   00274C  A0D8               	btfss	status,0,c
  6384   00274E  EFAB  F013         	goto	u4201
  6385   002752  EFAD  F013         	goto	u4200
  6386   002756                     u4201:
  6387   002756  EF78  F013         	goto	l5480
  6388   00275A                     u4200:
  6389   00275A  5025               	movf	atoi@neg^0,w,c
  6390   00275C  1026               	iorwf	(atoi@neg+1)^0,w,c
  6391   00275E  A4D8               	btfss	status,2,c
  6392   002760  EFB4  F013         	goto	u4211
  6393   002764  EFB6  F013         	goto	u4210
  6394   002768                     u4211:
  6395   002768  EFC4  F013         	goto	l1621
  6396   00276C                     u4210:
  6397   00276C  C027  F022         	movff	atoi@n,??_atoi
  6398   002770  C028  F023         	movff	atoi@n+1,??_atoi+1
  6399   002774  1E22               	comf	??_atoi^0,f,c
  6400   002776  1E23               	comf	(??_atoi+1)^0,f,c
  6401   002778  4A22               	infsnz	??_atoi^0,f,c
  6402   00277A  2A23               	incf	(??_atoi+1)^0,f,c
  6403   00277C  C022  F020         	movff	??_atoi,?_atoi
  6404   002780  C023  F021         	movff	??_atoi+1,?_atoi+1
  6405   002784  EFC8  F013         	goto	l1624
  6406   002788                     l1621:
  6407   002788  C027  F020         	movff	atoi@n,?_atoi
  6408   00278C  C028  F021         	movff	atoi@n+1,?_atoi+1
  6409   002790                     l1624:
  6410   002790  0012               	return		;funcret
  6411   002792                     __end_of_atoi:
  6412                           	callstack 0
  6413                           
  6414 ;; *************** function _isspace *****************
  6415 ;; Defined at:
  6416 ;;		line 5 in file "C:\Program Files\Microchip\xc8\v2.40\pic\sources\c99\common\isspace.c"
  6417 ;; Parameters:    Size  Location     Type
  6418 ;;  c               2   25[COMRAM] int 
  6419 ;; Auto vars:     Size  Location     Type
  6420 ;;		None
  6421 ;; Return value:  Size  Location     Type
  6422 ;;                  2   25[COMRAM] int 
  6423 ;; Registers used:
  6424 ;;		wreg, status,2, status,0
  6425 ;; Tracked objects:
  6426 ;;		On entry : 0/0
  6427 ;;		On exit  : 0/0
  6428 ;;		Unchanged: 0/0
  6429 ;; Data sizes:     COMRAM   BANK0   BANK1   BANK2   BANK3   BANK4   BANK5   BANK6   BANK7   BANK8   BANK9  BANK10  BANK1
      +1  BANK12  BANK13  BANK14
  6430 ;;      Params:         2       0       0       0       0       0       0       0       0       0       0       0       
      +0       0       0       0
  6431 ;;      Locals:         1       0       0       0       0       0       0       0       0       0       0       0       
      +0       0       0       0
  6432 ;;      Temps:          2       0       0       0       0       0       0       0       0       0       0       0       
      +0       0       0       0
  6433 ;;      Totals:         5       0       0       0       0       0       0       0       0       0       0       0       
      +0       0       0       0
  6434 ;;Total ram usage:        5 bytes
  6435 ;; Hardware stack levels used: 1
  6436 ;; Hardware stack levels required when called: 7
  6437 ;; This function calls:
  6438 ;;		Nothing
  6439 ;; This function is called by:
  6440 ;;		_atoi
  6441 ;; This function uses a non-reentrant model
  6442 ;;
  6443                           
  6444                           	psect	text30
  6445   0033EA                     __ptext30:
  6446                           	callstack 0
  6447   0033EA                     _isspace:
  6448                           	callstack 19
  6449   0033EA  0E01               	movlw	1
  6450   0033EC  6E1E               	movwf	_isspace$2530^0,c
  6451   0033EE  0E20               	movlw	32
  6452   0033F0  181A               	xorwf	isspace@c^0,w,c
  6453   0033F2  101B               	iorwf	(isspace@c+1)^0,w,c
  6454   0033F4  B4D8               	btfsc	status,2,c
  6455   0033F6  EFFF  F019         	goto	u4001
  6456   0033FA  EF01  F01A         	goto	u4000
  6457   0033FE                     u4001:
  6458   0033FE  EF14  F01A         	goto	l5356
  6459   003402                     u4000:
  6460   003402  0EF7               	movlw	247
  6461   003404  241A               	addwf	isspace@c^0,w,c
  6462   003406  6E1C               	movwf	??_isspace^0,c
  6463   003408  0EFF               	movlw	255
  6464   00340A  201B               	addwfc	(isspace@c+1)^0,w,c
  6465   00340C  6E1D               	movwf	(??_isspace+1)^0,c
  6466   00340E  501D               	movf	(??_isspace+1)^0,w,c
  6467   003410  E109               	bnz	u4010
  6468   003412  0E05               	movlw	5
  6469   003414  5C1C               	subwf	??_isspace^0,w,c
  6470   003416  A0D8               	btfss	status,0,c
  6471   003418  EF10  F01A         	goto	u4011
  6472   00341C  EF12  F01A         	goto	u4010
  6473   003420                     u4011:
  6474   003420  EF14  F01A         	goto	l5356
  6475   003424                     u4010:
  6476   003424  0E00               	movlw	0
  6477   003426  6E1E               	movwf	_isspace$2530^0,c
  6478   003428                     l5356:
  6479   003428  C01E  F01A         	movff	_isspace$2530,?_isspace
  6480   00342C  6A1B               	clrf	(?_isspace+1)^0,c
  6481   00342E  0012               	return		;funcret
  6482   003430                     __end_of_isspace:
  6483                           	callstack 0
  6484                           
  6485 ;; *************** function _isdigit *****************
  6486 ;; Defined at:
  6487 ;;		line 5 in file "C:\Program Files\Microchip\xc8\v2.40\pic\sources\c99\common\isdigit.c"
  6488 ;; Parameters:    Size  Location     Type
  6489 ;;  c               2   25[COMRAM] int 
  6490 ;; Auto vars:     Size  Location     Type
  6491 ;;		None
  6492 ;; Return value:  Size  Location     Type
  6493 ;;                  2   25[COMRAM] int 
  6494 ;; Registers used:
  6495 ;;		wreg, status,2, status,0
  6496 ;; Tracked objects:
  6497 ;;		On entry : 0/0
  6498 ;;		On exit  : 0/0
  6499 ;;		Unchanged: 0/0
  6500 ;; Data sizes:     COMRAM   BANK0   BANK1   BANK2   BANK3   BANK4   BANK5   BANK6   BANK7   BANK8   BANK9  BANK10  BANK1
      +1  BANK12  BANK13  BANK14
  6501 ;;      Params:         2       0       0       0       0       0       0       0       0       0       0       0       
      +0       0       0       0
  6502 ;;      Locals:         0       0       0       0       0       0       0       0       0       0       0       0       
      +0       0       0       0
  6503 ;;      Temps:          2       0       0       0       0       0       0       0       0       0       0       0       
      +0       0       0       0
  6504 ;;      Totals:         4       0       0       0       0       0       0       0       0       0       0       0       
      +0       0       0       0
  6505 ;;Total ram usage:        4 bytes
  6506 ;; Hardware stack levels used: 1
  6507 ;; Hardware stack levels required when called: 7
  6508 ;; This function calls:
  6509 ;;		Nothing
  6510 ;; This function is called by:
  6511 ;;		_vfpfcnvrt
  6512 ;;		_atoi
  6513 ;; This function uses a non-reentrant model
  6514 ;;
  6515                           
  6516                           	psect	text31
  6517   0035A2                     __ptext31:
  6518                           	callstack 0
  6519   0035A2                     _isdigit:
  6520                           	callstack 20
  6521   0035A2  0ED0               	movlw	208
  6522   0035A4  241A               	addwf	isdigit@c^0,w,c
  6523   0035A6  6E1C               	movwf	??_isdigit^0,c
  6524   0035A8  0EFF               	movlw	255
  6525   0035AA  201B               	addwfc	(isdigit@c+1)^0,w,c
  6526   0035AC  6E1D               	movwf	(??_isdigit+1)^0,c
  6527   0035AE  501D               	movf	(??_isdigit+1)^0,w,c
  6528   0035B0  E10A               	bnz	u3980
  6529   0035B2  0E0A               	movlw	10
  6530   0035B4  5C1C               	subwf	??_isdigit^0,w,c
  6531   0035B6  A0D8               	btfss	status,0,c
  6532   0035B8  EFE0  F01A         	goto	u3981
  6533   0035BC  EFE3  F01A         	goto	u3980
  6534   0035C0                     u3981:
  6535   0035C0  0E01               	movlw	1
  6536   0035C2  EFE4  F01A         	goto	u3990
  6537   0035C6                     u3980:
  6538   0035C6  0E00               	movlw	0
  6539   0035C8                     u3990:
  6540   0035C8  6E1A               	movwf	?_isdigit^0,c
  6541   0035CA  6A1B               	clrf	(?_isdigit+1)^0,c
  6542   0035CC  0012               	return		;funcret
  6543   0035CE                     __end_of_isdigit:
  6544                           	callstack 0
  6545                           
  6546 ;; *************** function ___wmul *****************
  6547 ;; Defined at:
  6548 ;;		line 15 in file "C:\Program Files\Microchip\xc8\v2.40\pic\sources\c99\common\Umul16.c"
  6549 ;; Parameters:    Size  Location     Type
  6550 ;;  multiplier      2   25[COMRAM] unsigned int 
  6551 ;;  multiplicand    2   27[COMRAM] unsigned int 
  6552 ;; Auto vars:     Size  Location     Type
  6553 ;;  product         2   29[COMRAM] unsigned int 
  6554 ;; Return value:  Size  Location     Type
  6555 ;;                  2   25[COMRAM] unsigned int 
  6556 ;; Registers used:
  6557 ;;		wreg, status,2, status,0, prodl, prodh
  6558 ;; Tracked objects:
  6559 ;;		On entry : 0/0
  6560 ;;		On exit  : 0/0
  6561 ;;		Unchanged: 0/0
  6562 ;; Data sizes:     COMRAM   BANK0   BANK1   BANK2   BANK3   BANK4   BANK5   BANK6   BANK7   BANK8   BANK9  BANK10  BANK1
      +1  BANK12  BANK13  BANK14
  6563 ;;      Params:         4       0       0       0       0       0       0       0       0       0       0       0       
      +0       0       0       0
  6564 ;;      Locals:         2       0       0       0       0       0       0       0       0       0       0       0       
      +0       0       0       0
  6565 ;;      Temps:          0       0       0       0       0       0       0       0       0       0       0       0       
      +0       0       0       0
  6566 ;;      Totals:         6       0       0       0       0       0       0       0       0       0       0       0       
      +0       0       0       0
  6567 ;;Total ram usage:        6 bytes
  6568 ;; Hardware stack levels used: 1
  6569 ;; Hardware stack levels required when called: 7
  6570 ;; This function calls:
  6571 ;;		Nothing
  6572 ;; This function is called by:
  6573 ;;		_atoi
  6574 ;; This function uses a non-reentrant model
  6575 ;;
  6576                           
  6577                           	psect	text32
  6578   003750                     __ptext32:
  6579                           	callstack 0
  6580   003750                     ___wmul:
  6581                           	callstack 19
  6582   003750  501A               	movf	___wmul@multiplier^0,w,c
  6583   003752  021C               	mulwf	___wmul@multiplicand^0,c
  6584   003754  CFF3 F01E          	movff	prodl,___wmul@product
  6585   003758  CFF4 F01F          	movff	prodh,___wmul@product+1
  6586   00375C  501A               	movf	___wmul@multiplier^0,w,c
  6587   00375E  021D               	mulwf	(___wmul@multiplicand+1)^0,c
  6588   003760  50F3               	movf	243,w,c
  6589   003762  261F               	addwf	(___wmul@product+1)^0,f,c
  6590   003764  501B               	movf	(___wmul@multiplier+1)^0,w,c
  6591   003766  021C               	mulwf	___wmul@multiplicand^0,c
  6592   003768  50F3               	movf	243,w,c
  6593   00376A  261F               	addwf	(___wmul@product+1)^0,f,c
  6594   00376C  C01E  F01A         	movff	___wmul@product,?___wmul
  6595   003770  C01F  F01B         	movff	___wmul@product+1,?___wmul+1
  6596   003774  0012               	return		;funcret
  6597   003776                     __end_of___wmul:
  6598                           	callstack 0
  6599                           
  6600 ;; *************** function _motorStow *****************
  6601 ;; Defined at:
  6602 ;;		line 96 in file "main.c"
  6603 ;; Parameters:    Size  Location     Type
  6604 ;;		None
  6605 ;; Auto vars:     Size  Location     Type
  6606 ;;		None
  6607 ;; Return value:  Size  Location     Type
  6608 ;;                  1    wreg      void 
  6609 ;; Registers used:
  6610 ;;		wreg, fsr2l, fsr2h, status,2, status,0, prodl, prodh, cstack
  6611 ;; Tracked objects:
  6612 ;;		On entry : 0/0
  6613 ;;		On exit  : 0/0
  6614 ;;		Unchanged: 0/0
  6615 ;; Data sizes:     COMRAM   BANK0   BANK1   BANK2   BANK3   BANK4   BANK5   BANK6   BANK7   BANK8   BANK9  BANK10  BANK1
      +1  BANK12  BANK13  BANK14
  6616 ;;      Params:         0       0       0       0       0       0       0       0       0       0       0       0       
      +0       0       0       0
  6617 ;;      Locals:         0       0       0       0       0       0       0       0       0       0       0       0       
      +0       0       0       0
  6618 ;;      Temps:          2       0       0       0       0       0       0       0       0       0       0       0       
      +0       0       0       0
  6619 ;;      Totals:         2       0       0       0       0       0       0       0       0       0       0       0       
      +0       0       0       0
  6620 ;;Total ram usage:        2 bytes
  6621 ;; Hardware stack levels used: 1
  6622 ;; Hardware stack levels required when called: 12
  6623 ;; This function calls:
  6624 ;;		_motorController
  6625 ;; This function is called by:
  6626 ;;		_main
  6627 ;; This function uses a non-reentrant model
  6628 ;;
  6629                           
  6630                           	psect	text33
  6631   00325C                     __ptext33:
  6632                           	callstack 0
  6633   00325C                     _motorStow:
  6634                           	callstack 18
  6635   00325C                     
  6636                           ;main.c: 97:     motorController(0xC0, 0x3F, 0b10);
  6637   00325C  0E3F               	movlw	63
  6638   00325E  6E26               	movwf	motorController@speed^0,c
  6639   003260  0E02               	movlw	2
  6640   003262  6E27               	movwf	motorController@dir^0,c
  6641   003264  0EC0               	movlw	192
  6642   003266  EC1F  F01C         	call	_motorController
  6643   00326A                     
  6644                           ;main.c: 98:     _delay((unsigned long)((2000)*(16000000/4000.0)));
  6645   00326A  0E29               	movlw	41
  6646   00326C  6E2B               	movwf	(??_motorStow+1)^0,c
  6647   00326E  0E96               	movlw	150
  6648   003270  6E2A               	movwf	??_motorStow^0,c
  6649   003272  0E7F               	movlw	127
  6650   003274                     u5177:
  6651   003274  2EE8               	decfsz	wreg,f,c
  6652   003276  D7FE               	bra	u5177
  6653   003278  2E2A               	decfsz	??_motorStow^0,f,c
  6654   00327A  D7FC               	bra	u5177
  6655   00327C  2E2B               	decfsz	(??_motorStow+1)^0,f,c
  6656   00327E  D7FA               	bra	u5177
  6657   003280  F000               	nop	
  6658   003282                     
  6659                           ;main.c: 99:     motorController(0xD0, 0x3F, 0b10);
  6660   003282  0E3F               	movlw	63
  6661   003284  6E26               	movwf	motorController@speed^0,c
  6662   003286  0E02               	movlw	2
  6663   003288  6E27               	movwf	motorController@dir^0,c
  6664   00328A  0ED0               	movlw	208
  6665   00328C  EC1F  F01C         	call	_motorController
  6666   003290                     
  6667                           ;main.c: 100:     motorController(0xD0, 0x3F, 0b00);
  6668   003290  0E3F               	movlw	63
  6669   003292  6E26               	movwf	motorController@speed^0,c
  6670   003294  0E00               	movlw	0
  6671   003296  6E27               	movwf	motorController@dir^0,c
  6672   003298  0ED0               	movlw	208
  6673   00329A  EC1F  F01C         	call	_motorController
  6674   00329E                     
  6675                           ;main.c: 102:     motorController(0xC0, 0x3F, 0b01);
  6676   00329E  0E3F               	movlw	63
  6677   0032A0  6E26               	movwf	motorController@speed^0,c
  6678   0032A2  0E01               	movlw	1
  6679   0032A4  6E27               	movwf	motorController@dir^0,c
  6680   0032A6  0EC0               	movlw	192
  6681   0032A8  EC1F  F01C         	call	_motorController
  6682                           
  6683                           ;main.c: 103:     _delay((unsigned long)((2000)*(16000000/4000.0)));
  6684   0032AC  0E29               	movlw	41
  6685   0032AE  6E2B               	movwf	(??_motorStow+1)^0,c
  6686   0032B0  0E96               	movlw	150
  6687   0032B2  6E2A               	movwf	??_motorStow^0,c
  6688   0032B4  0E7F               	movlw	127
  6689   0032B6                     u5187:
  6690   0032B6  2EE8               	decfsz	wreg,f,c
  6691   0032B8  D7FE               	bra	u5187
  6692   0032BA  2E2A               	decfsz	??_motorStow^0,f,c
  6693   0032BC  D7FC               	bra	u5187
  6694   0032BE  2E2B               	decfsz	(??_motorStow+1)^0,f,c
  6695   0032C0  D7FA               	bra	u5187
  6696   0032C2  F000               	nop	
  6697   0032C4  0012               	return		;funcret
  6698   0032C6                     __end_of_motorStow:
  6699                           	callstack 0
  6700                           
  6701 ;; *************** function _motorFaultRead *****************
  6702 ;; Defined at:
  6703 ;;		line 106 in file "main.c"
  6704 ;; Parameters:    Size  Location     Type
  6705 ;;  address         1    wreg     unsigned char 
  6706 ;; Auto vars:     Size  Location     Type
  6707 ;;  address         1   37[COMRAM] unsigned char 
  6708 ;; Return value:  Size  Location     Type
  6709 ;;                  1    wreg      unsigned char 
  6710 ;; Registers used:
  6711 ;;		wreg, fsr2l, fsr2h, status,2, status,0, prodl, prodh, cstack
  6712 ;; Tracked objects:
  6713 ;;		On entry : 0/0
  6714 ;;		On exit  : 0/0
  6715 ;;		Unchanged: 0/0
  6716 ;; Data sizes:     COMRAM   BANK0   BANK1   BANK2   BANK3   BANK4   BANK5   BANK6   BANK7   BANK8   BANK9  BANK10  BANK1
      +1  BANK12  BANK13  BANK14
  6717 ;;      Params:         0       0       0       0       0       0       0       0       0       0       0       0       
      +0       0       0       0
  6718 ;;      Locals:         1       0       0       0       0       0       0       0       0       0       0       0       
      +0       0       0       0
  6719 ;;      Temps:          0       0       0       0       0       0       0       0       0       0       0       0       
      +0       0       0       0
  6720 ;;      Totals:         1       0       0       0       0       0       0       0       0       0       0       0       
      +0       0       0       0
  6721 ;;Total ram usage:        1 bytes
  6722 ;; Hardware stack levels used: 1
  6723 ;; Hardware stack levels required when called: 11
  6724 ;; This function calls:
  6725 ;;		_I2C1_Read1ByteRegister
  6726 ;; This function is called by:
  6727 ;;		_main
  6728 ;; This function uses a non-reentrant model
  6729 ;;
  6730                           
  6731                           	psect	text34
  6732   003936                     __ptext34:
  6733                           	callstack 0
  6734   003936                     _motorFaultRead:
  6735                           	callstack 19
  6736                           
  6737                           ;incstack = 0
  6738                           ;motorFaultRead@address stored from wreg
  6739   003936  6E26               	movwf	motorFaultRead@address^0,c
  6740   003938                     
  6741                           ;main.c: 107:     return I2C1_Read1ByteRegister(address, 0x01);
  6742   003938  0E01               	movlw	1
  6743   00393A  6E23               	movwf	I2C1_Read1ByteRegister@reg^0,c
  6744   00393C  5026               	movf	motorFaultRead@address^0,w,c
  6745   00393E  EC4E  F018         	call	_I2C1_Read1ByteRegister
  6746   003942  0012               	return		;funcret
  6747   003944                     __end_of_motorFaultRead:
  6748                           	callstack 0
  6749                           
  6750 ;; *************** function _I2C1_Read1ByteRegister *****************
  6751 ;; Defined at:
  6752 ;;		line 63 in file "mcc_generated_files/examples/i2c1_master_example.c"
  6753 ;; Parameters:    Size  Location     Type
  6754 ;;  address         1    wreg     unsigned char 
  6755 ;;  reg             1   34[COMRAM] unsigned char 
  6756 ;; Auto vars:     Size  Location     Type
  6757 ;;  address         1   35[COMRAM] unsigned char 
  6758 ;;  returnValue     1   36[COMRAM] unsigned char 
  6759 ;; Return value:  Size  Location     Type
  6760 ;;                  1    wreg      unsigned char 
  6761 ;; Registers used:
  6762 ;;		wreg, fsr2l, fsr2h, status,2, status,0, prodl, prodh, cstack
  6763 ;; Tracked objects:
  6764 ;;		On entry : 0/0
  6765 ;;		On exit  : 0/0
  6766 ;;		Unchanged: 0/0
  6767 ;; Data sizes:     COMRAM   BANK0   BANK1   BANK2   BANK3   BANK4   BANK5   BANK6   BANK7   BANK8   BANK9  BANK10  BANK1
      +1  BANK12  BANK13  BANK14
  6768 ;;      Params:         1       0       0       0       0       0       0       0       0       0       0       0       
      +0       0       0       0
  6769 ;;      Locals:         2       0       0       0       0       0       0       0       0       0       0       0       
      +0       0       0       0
  6770 ;;      Temps:          0       0       0       0       0       0       0       0       0       0       0       0       
      +0       0       0       0
  6771 ;;      Totals:         3       0       0       0       0       0       0       0       0       0       0       0       
      +0       0       0       0
  6772 ;;Total ram usage:        3 bytes
  6773 ;; Hardware stack levels used: 1
  6774 ;; Hardware stack levels required when called: 10
  6775 ;; This function calls:
  6776 ;;		_I2C1_Close
  6777 ;;		_I2C1_MasterWrite
  6778 ;;		_I2C1_Open
  6779 ;;		_I2C1_SetAddressNackCallback
  6780 ;;		_I2C1_SetBuffer
  6781 ;;		_I2C1_SetDataCompleteCallback
  6782 ;; This function is called by:
  6783 ;;		_motorFaultRead
  6784 ;;		_hallRead
  6785 ;;		_tempRead
  6786 ;; This function uses a non-reentrant model
  6787 ;;
  6788                           
  6789                           	psect	text35
  6790   00309C                     __ptext35:
  6791                           	callstack 0
  6792   00309C                     _I2C1_Read1ByteRegister:
  6793                           	callstack 17
  6794                           
  6795                           ;incstack = 0
  6796                           ;I2C1_Read1ByteRegister@address stored from wreg
  6797   00309C  6E24               	movwf	I2C1_Read1ByteRegister@address^0,c
  6798   00309E                     
  6799                           ;mcc_generated_files/examples/i2c1_master_example.c: 63: uint8_t I2C1_Read1ByteRegister(
      +                          i2c1_address_t address, uint8_t reg);mcc_generated_files/examples/i2c1_master_example.c:
      +                           64: {;mcc_generated_files/examples/i2c1_master_example.c: 65:     uint8_t returnValue =
      +                           0x00;
  6800   00309E  0E00               	movlw	0
  6801   0030A0  6E25               	movwf	I2C1_Read1ByteRegister@returnValue^0,c
  6802   0030A2                     l5362:
  6803   0030A2  5024               	movf	I2C1_Read1ByteRegister@address^0,w,c
  6804   0030A4  ECC2  F016         	call	_I2C1_Open
  6805   0030A8  0900               	iorlw	0
  6806   0030AA  B4D8               	btfsc	status,2,c
  6807   0030AC  EF5A  F018         	goto	u4021
  6808   0030B0  EF5C  F018         	goto	u4020
  6809   0030B4                     u4021:
  6810   0030B4  EF51  F018         	goto	l5362
  6811   0030B8                     u4020:
  6812   0030B8                     
  6813                           ;mcc_generated_files/examples/i2c1_master_example.c: 68:     I2C1_SetDataCompleteCallbac
      +                          k(rd1RegCompleteHandler,&returnValue);
  6814   0030B8  0E52               	movlw	low _rd1RegCompleteHandler
  6815   0030BA  6E1F               	movwf	I2C1_SetDataCompleteCallback@cb^0,c
  6816   0030BC  0E36               	movlw	high _rd1RegCompleteHandler
  6817   0030BE  6E20               	movwf	(I2C1_SetDataCompleteCallback@cb+1)^0,c
  6818   0030C0  0E25               	movlw	low I2C1_Read1ByteRegister@returnValue
  6819   0030C2  6E21               	movwf	I2C1_SetDataCompleteCallback@ptr^0,c
  6820   0030C4  0E00               	movlw	high I2C1_Read1ByteRegister@returnValue
  6821   0030C6  6E22               	movwf	(I2C1_SetDataCompleteCallback@ptr+1)^0,c
  6822   0030C8  EC47  F01C         	call	_I2C1_SetDataCompleteCallback	;wreg free
  6823   0030CC                     
  6824                           ;mcc_generated_files/examples/i2c1_master_example.c: 69:     I2C1_SetBuffer(&reg,1);
  6825   0030CC  0E23               	movlw	low I2C1_Read1ByteRegister@reg
  6826   0030CE  6E1A               	movwf	I2C1_SetBuffer@buffer^0,c
  6827   0030D0  0E00               	movlw	high I2C1_Read1ByteRegister@reg
  6828   0030D2  6E1B               	movwf	(I2C1_SetBuffer@buffer+1)^0,c
  6829   0030D4  0E00               	movlw	0
  6830   0030D6  6E1D               	movwf	(I2C1_SetBuffer@bufferSize+1)^0,c
  6831   0030D8  0E01               	movlw	1
  6832   0030DA  6E1C               	movwf	I2C1_SetBuffer@bufferSize^0,c
  6833   0030DC  ECBB  F01B         	call	_I2C1_SetBuffer	;wreg free
  6834   0030E0                     
  6835                           ;mcc_generated_files/examples/i2c1_master_example.c: 70:     I2C1_SetAddressNackCallback
      +                          (((void*)0),((void*)0));
  6836   0030E0  0E00               	movlw	0
  6837   0030E2  6E1F               	movwf	I2C1_SetAddressNackCallback@cb^0,c
  6838   0030E4  0E00               	movlw	0
  6839   0030E6  6E20               	movwf	(I2C1_SetAddressNackCallback@cb+1)^0,c
  6840   0030E8  0E00               	movlw	0
  6841   0030EA  6E21               	movwf	I2C1_SetAddressNackCallback@ptr^0,c
  6842   0030EC  0E00               	movlw	0
  6843   0030EE  6E22               	movwf	(I2C1_SetAddressNackCallback@ptr+1)^0,c
  6844   0030F0  EC53  F01C         	call	_I2C1_SetAddressNackCallback	;wreg free
  6845   0030F4                     
  6846                           ;mcc_generated_files/examples/i2c1_master_example.c: 71:     I2C1_MasterWrite();
  6847   0030F4  ECD7  F01C         	call	_I2C1_MasterWrite	;wreg free
  6848   0030F8                     l5372:
  6849   0030F8  ECE7  F01A         	call	_I2C1_Close	;wreg free
  6850   0030FC  06E8               	decf	wreg,f,c
  6851   0030FE  B4D8               	btfsc	status,2,c
  6852   003100  EF84  F018         	goto	u4031
  6853   003104  EF86  F018         	goto	u4030
  6854   003108                     u4031:
  6855   003108  EF7C  F018         	goto	l5372
  6856   00310C                     u4030:
  6857   00310C                     
  6858                           ;mcc_generated_files/examples/i2c1_master_example.c: 74:     return returnValue;
  6859   00310C  5025               	movf	I2C1_Read1ByteRegister@returnValue^0,w,c
  6860   00310E  0012               	return		;funcret
  6861   003110                     __end_of_I2C1_Read1ByteRegister:
  6862                           	callstack 0
  6863                           
  6864 ;; *************** function _motorDeploy *****************
  6865 ;; Defined at:
  6866 ;;		line 86 in file "main.c"
  6867 ;; Parameters:    Size  Location     Type
  6868 ;;		None
  6869 ;; Auto vars:     Size  Location     Type
  6870 ;;		None
  6871 ;; Return value:  Size  Location     Type
  6872 ;;                  1    wreg      void 
  6873 ;; Registers used:
  6874 ;;		wreg, fsr2l, fsr2h, status,2, status,0, prodl, prodh, cstack
  6875 ;; Tracked objects:
  6876 ;;		On entry : 0/0
  6877 ;;		On exit  : 0/0
  6878 ;;		Unchanged: 0/0
  6879 ;; Data sizes:     COMRAM   BANK0   BANK1   BANK2   BANK3   BANK4   BANK5   BANK6   BANK7   BANK8   BANK9  BANK10  BANK1
      +1  BANK12  BANK13  BANK14
  6880 ;;      Params:         0       0       0       0       0       0       0       0       0       0       0       0       
      +0       0       0       0
  6881 ;;      Locals:         0       0       0       0       0       0       0       0       0       0       0       0       
      +0       0       0       0
  6882 ;;      Temps:          2       0       0       0       0       0       0       0       0       0       0       0       
      +0       0       0       0
  6883 ;;      Totals:         2       0       0       0       0       0       0       0       0       0       0       0       
      +0       0       0       0
  6884 ;;Total ram usage:        2 bytes
  6885 ;; Hardware stack levels used: 1
  6886 ;; Hardware stack levels required when called: 12
  6887 ;; This function calls:
  6888 ;;		_motorController
  6889 ;; This function is called by:
  6890 ;;		_main
  6891 ;; This function uses a non-reentrant model
  6892 ;;
  6893                           
  6894                           	psect	text36
  6895   0032C6                     __ptext36:
  6896                           	callstack 0
  6897   0032C6                     _motorDeploy:
  6898                           	callstack 18
  6899   0032C6                     
  6900                           ;main.c: 87:     motorController(0xC0, 0x3F, 0b01);
  6901   0032C6  0E3F               	movlw	63
  6902   0032C8  6E26               	movwf	motorController@speed^0,c
  6903   0032CA  0E01               	movlw	1
  6904   0032CC  6E27               	movwf	motorController@dir^0,c
  6905   0032CE  0EC0               	movlw	192
  6906   0032D0  EC1F  F01C         	call	_motorController
  6907   0032D4                     
  6908                           ;main.c: 88:     _delay((unsigned long)((2000)*(16000000/4000.0)));
  6909   0032D4  0E29               	movlw	41
  6910   0032D6  6E2B               	movwf	(??_motorDeploy+1)^0,c
  6911   0032D8  0E96               	movlw	150
  6912   0032DA  6E2A               	movwf	??_motorDeploy^0,c
  6913   0032DC  0E7F               	movlw	127
  6914   0032DE                     u5197:
  6915   0032DE  2EE8               	decfsz	wreg,f,c
  6916   0032E0  D7FE               	bra	u5197
  6917   0032E2  2E2A               	decfsz	??_motorDeploy^0,f,c
  6918   0032E4  D7FC               	bra	u5197
  6919   0032E6  2E2B               	decfsz	(??_motorDeploy+1)^0,f,c
  6920   0032E8  D7FA               	bra	u5197
  6921   0032EA  F000               	nop	
  6922   0032EC                     
  6923                           ;main.c: 89:     motorController(0xD0, 0x3F, 0b10);
  6924   0032EC  0E3F               	movlw	63
  6925   0032EE  6E26               	movwf	motorController@speed^0,c
  6926   0032F0  0E02               	movlw	2
  6927   0032F2  6E27               	movwf	motorController@dir^0,c
  6928   0032F4  0ED0               	movlw	208
  6929   0032F6  EC1F  F01C         	call	_motorController
  6930   0032FA                     
  6931                           ;main.c: 90:     motorController(0xD0, 0x3F, 0b00);
  6932   0032FA  0E3F               	movlw	63
  6933   0032FC  6E26               	movwf	motorController@speed^0,c
  6934   0032FE  0E00               	movlw	0
  6935   003300  6E27               	movwf	motorController@dir^0,c
  6936   003302  0ED0               	movlw	208
  6937   003304  EC1F  F01C         	call	_motorController
  6938   003308                     
  6939                           ;main.c: 92:     motorController(0xC0, 0x3F, 0b10);
  6940   003308  0E3F               	movlw	63
  6941   00330A  6E26               	movwf	motorController@speed^0,c
  6942   00330C  0E02               	movlw	2
  6943   00330E  6E27               	movwf	motorController@dir^0,c
  6944   003310  0EC0               	movlw	192
  6945   003312  EC1F  F01C         	call	_motorController
  6946                           
  6947                           ;main.c: 93:     _delay((unsigned long)((2000)*(16000000/4000.0)));
  6948   003316  0E29               	movlw	41
  6949   003318  6E2B               	movwf	(??_motorDeploy+1)^0,c
  6950   00331A  0E96               	movlw	150
  6951   00331C  6E2A               	movwf	??_motorDeploy^0,c
  6952   00331E  0E7F               	movlw	127
  6953   003320                     u5207:
  6954   003320  2EE8               	decfsz	wreg,f,c
  6955   003322  D7FE               	bra	u5207
  6956   003324  2E2A               	decfsz	??_motorDeploy^0,f,c
  6957   003326  D7FC               	bra	u5207
  6958   003328  2E2B               	decfsz	(??_motorDeploy+1)^0,f,c
  6959   00332A  D7FA               	bra	u5207
  6960   00332C  F000               	nop	
  6961   00332E  0012               	return		;funcret
  6962   003330                     __end_of_motorDeploy:
  6963                           	callstack 0
  6964                           
  6965 ;; *************** function _motorController *****************
  6966 ;; Defined at:
  6967 ;;		line 81 in file "main.c"
  6968 ;; Parameters:    Size  Location     Type
  6969 ;;  address         1    wreg     unsigned char 
  6970 ;;  speed           1   37[COMRAM] unsigned char 
  6971 ;;  dir             1   38[COMRAM] unsigned char 
  6972 ;; Auto vars:     Size  Location     Type
  6973 ;;  address         1   39[COMRAM] unsigned char 
  6974 ;;  data            1   40[COMRAM] unsigned char 
  6975 ;; Return value:  Size  Location     Type
  6976 ;;                  1    wreg      void 
  6977 ;; Registers used:
  6978 ;;		wreg, fsr2l, fsr2h, status,2, status,0, prodl, prodh, cstack
  6979 ;; Tracked objects:
  6980 ;;		On entry : 0/0
  6981 ;;		On exit  : 0/0
  6982 ;;		Unchanged: 0/0
  6983 ;; Data sizes:     COMRAM   BANK0   BANK1   BANK2   BANK3   BANK4   BANK5   BANK6   BANK7   BANK8   BANK9  BANK10  BANK1
      +1  BANK12  BANK13  BANK14
  6984 ;;      Params:         2       0       0       0       0       0       0       0       0       0       0       0       
      +0       0       0       0
  6985 ;;      Locals:         2       0       0       0       0       0       0       0       0       0       0       0       
      +0       0       0       0
  6986 ;;      Temps:          0       0       0       0       0       0       0       0       0       0       0       0       
      +0       0       0       0
  6987 ;;      Totals:         4       0       0       0       0       0       0       0       0       0       0       0       
      +0       0       0       0
  6988 ;;Total ram usage:        4 bytes
  6989 ;; Hardware stack levels used: 1
  6990 ;; Hardware stack levels required when called: 11
  6991 ;; This function calls:
  6992 ;;		_I2C1_Write1ByteRegister
  6993 ;; This function is called by:
  6994 ;;		_motorDeploy
  6995 ;;		_motorStow
  6996 ;;		_system_init
  6997 ;; This function uses a non-reentrant model
  6998 ;;
  6999                           
  7000                           	psect	text37
  7001   00383E                     __ptext37:
  7002                           	callstack 0
  7003   00383E                     _motorController:
  7004                           	callstack 18
  7005                           
  7006                           ;incstack = 0
  7007                           ;motorController@address stored from wreg
  7008   00383E  6E28               	movwf	motorController@address^0,c
  7009   003840                     
  7010                           ;main.c: 82:     uint8_t data = speed << 2 | dir;
  7011   003840  4426               	rlncf	motorController@speed^0,w,c
  7012   003842  46E8               	rlncf	wreg,f,c
  7013   003844  0BFC               	andlw	252
  7014   003846  1027               	iorwf	motorController@dir^0,w,c
  7015   003848  6E29               	movwf	motorController@data^0,c
  7016   00384A                     
  7017                           ;main.c: 83:     I2C1_Write1ByteRegister(address, 0x00, data);
  7018   00384A  0E00               	movlw	0
  7019   00384C  6E23               	movwf	I2C1_Write1ByteRegister@reg^0,c
  7020   00384E  C029  F024         	movff	motorController@data,I2C1_Write1ByteRegister@data
  7021   003852  5028               	movf	motorController@address^0,w,c
  7022   003854  ECC0  F018         	call	_I2C1_Write1ByteRegister
  7023   003858  0012               	return		;funcret
  7024   00385A                     __end_of_motorController:
  7025                           	callstack 0
  7026                           
  7027 ;; *************** function _I2C1_Write1ByteRegister *****************
  7028 ;; Defined at:
  7029 ;;		line 91 in file "mcc_generated_files/examples/i2c1_master_example.c"
  7030 ;; Parameters:    Size  Location     Type
  7031 ;;  address         1    wreg     unsigned char 
  7032 ;;  reg             1   34[COMRAM] unsigned char 
  7033 ;;  data            1   35[COMRAM] unsigned char 
  7034 ;; Auto vars:     Size  Location     Type
  7035 ;;  address         1   36[COMRAM] unsigned char 
  7036 ;; Return value:  Size  Location     Type
  7037 ;;                  1    wreg      void 
  7038 ;; Registers used:
  7039 ;;		wreg, fsr2l, fsr2h, status,2, status,0, prodl, prodh, cstack
  7040 ;; Tracked objects:
  7041 ;;		On entry : 0/0
  7042 ;;		On exit  : 0/0
  7043 ;;		Unchanged: 0/0
  7044 ;; Data sizes:     COMRAM   BANK0   BANK1   BANK2   BANK3   BANK4   BANK5   BANK6   BANK7   BANK8   BANK9  BANK10  BANK1
      +1  BANK12  BANK13  BANK14
  7045 ;;      Params:         2       0       0       0       0       0       0       0       0       0       0       0       
      +0       0       0       0
  7046 ;;      Locals:         1       0       0       0       0       0       0       0       0       0       0       0       
      +0       0       0       0
  7047 ;;      Temps:          0       0       0       0       0       0       0       0       0       0       0       0       
      +0       0       0       0
  7048 ;;      Totals:         3       0       0       0       0       0       0       0       0       0       0       0       
      +0       0       0       0
  7049 ;;Total ram usage:        3 bytes
  7050 ;; Hardware stack levels used: 1
  7051 ;; Hardware stack levels required when called: 10
  7052 ;; This function calls:
  7053 ;;		_I2C1_Close
  7054 ;;		_I2C1_MasterWrite
  7055 ;;		_I2C1_Open
  7056 ;;		_I2C1_SetAddressNackCallback
  7057 ;;		_I2C1_SetBuffer
  7058 ;;		_I2C1_SetDataCompleteCallback
  7059 ;; This function is called by:
  7060 ;;		_motorController
  7061 ;; This function uses a non-reentrant model
  7062 ;;
  7063                           
  7064                           	psect	text38
  7065   003180                     __ptext38:
  7066                           	callstack 0
  7067   003180                     _I2C1_Write1ByteRegister:
  7068                           	callstack 18
  7069                           
  7070                           ;incstack = 0
  7071                           ;I2C1_Write1ByteRegister@address stored from wreg
  7072   003180  6E25               	movwf	I2C1_Write1ByteRegister@address^0,c
  7073   003182                     l5498:
  7074   003182  5025               	movf	I2C1_Write1ByteRegister@address^0,w,c
  7075   003184  ECC2  F016         	call	_I2C1_Open
  7076   003188  0900               	iorlw	0
  7077   00318A  B4D8               	btfsc	status,2,c
  7078   00318C  EFCA  F018         	goto	u4221
  7079   003190  EFCC  F018         	goto	u4220
  7080   003194                     u4221:
  7081   003194  EFC1  F018         	goto	l5498
  7082   003198                     u4220:
  7083   003198                     
  7084                           ;mcc_generated_files/examples/i2c1_master_example.c: 94:     I2C1_SetDataCompleteCallbac
      +                          k(wr1RegCompleteHandler,&data);
  7085   003198  0EFA               	movlw	low _wr1RegCompleteHandler
  7086   00319A  6E1F               	movwf	I2C1_SetDataCompleteCallback@cb^0,c
  7087   00319C  0E35               	movlw	high _wr1RegCompleteHandler
  7088   00319E  6E20               	movwf	(I2C1_SetDataCompleteCallback@cb+1)^0,c
  7089   0031A0  0E24               	movlw	low I2C1_Write1ByteRegister@data
  7090   0031A2  6E21               	movwf	I2C1_SetDataCompleteCallback@ptr^0,c
  7091   0031A4  0E00               	movlw	high I2C1_Write1ByteRegister@data
  7092   0031A6  6E22               	movwf	(I2C1_SetDataCompleteCallback@ptr+1)^0,c
  7093   0031A8  EC47  F01C         	call	_I2C1_SetDataCompleteCallback	;wreg free
  7094   0031AC                     
  7095                           ;mcc_generated_files/examples/i2c1_master_example.c: 95:     I2C1_SetBuffer(&reg,1);
  7096   0031AC  0E23               	movlw	low I2C1_Write1ByteRegister@reg
  7097   0031AE  6E1A               	movwf	I2C1_SetBuffer@buffer^0,c
  7098   0031B0  0E00               	movlw	high I2C1_Write1ByteRegister@reg
  7099   0031B2  6E1B               	movwf	(I2C1_SetBuffer@buffer+1)^0,c
  7100   0031B4  0E00               	movlw	0
  7101   0031B6  6E1D               	movwf	(I2C1_SetBuffer@bufferSize+1)^0,c
  7102   0031B8  0E01               	movlw	1
  7103   0031BA  6E1C               	movwf	I2C1_SetBuffer@bufferSize^0,c
  7104   0031BC  ECBB  F01B         	call	_I2C1_SetBuffer	;wreg free
  7105   0031C0                     
  7106                           ;mcc_generated_files/examples/i2c1_master_example.c: 96:     I2C1_SetAddressNackCallback
      +                          (((void*)0),((void*)0));
  7107   0031C0  0E00               	movlw	0
  7108   0031C2  6E1F               	movwf	I2C1_SetAddressNackCallback@cb^0,c
  7109   0031C4  0E00               	movlw	0
  7110   0031C6  6E20               	movwf	(I2C1_SetAddressNackCallback@cb+1)^0,c
  7111   0031C8  0E00               	movlw	0
  7112   0031CA  6E21               	movwf	I2C1_SetAddressNackCallback@ptr^0,c
  7113   0031CC  0E00               	movlw	0
  7114   0031CE  6E22               	movwf	(I2C1_SetAddressNackCallback@ptr+1)^0,c
  7115   0031D0  EC53  F01C         	call	_I2C1_SetAddressNackCallback	;wreg free
  7116   0031D4                     
  7117                           ;mcc_generated_files/examples/i2c1_master_example.c: 97:     I2C1_MasterWrite();
  7118   0031D4  ECD7  F01C         	call	_I2C1_MasterWrite	;wreg free
  7119   0031D8                     l5508:
  7120   0031D8  ECE7  F01A         	call	_I2C1_Close	;wreg free
  7121   0031DC  06E8               	decf	wreg,f,c
  7122   0031DE  B4D8               	btfsc	status,2,c
  7123   0031E0  EFF4  F018         	goto	u4231
  7124   0031E4  EFF6  F018         	goto	u4230
  7125   0031E8                     u4231:
  7126   0031E8  EFEC  F018         	goto	l5508
  7127   0031EC                     u4230:
  7128   0031EC  0012               	return		;funcret
  7129   0031EE                     __end_of_I2C1_Write1ByteRegister:
  7130                           	callstack 0
  7131                           
  7132 ;; *************** function _I2C1_SetDataCompleteCallback *****************
  7133 ;; Defined at:
  7134 ;;		line 274 in file "mcc_generated_files/i2c1_master.c"
  7135 ;; Parameters:    Size  Location     Type
  7136 ;;  cb              2   30[COMRAM] PTR FTN(PTR void ,)enum 
  7137 ;;		 -> Absolute function(1), rdBlkRegCompleteHandler(1), wr2RegCompleteHandler(1), wr1RegCompleteHandler(1), 
  7138 ;;		 -> rd2RegCompleteHandler(1), rd1RegCompleteHandler(1), 
  7139 ;;  ptr             2   32[COMRAM] PTR void 
  7140 ;;		 -> I2C1_ReadDataBlock@bufferBlock(4), I2C1_Write2ByteRegister@data(2), I2C1_Write1ByteRegister@data(1), I2C1_Read2B
      +yteRegister@returnValue(2), 
  7141 ;;		 -> NULL(0), I2C1_Read1ByteRegister@returnValue(1), 
  7142 ;; Auto vars:     Size  Location     Type
  7143 ;;		None
  7144 ;; Return value:  Size  Location     Type
  7145 ;;                  1    wreg      void 
  7146 ;; Registers used:
  7147 ;;		wreg, fsr2l, fsr2h, status,2, status,0, prodl, prodh, cstack
  7148 ;; Tracked objects:
  7149 ;;		On entry : 0/0
  7150 ;;		On exit  : 0/0
  7151 ;;		Unchanged: 0/0
  7152 ;; Data sizes:     COMRAM   BANK0   BANK1   BANK2   BANK3   BANK4   BANK5   BANK6   BANK7   BANK8   BANK9  BANK10  BANK1
      +1  BANK12  BANK13  BANK14
  7153 ;;      Params:         4       0       0       0       0       0       0       0       0       0       0       0       
      +0       0       0       0
  7154 ;;      Locals:         0       0       0       0       0       0       0       0       0       0       0       0       
      +0       0       0       0
  7155 ;;      Temps:          0       0       0       0       0       0       0       0       0       0       0       0       
      +0       0       0       0
  7156 ;;      Totals:         4       0       0       0       0       0       0       0       0       0       0       0       
      +0       0       0       0
  7157 ;;Total ram usage:        4 bytes
  7158 ;; Hardware stack levels used: 1
  7159 ;; Hardware stack levels required when called: 8
  7160 ;; This function calls:
  7161 ;;		_I2C1_SetCallback
  7162 ;; This function is called by:
  7163 ;;		_I2C1_Read1ByteRegister
  7164 ;;		_I2C1_Write1ByteRegister
  7165 ;;		_I2C1_Read2ByteRegister
  7166 ;;		_I2C1_Write2ByteRegister
  7167 ;;		_I2C1_ReadDataBlock
  7168 ;; This function uses a non-reentrant model
  7169 ;;
  7170                           
  7171                           	psect	text39
  7172   00388E                     __ptext39:
  7173                           	callstack 0
  7174   00388E                     _I2C1_SetDataCompleteCallback:
  7175                           	callstack 18
  7176   00388E                     
  7177                           ;mcc_generated_files/i2c1_master.c: 274: void I2C1_SetDataCompleteCallback(i2c1_callback
      +                          _t cb, void *ptr);mcc_generated_files/i2c1_master.c: 275: {;mcc_generated_files/i2c1_mas
      +                          ter.c: 276:     I2C1_SetCallback(I2C1_DATA_COMPLETE, cb, ptr);
  7178   00388E  C01F  F01A         	movff	I2C1_SetDataCompleteCallback@cb,I2C1_SetCallback@cb
  7179   003892  C020  F01B         	movff	I2C1_SetDataCompleteCallback@cb+1,I2C1_SetCallback@cb+1
  7180   003896  C021  F01C         	movff	I2C1_SetDataCompleteCallback@ptr,I2C1_SetCallback@ptr
  7181   00389A  C022  F01D         	movff	I2C1_SetDataCompleteCallback@ptr+1,I2C1_SetCallback@ptr+1
  7182   00389E  0E00               	movlw	0
  7183   0038A0  EC9A  F017         	call	_I2C1_SetCallback
  7184   0038A4  0012               	return		;funcret
  7185   0038A6                     __end_of_I2C1_SetDataCompleteCallback:
  7186                           	callstack 0
  7187                           
  7188 ;; *************** function _I2C1_SetBuffer *****************
  7189 ;; Defined at:
  7190 ;;		line 264 in file "mcc_generated_files/i2c1_master.c"
  7191 ;; Parameters:    Size  Location     Type
  7192 ;;  buffer          2   25[COMRAM] PTR void 
  7193 ;;		 -> I2C1_ReadDataBlock@reg(1), I2C1_ReadDataBlock@bufferBlock(4), I2C1_Write2ByteRegister@reg(1), I2C1_Write2ByteReg
      +ister@data(2), 
  7194 ;;		 -> I2C1_Write1ByteRegister@reg(1), I2C1_Write1ByteRegister@data(1), I2C1_Read2ByteRegister@reg(1), I2C1_Read2ByteRe
      +gister@returnValue(2), 
  7195 ;;		 -> NULL(0), I2C1_Read1ByteRegister@reg(1), I2C1_Read1ByteRegister@returnValue(1), 
  7196 ;;  bufferSize      2   27[COMRAM] unsigned int 
  7197 ;; Auto vars:     Size  Location     Type
  7198 ;;		None
  7199 ;; Return value:  Size  Location     Type
  7200 ;;                  1    wreg      void 
  7201 ;; Registers used:
  7202 ;;		wreg, status,2, status,0
  7203 ;; Tracked objects:
  7204 ;;		On entry : 0/0
  7205 ;;		On exit  : 0/0
  7206 ;;		Unchanged: 0/0
  7207 ;; Data sizes:     COMRAM   BANK0   BANK1   BANK2   BANK3   BANK4   BANK5   BANK6   BANK7   BANK8   BANK9  BANK10  BANK1
      +1  BANK12  BANK13  BANK14
  7208 ;;      Params:         4       0       0       0       0       0       0       0       0       0       0       0       
      +0       0       0       0
  7209 ;;      Locals:         0       0       0       0       0       0       0       0       0       0       0       0       
      +0       0       0       0
  7210 ;;      Temps:          0       0       0       0       0       0       0       0       0       0       0       0       
      +0       0       0       0
  7211 ;;      Totals:         4       0       0       0       0       0       0       0       0       0       0       0       
      +0       0       0       0
  7212 ;;Total ram usage:        4 bytes
  7213 ;; Hardware stack levels used: 1
  7214 ;; Hardware stack levels required when called: 7
  7215 ;; This function calls:
  7216 ;;		Nothing
  7217 ;; This function is called by:
  7218 ;;		_I2C1_Read1ByteRegister
  7219 ;;		_I2C1_Write1ByteRegister
  7220 ;;		_I2C1_Read2ByteRegister
  7221 ;;		_I2C1_Write2ByteRegister
  7222 ;;		_I2C1_WriteNBytes
  7223 ;;		_I2C1_ReadNBytes
  7224 ;;		_I2C1_ReadDataBlock
  7225 ;; This function uses a non-reentrant model
  7226 ;;
  7227                           
  7228                           	psect	text40
  7229   003776                     __ptext40:
  7230                           	callstack 0
  7231   003776                     _I2C1_SetBuffer:
  7232                           	callstack 19
  7233   003776                     
  7234                           ;mcc_generated_files/i2c1_master.c: 264: void I2C1_SetBuffer(void *buffer, size_t buffer
      +                          Size);mcc_generated_files/i2c1_master.c: 265: {;mcc_generated_files/i2c1_master.c: 266: 
      +                              if(I2C1_Status.bufferFree)
  7235   003776  0100               	movlb	0	; () banked
  7236   003778  A7DF               	btfss	(_I2C1_Status+35)& (0+255),3,b
  7237   00377A  EFC1  F01B         	goto	u3711
  7238   00377E  EFC3  F01B         	goto	u3710
  7239   003782                     u3711:
  7240   003782  EFCC  F01B         	goto	l380
  7241   003786                     u3710:
  7242   003786                     
  7243                           ; BSR set to: 0
  7244                           ;mcc_generated_files/i2c1_master.c: 267:     {;mcc_generated_files/i2c1_master.c: 268:  
      +                                 I2C1_Status.data_ptr = buffer;
  7245   003786  C01A  F0D9         	movff	I2C1_SetBuffer@buffer,_I2C1_Status+29
  7246   00378A  C01B  F0DA         	movff	I2C1_SetBuffer@buffer+1,_I2C1_Status+30
  7247   00378E                     
  7248                           ; BSR set to: 0
  7249                           ;mcc_generated_files/i2c1_master.c: 269:         I2C1_Status.data_length = bufferSize;
  7250   00378E  C01C  F0DB         	movff	I2C1_SetBuffer@bufferSize,_I2C1_Status+31
  7251   003792  C01D  F0DC         	movff	I2C1_SetBuffer@bufferSize+1,_I2C1_Status+32
  7252   003796                     
  7253                           ; BSR set to: 0
  7254                           ;mcc_generated_files/i2c1_master.c: 270:         I2C1_Status.bufferFree = 0;
  7255   003796  97DF               	bcf	(_I2C1_Status+35)& (0+255),3,b
  7256   003798                     l380:
  7257                           
  7258                           ; BSR set to: 0
  7259   003798  0012               	return		;funcret
  7260   00379A                     __end_of_I2C1_SetBuffer:
  7261                           	callstack 0
  7262                           
  7263 ;; *************** function _I2C1_SetAddressNackCallback *****************
  7264 ;; Defined at:
  7265 ;;		line 284 in file "mcc_generated_files/i2c1_master.c"
  7266 ;; Parameters:    Size  Location     Type
  7267 ;;  cb              2   30[COMRAM] PTR FTN(PTR void ,)enum 
  7268 ;;		 -> Absolute function(1), 
  7269 ;;  ptr             2   32[COMRAM] PTR void 
  7270 ;;		 -> NULL(0), 
  7271 ;; Auto vars:     Size  Location     Type
  7272 ;;		None
  7273 ;; Return value:  Size  Location     Type
  7274 ;;                  1    wreg      void 
  7275 ;; Registers used:
  7276 ;;		wreg, fsr2l, fsr2h, status,2, status,0, prodl, prodh, cstack
  7277 ;; Tracked objects:
  7278 ;;		On entry : 0/0
  7279 ;;		On exit  : 0/0
  7280 ;;		Unchanged: 0/0
  7281 ;; Data sizes:     COMRAM   BANK0   BANK1   BANK2   BANK3   BANK4   BANK5   BANK6   BANK7   BANK8   BANK9  BANK10  BANK1
      +1  BANK12  BANK13  BANK14
  7282 ;;      Params:         4       0       0       0       0       0       0       0       0       0       0       0       
      +0       0       0       0
  7283 ;;      Locals:         0       0       0       0       0       0       0       0       0       0       0       0       
      +0       0       0       0
  7284 ;;      Temps:          0       0       0       0       0       0       0       0       0       0       0       0       
      +0       0       0       0
  7285 ;;      Totals:         4       0       0       0       0       0       0       0       0       0       0       0       
      +0       0       0       0
  7286 ;;Total ram usage:        4 bytes
  7287 ;; Hardware stack levels used: 1
  7288 ;; Hardware stack levels required when called: 8
  7289 ;; This function calls:
  7290 ;;		_I2C1_SetCallback
  7291 ;; This function is called by:
  7292 ;;		_I2C1_Read1ByteRegister
  7293 ;;		_I2C1_Write1ByteRegister
  7294 ;;		_I2C1_Read2ByteRegister
  7295 ;;		_I2C1_Write2ByteRegister
  7296 ;;		_I2C1_WriteNBytes
  7297 ;;		_I2C1_ReadDataBlock
  7298 ;; This function uses a non-reentrant model
  7299 ;;
  7300                           
  7301                           	psect	text41
  7302   0038A6                     __ptext41:
  7303                           	callstack 0
  7304   0038A6                     _I2C1_SetAddressNackCallback:
  7305                           	callstack 18
  7306   0038A6                     
  7307                           ;mcc_generated_files/i2c1_master.c: 284: void I2C1_SetAddressNackCallback(i2c1_callback_
      +                          t cb, void *ptr);mcc_generated_files/i2c1_master.c: 285: {;mcc_generated_files/i2c1_mast
      +                          er.c: 286:     I2C1_SetCallback(I2C1_ADDR_NACK, cb, ptr);
  7308   0038A6  C01F  F01A         	movff	I2C1_SetAddressNackCallback@cb,I2C1_SetCallback@cb
  7309   0038AA  C020  F01B         	movff	I2C1_SetAddressNackCallback@cb+1,I2C1_SetCallback@cb+1
  7310   0038AE  C021  F01C         	movff	I2C1_SetAddressNackCallback@ptr,I2C1_SetCallback@ptr
  7311   0038B2  C022  F01D         	movff	I2C1_SetAddressNackCallback@ptr+1,I2C1_SetCallback@ptr+1
  7312   0038B6  0E02               	movlw	2
  7313   0038B8  EC9A  F017         	call	_I2C1_SetCallback
  7314   0038BC  0012               	return		;funcret
  7315   0038BE                     __end_of_I2C1_SetAddressNackCallback:
  7316                           	callstack 0
  7317                           
  7318 ;; *************** function _I2C1_SetCallback *****************
  7319 ;; Defined at:
  7320 ;;		line 304 in file "mcc_generated_files/i2c1_master.c"
  7321 ;; Parameters:    Size  Location     Type
  7322 ;;  idx             1    wreg     enum E10047
  7323 ;;  cb              2   25[COMRAM] PTR FTN(PTR void ,)enum 
  7324 ;;		 -> Absolute function(1), rdBlkRegCompleteHandler(1), wr2RegCompleteHandler(1), wr1RegCompleteHandler(1), 
  7325 ;;		 -> rd2RegCompleteHandler(1), rd1RegCompleteHandler(1), 
  7326 ;;  ptr             2   27[COMRAM] PTR void 
  7327 ;;		 -> I2C1_ReadDataBlock@bufferBlock(4), I2C1_Write2ByteRegister@data(2), I2C1_Write1ByteRegister@data(1), I2C1_Read2B
      +yteRegister@returnValue(2), 
  7328 ;;		 -> NULL(0), I2C1_Read1ByteRegister@returnValue(1), 
  7329 ;; Auto vars:     Size  Location     Type
  7330 ;;  idx             1   29[COMRAM] enum E10047
  7331 ;; Return value:  Size  Location     Type
  7332 ;;                  1    wreg      void 
  7333 ;; Registers used:
  7334 ;;		wreg, fsr2l, fsr2h, status,2, status,0, prodl, prodh
  7335 ;; Tracked objects:
  7336 ;;		On entry : 0/0
  7337 ;;		On exit  : 0/0
  7338 ;;		Unchanged: 0/0
  7339 ;; Data sizes:     COMRAM   BANK0   BANK1   BANK2   BANK3   BANK4   BANK5   BANK6   BANK7   BANK8   BANK9  BANK10  BANK1
      +1  BANK12  BANK13  BANK14
  7340 ;;      Params:         4       0       0       0       0       0       0       0       0       0       0       0       
      +0       0       0       0
  7341 ;;      Locals:         1       0       0       0       0       0       0       0       0       0       0       0       
      +0       0       0       0
  7342 ;;      Temps:          0       0       0       0       0       0       0       0       0       0       0       0       
      +0       0       0       0
  7343 ;;      Totals:         5       0       0       0       0       0       0       0       0       0       0       0       
      +0       0       0       0
  7344 ;;Total ram usage:        5 bytes
  7345 ;; Hardware stack levels used: 1
  7346 ;; Hardware stack levels required when called: 7
  7347 ;; This function calls:
  7348 ;;		Nothing
  7349 ;; This function is called by:
  7350 ;;		_I2C1_SetDataCompleteCallback
  7351 ;;		_I2C1_SetAddressNackCallback
  7352 ;;		_I2C1_SetWriteCollisionCallback
  7353 ;;		_I2C1_SetDataNackCallback
  7354 ;;		_I2C1_SetTimeoutCallback
  7355 ;; This function uses a non-reentrant model
  7356 ;;
  7357                           
  7358                           	psect	text42
  7359   002F34                     __ptext42:
  7360                           	callstack 0
  7361   002F34                     _I2C1_SetCallback:
  7362                           	callstack 18
  7363                           
  7364                           ;incstack = 0
  7365                           ;I2C1_SetCallback@idx stored from wreg
  7366   002F34  6E1E               	movwf	I2C1_SetCallback@idx^0,c
  7367   002F36                     
  7368                           ;mcc_generated_files/i2c1_master.c: 304: static void I2C1_SetCallback(i2c1_callbackIndex
      +                          _t idx, i2c1_callback_t cb, void *ptr);mcc_generated_files/i2c1_master.c: 305: {;mcc_gen
      +                          erated_files/i2c1_master.c: 306:     if(cb)
  7369   002F36  501A               	movf	I2C1_SetCallback@cb^0,w,c
  7370   002F38  101B               	iorwf	(I2C1_SetCallback@cb+1)^0,w,c
  7371   002F3A  B4D8               	btfsc	status,2,c
  7372   002F3C  EFA2  F017         	goto	u3681
  7373   002F40  EFA4  F017         	goto	u3680
  7374   002F44                     u3681:
  7375   002F44  EFBE  F017         	goto	l5106
  7376   002F48                     u3680:
  7377   002F48                     
  7378                           ;mcc_generated_files/i2c1_master.c: 307:     {;mcc_generated_files/i2c1_master.c: 308:  
      +                                 I2C1_Status.callbackTable[idx] = cb;
  7379   002F48  501E               	movf	I2C1_SetCallback@idx^0,w,c
  7380   002F4A  0D02               	mullw	2
  7381   002F4C  0EBC               	movlw	low _I2C1_Status
  7382   002F4E  24F3               	addwf	243,w,c
  7383   002F50  6ED9               	movwf	fsr2l,c
  7384   002F52  0E00               	movlw	high _I2C1_Status
  7385   002F54  20F4               	addwfc	prodh,w,c
  7386   002F56  6EDA               	movwf	fsr2h,c
  7387   002F58  C01A  FFDE         	movff	I2C1_SetCallback@cb,postinc2
  7388   002F5C  C01B  FFDD         	movff	I2C1_SetCallback@cb+1,postdec2
  7389                           
  7390                           ;mcc_generated_files/i2c1_master.c: 309:         I2C1_Status.callbackPayload[idx] = ptr;
  7391   002F60  501E               	movf	I2C1_SetCallback@idx^0,w,c
  7392   002F62  0D02               	mullw	2
  7393   002F64  0EC8               	movlw	low (_I2C1_Status+12)
  7394   002F66  24F3               	addwf	243,w,c
  7395   002F68  6ED9               	movwf	fsr2l,c
  7396   002F6A  0E00               	movlw	high (_I2C1_Status+12)
  7397   002F6C  20F4               	addwfc	prodh,w,c
  7398   002F6E  6EDA               	movwf	fsr2h,c
  7399   002F70  C01C  FFDE         	movff	I2C1_SetCallback@ptr,postinc2
  7400   002F74  C01D  FFDD         	movff	I2C1_SetCallback@ptr+1,postdec2
  7401                           
  7402                           ;mcc_generated_files/i2c1_master.c: 310:     }
  7403   002F78  EFD6  F017         	goto	l403
  7404   002F7C                     l5106:
  7405                           
  7406                           ;mcc_generated_files/i2c1_master.c: 312:     {;mcc_generated_files/i2c1_master.c: 313:  
      +                                 I2C1_Status.callbackTable[idx] = I2C1_CallbackReturnStop;
  7407   002F7C  501E               	movf	I2C1_SetCallback@idx^0,w,c
  7408   002F7E  0D02               	mullw	2
  7409   002F80  0EBC               	movlw	low _I2C1_Status
  7410   002F82  24F3               	addwf	243,w,c
  7411   002F84  6ED9               	movwf	fsr2l,c
  7412   002F86  0E00               	movlw	high _I2C1_Status
  7413   002F88  20F4               	addwfc	prodh,w,c
  7414   002F8A  6EDA               	movwf	fsr2h,c
  7415   002F8C  0E4E               	movlw	low _I2C1_CallbackReturnStop
  7416   002F8E  6EDE               	movwf	postinc2,c
  7417   002F90  0E3A               	movlw	high _I2C1_CallbackReturnStop
  7418   002F92  6EDD               	movwf	postdec2,c
  7419                           
  7420                           ;mcc_generated_files/i2c1_master.c: 314:         I2C1_Status.callbackPayload[idx] = ((vo
      +                          id*)0);
  7421   002F94  501E               	movf	I2C1_SetCallback@idx^0,w,c
  7422   002F96  0D02               	mullw	2
  7423   002F98  0EC8               	movlw	low (_I2C1_Status+12)
  7424   002F9A  24F3               	addwf	243,w,c
  7425   002F9C  6ED9               	movwf	fsr2l,c
  7426   002F9E  0E00               	movlw	high (_I2C1_Status+12)
  7427   002FA0  20F4               	addwfc	prodh,w,c
  7428   002FA2  6EDA               	movwf	fsr2h,c
  7429   002FA4  0E00               	movlw	0
  7430   002FA6  6EDE               	movwf	postinc2,c
  7431   002FA8  0E00               	movlw	0
  7432   002FAA  6EDD               	movwf	postdec2,c
  7433   002FAC                     l403:
  7434   002FAC  0012               	return		;funcret
  7435   002FAE                     __end_of_I2C1_SetCallback:
  7436                           	callstack 0
  7437                           
  7438 ;; *************** function _I2C1_Open *****************
  7439 ;; Defined at:
  7440 ;;		line 176 in file "mcc_generated_files/i2c1_master.c"
  7441 ;; Parameters:    Size  Location     Type
  7442 ;;  address         1    wreg     unsigned char 
  7443 ;; Auto vars:     Size  Location     Type
  7444 ;;  address         1   27[COMRAM] unsigned char 
  7445 ;;  returnValue     1   28[COMRAM] enum E355
  7446 ;; Return value:  Size  Location     Type
  7447 ;;                  1    wreg      enum E355
  7448 ;; Registers used:
  7449 ;;		wreg, status,2, status,0, cstack
  7450 ;; Tracked objects:
  7451 ;;		On entry : 0/0
  7452 ;;		On exit  : 0/0
  7453 ;;		Unchanged: 0/0
  7454 ;; Data sizes:     COMRAM   BANK0   BANK1   BANK2   BANK3   BANK4   BANK5   BANK6   BANK7   BANK8   BANK9  BANK10  BANK1
      +1  BANK12  BANK13  BANK14
  7455 ;;      Params:         0       0       0       0       0       0       0       0       0       0       0       0       
      +0       0       0       0
  7456 ;;      Locals:         2       0       0       0       0       0       0       0       0       0       0       0       
      +0       0       0       0
  7457 ;;      Temps:          0       0       0       0       0       0       0       0       0       0       0       0       
      +0       0       0       0
  7458 ;;      Totals:         2       0       0       0       0       0       0       0       0       0       0       0       
      +0       0       0       0
  7459 ;;Total ram usage:        2 bytes
  7460 ;; Hardware stack levels used: 1
  7461 ;; Hardware stack levels required when called: 8
  7462 ;; This function calls:
  7463 ;;		_I2C1_MasterClearIrq
  7464 ;;		_I2C1_MasterEnableIrq
  7465 ;;		_I2C1_MasterOpen
  7466 ;;		_I2C1_SetInterruptHandler
  7467 ;; This function is called by:
  7468 ;;		_I2C1_Read1ByteRegister
  7469 ;;		_I2C1_Write1ByteRegister
  7470 ;;		_I2C1_Read2ByteRegister
  7471 ;;		_I2C1_Write2ByteRegister
  7472 ;;		_I2C1_WriteNBytes
  7473 ;;		_I2C1_ReadNBytes
  7474 ;;		_I2C1_ReadDataBlock
  7475 ;; This function uses a non-reentrant model
  7476 ;;
  7477                           
  7478                           	psect	text43
  7479   002D84                     __ptext43:
  7480                           	callstack 0
  7481   002D84                     _I2C1_Open:
  7482                           	callstack 18
  7483                           
  7484                           ;incstack = 0
  7485                           ;I2C1_Open@address stored from wreg
  7486   002D84  6E1C               	movwf	I2C1_Open@address^0,c
  7487   002D86                     
  7488                           ;mcc_generated_files/i2c1_master.c: 176: i2c1_error_t I2C1_Open(i2c1_address_t address);
      +                          mcc_generated_files/i2c1_master.c: 177: {;mcc_generated_files/i2c1_master.c: 178:     i2
      +                          c1_error_t returnValue = I2C1_BUSY;
  7489   002D86  0E01               	movlw	1
  7490   002D88  6E1D               	movwf	I2C1_Open@returnValue^0,c
  7491   002D8A                     
  7492                           ;mcc_generated_files/i2c1_master.c: 180:     if(!I2C1_Status.inUse)
  7493   002D8A  0100               	movlb	0	; () banked
  7494   002D8C  B5DF               	btfsc	(_I2C1_Status+35)& (0+255),2,b
  7495   002D8E  EFCB  F016         	goto	u3701
  7496   002D92  EFCD  F016         	goto	u3700
  7497   002D96                     u3701:
  7498   002D96  EF0F  F017         	goto	l5164
  7499   002D9A                     u3700:
  7500   002D9A                     
  7501                           ; BSR set to: 0
  7502                           ;mcc_generated_files/i2c1_master.c: 181:     {;mcc_generated_files/i2c1_master.c: 182:  
      +                                 I2C1_Status.address = address;
  7503   002D9A  C01C  F0D8         	movff	I2C1_Open@address,_I2C1_Status+28
  7504   002D9E                     
  7505                           ; BSR set to: 0
  7506                           ;mcc_generated_files/i2c1_master.c: 183:         I2C1_Status.busy = 0;
  7507   002D9E  93DF               	bcf	(_I2C1_Status+35)& (0+255),1,b
  7508   002DA0                     
  7509                           ; BSR set to: 0
  7510                           ;mcc_generated_files/i2c1_master.c: 184:         I2C1_Status.inUse = 1;
  7511   002DA0  85DF               	bsf	(_I2C1_Status+35)& (0+255),2,b
  7512   002DA2                     
  7513                           ; BSR set to: 0
  7514                           ;mcc_generated_files/i2c1_master.c: 185:         I2C1_Status.addressNackCheck = 0;
  7515   002DA2  91DF               	bcf	(_I2C1_Status+35)& (0+255),0,b
  7516   002DA4                     
  7517                           ; BSR set to: 0
  7518                           ;mcc_generated_files/i2c1_master.c: 186:         I2C1_Status.state = I2C1_RESET;
  7519   002DA4  0E0E               	movlw	14
  7520   002DA6  6FDD               	movwf	(_I2C1_Status+33)& (0+255),b
  7521   002DA8                     
  7522                           ; BSR set to: 0
  7523                           ;mcc_generated_files/i2c1_master.c: 187:         I2C1_Status.time_out_value = 500;
  7524   002DA8  0E01               	movlw	1
  7525   002DAA  6FD7               	movwf	(_I2C1_Status+27)& (0+255),b
  7526   002DAC  0EF4               	movlw	244
  7527   002DAE  6FD6               	movwf	(_I2C1_Status+26)& (0+255),b
  7528   002DB0                     
  7529                           ; BSR set to: 0
  7530                           ;mcc_generated_files/i2c1_master.c: 188:         I2C1_Status.bufferFree = 1;
  7531   002DB0  87DF               	bsf	(_I2C1_Status+35)& (0+255),3,b
  7532   002DB2                     
  7533                           ; BSR set to: 0
  7534                           ;mcc_generated_files/i2c1_master.c: 191:         I2C1_Status.callbackTable[I2C1_DATA_COM
      +                          PLETE]=I2C1_CallbackReturnStop;
  7535   002DB2  0E4E               	movlw	low _I2C1_CallbackReturnStop
  7536   002DB4  6FBC               	movwf	_I2C1_Status& (0+255),b
  7537   002DB6  0E3A               	movlw	high _I2C1_CallbackReturnStop
  7538   002DB8  6FBD               	movwf	(_I2C1_Status+1)& (0+255),b
  7539   002DBA                     
  7540                           ; BSR set to: 0
  7541                           ;mcc_generated_files/i2c1_master.c: 192:         I2C1_Status.callbackPayload[I2C1_DATA_C
      +                          OMPLETE] = ((void*)0);
  7542   002DBA  0E00               	movlw	0
  7543   002DBC  6FC8               	movwf	(_I2C1_Status+12)& (0+255),b
  7544   002DBE  0E00               	movlw	0
  7545   002DC0  6FC9               	movwf	(_I2C1_Status+13)& (0+255),b
  7546   002DC2                     
  7547                           ; BSR set to: 0
  7548                           ;mcc_generated_files/i2c1_master.c: 193:         I2C1_Status.callbackTable[I2C1_WRITE_CO
      +                          LLISION]=I2C1_CallbackReturnStop;
  7549   002DC2  0E4E               	movlw	low _I2C1_CallbackReturnStop
  7550   002DC4  6FBE               	movwf	(_I2C1_Status+2)& (0+255),b
  7551   002DC6  0E3A               	movlw	high _I2C1_CallbackReturnStop
  7552   002DC8  6FBF               	movwf	(_I2C1_Status+3)& (0+255),b
  7553   002DCA                     
  7554                           ; BSR set to: 0
  7555                           ;mcc_generated_files/i2c1_master.c: 194:         I2C1_Status.callbackPayload[I2C1_WRITE_
      +                          COLLISION] = ((void*)0);
  7556   002DCA  0E00               	movlw	0
  7557   002DCC  6FCA               	movwf	(_I2C1_Status+14)& (0+255),b
  7558   002DCE  0E00               	movlw	0
  7559   002DD0  6FCB               	movwf	(_I2C1_Status+15)& (0+255),b
  7560   002DD2                     
  7561                           ; BSR set to: 0
  7562                           ;mcc_generated_files/i2c1_master.c: 195:         I2C1_Status.callbackTable[I2C1_ADDR_NAC
      +                          K]=I2C1_CallbackReturnStop;
  7563   002DD2  0E4E               	movlw	low _I2C1_CallbackReturnStop
  7564   002DD4  6FC0               	movwf	(_I2C1_Status+4)& (0+255),b
  7565   002DD6  0E3A               	movlw	high _I2C1_CallbackReturnStop
  7566   002DD8  6FC1               	movwf	(_I2C1_Status+5)& (0+255),b
  7567   002DDA                     
  7568                           ; BSR set to: 0
  7569                           ;mcc_generated_files/i2c1_master.c: 196:         I2C1_Status.callbackPayload[I2C1_ADDR_N
      +                          ACK] = ((void*)0);
  7570   002DDA  0E00               	movlw	0
  7571   002DDC  6FCC               	movwf	(_I2C1_Status+16)& (0+255),b
  7572   002DDE  0E00               	movlw	0
  7573   002DE0  6FCD               	movwf	(_I2C1_Status+17)& (0+255),b
  7574   002DE2                     
  7575                           ; BSR set to: 0
  7576                           ;mcc_generated_files/i2c1_master.c: 197:         I2C1_Status.callbackTable[I2C1_DATA_NAC
      +                          K]=I2C1_CallbackReturnStop;
  7577   002DE2  0E4E               	movlw	low _I2C1_CallbackReturnStop
  7578   002DE4  6FC2               	movwf	(_I2C1_Status+6)& (0+255),b
  7579   002DE6  0E3A               	movlw	high _I2C1_CallbackReturnStop
  7580   002DE8  6FC3               	movwf	(_I2C1_Status+7)& (0+255),b
  7581   002DEA                     
  7582                           ; BSR set to: 0
  7583                           ;mcc_generated_files/i2c1_master.c: 198:         I2C1_Status.callbackPayload[I2C1_DATA_N
      +                          ACK] = ((void*)0);
  7584   002DEA  0E00               	movlw	0
  7585   002DEC  6FCE               	movwf	(_I2C1_Status+18)& (0+255),b
  7586   002DEE  0E00               	movlw	0
  7587   002DF0  6FCF               	movwf	(_I2C1_Status+19)& (0+255),b
  7588   002DF2                     
  7589                           ; BSR set to: 0
  7590                           ;mcc_generated_files/i2c1_master.c: 199:         I2C1_Status.callbackTable[I2C1_TIMEOUT]
      +                          =I2C1_CallbackReturnReset;
  7591   002DF2  0E4A               	movlw	low _I2C1_CallbackReturnReset
  7592   002DF4  6FC4               	movwf	(_I2C1_Status+8)& (0+255),b
  7593   002DF6  0E3A               	movlw	high _I2C1_CallbackReturnReset
  7594   002DF8  6FC5               	movwf	(_I2C1_Status+9)& (0+255),b
  7595   002DFA                     
  7596                           ; BSR set to: 0
  7597                           ;mcc_generated_files/i2c1_master.c: 200:         I2C1_Status.callbackPayload[I2C1_TIMEOU
      +                          T] = ((void*)0);
  7598   002DFA  0E00               	movlw	0
  7599   002DFC  6FD0               	movwf	(_I2C1_Status+20)& (0+255),b
  7600   002DFE  0E00               	movlw	0
  7601   002E00  6FD1               	movwf	(_I2C1_Status+21)& (0+255),b
  7602   002E02                     
  7603                           ; BSR set to: 0
  7604                           ;mcc_generated_files/i2c1_master.c: 202:         I2C1_SetInterruptHandler(I2C1_MasterIsr
      +                          );
  7605   002E02  0E14               	movlw	low _I2C1_MasterIsr
  7606   002E04  6E1A               	movwf	I2C1_SetInterruptHandler@InterruptHandler^0,c
  7607   002E06  0E3A               	movlw	high _I2C1_MasterIsr
  7608   002E08  6E1B               	movwf	(I2C1_SetInterruptHandler@InterruptHandler+1)^0,c
  7609   002E0A  ECBF  F01C         	call	_I2C1_SetInterruptHandler	;wreg free
  7610   002E0E                     
  7611                           ;mcc_generated_files/i2c1_master.c: 203:         I2C1_MasterClearIrq();
  7612   002E0E  EC07  F01D         	call	_I2C1_MasterClearIrq	;wreg free
  7613   002E12                     
  7614                           ;mcc_generated_files/i2c1_master.c: 204:         I2C1_MasterOpen();
  7615   002E12  ECF0  F01B         	call	_I2C1_MasterOpen	;wreg free
  7616   002E16                     
  7617                           ;mcc_generated_files/i2c1_master.c: 205:         I2C1_MasterEnableIrq();
  7618   002E16  EC01  F01D         	call	_I2C1_MasterEnableIrq	;wreg free
  7619   002E1A                     
  7620                           ;mcc_generated_files/i2c1_master.c: 206:         returnValue = I2C1_NOERR;
  7621   002E1A  0E00               	movlw	0
  7622   002E1C  6E1D               	movwf	I2C1_Open@returnValue^0,c
  7623   002E1E                     l5164:
  7624                           
  7625                           ;mcc_generated_files/i2c1_master.c: 208:     return returnValue;
  7626   002E1E  501D               	movf	I2C1_Open@returnValue^0,w,c
  7627   002E20  0012               	return		;funcret
  7628   002E22                     __end_of_I2C1_Open:
  7629                           	callstack 0
  7630                           
  7631 ;; *************** function _I2C1_SetInterruptHandler *****************
  7632 ;; Defined at:
  7633 ;;		line 299 in file "mcc_generated_files/i2c1_master.c"
  7634 ;; Parameters:    Size  Location     Type
  7635 ;;  InterruptHan    2   25[COMRAM] PTR FTN()void 
  7636 ;;		 -> I2C1_MasterIsr(1), 
  7637 ;; Auto vars:     Size  Location     Type
  7638 ;;		None
  7639 ;; Return value:  Size  Location     Type
  7640 ;;                  1    wreg      void 
  7641 ;; Registers used:
  7642 ;;		wreg, status,2, status,0
  7643 ;; Tracked objects:
  7644 ;;		On entry : 0/0
  7645 ;;		On exit  : 0/0
  7646 ;;		Unchanged: 0/0
  7647 ;; Data sizes:     COMRAM   BANK0   BANK1   BANK2   BANK3   BANK4   BANK5   BANK6   BANK7   BANK8   BANK9  BANK10  BANK1
      +1  BANK12  BANK13  BANK14
  7648 ;;      Params:         2       0       0       0       0       0       0       0       0       0       0       0       
      +0       0       0       0
  7649 ;;      Locals:         0       0       0       0       0       0       0       0       0       0       0       0       
      +0       0       0       0
  7650 ;;      Temps:          0       0       0       0       0       0       0       0       0       0       0       0       
      +0       0       0       0
  7651 ;;      Totals:         2       0       0       0       0       0       0       0       0       0       0       0       
      +0       0       0       0
  7652 ;;Total ram usage:        2 bytes
  7653 ;; Hardware stack levels used: 1
  7654 ;; Hardware stack levels required when called: 7
  7655 ;; This function calls:
  7656 ;;		Nothing
  7657 ;; This function is called by:
  7658 ;;		_I2C1_Open
  7659 ;; This function uses a non-reentrant model
  7660 ;;
  7661                           
  7662                           	psect	text44
  7663   00397E                     __ptext44:
  7664                           	callstack 0
  7665   00397E                     _I2C1_SetInterruptHandler:
  7666                           	callstack 18
  7667   00397E                     
  7668                           ;mcc_generated_files/i2c1_master.c: 299: void I2C1_SetInterruptHandler(void (* Interrupt
      +                          Handler)(void));mcc_generated_files/i2c1_master.c: 300: {;mcc_generated_files/i2c1_maste
      +                          r.c: 301:     MSSP1_InterruptHandler = InterruptHandler;
  7669   00397E  C01A  F03C         	movff	I2C1_SetInterruptHandler@InterruptHandler,_MSSP1_InterruptHandler
  7670   003982  C01B  F03D         	movff	I2C1_SetInterruptHandler@InterruptHandler+1,_MSSP1_InterruptHandler+1
  7671   003986  0012               	return		;funcret
  7672   003988                     __end_of_I2C1_SetInterruptHandler:
  7673                           	callstack 0
  7674                           
  7675 ;; *************** function _I2C1_MasterOpen *****************
  7676 ;; Defined at:
  7677 ;;		line 544 in file "mcc_generated_files/i2c1_master.c"
  7678 ;; Parameters:    Size  Location     Type
  7679 ;;		None
  7680 ;; Auto vars:     Size  Location     Type
  7681 ;;		None
  7682 ;; Return value:  Size  Location     Type
  7683 ;;                  1    wreg      _Bool 
  7684 ;; Registers used:
  7685 ;;		wreg, status,2
  7686 ;; Tracked objects:
  7687 ;;		On entry : 0/0
  7688 ;;		On exit  : 0/0
  7689 ;;		Unchanged: 0/0
  7690 ;; Data sizes:     COMRAM   BANK0   BANK1   BANK2   BANK3   BANK4   BANK5   BANK6   BANK7   BANK8   BANK9  BANK10  BANK1
      +1  BANK12  BANK13  BANK14
  7691 ;;      Params:         0       0       0       0       0       0       0       0       0       0       0       0       
      +0       0       0       0
  7692 ;;      Locals:         0       0       0       0       0       0       0       0       0       0       0       0       
      +0       0       0       0
  7693 ;;      Temps:          0       0       0       0       0       0       0       0       0       0       0       0       
      +0       0       0       0
  7694 ;;      Totals:         0       0       0       0       0       0       0       0       0       0       0       0       
      +0       0       0       0
  7695 ;;Total ram usage:        0 bytes
  7696 ;; Hardware stack levels used: 1
  7697 ;; Hardware stack levels required when called: 7
  7698 ;; This function calls:
  7699 ;;		Nothing
  7700 ;; This function is called by:
  7701 ;;		_I2C1_Open
  7702 ;; This function uses a non-reentrant model
  7703 ;;
  7704                           
  7705                           	psect	text45
  7706   0037E0                     __ptext45:
  7707                           	callstack 0
  7708   0037E0                     _I2C1_MasterOpen:
  7709                           	callstack 18
  7710   0037E0                     
  7711                           ;mcc_generated_files/i2c1_master.c: 546:     if(!SSP1CON1bits.SSPEN)
  7712   0037E0  BA96               	btfsc	150,5,c	;volatile
  7713   0037E2  EFF5  F01B         	goto	u3651
  7714   0037E6  EFF7  F01B         	goto	u3650
  7715   0037EA                     u3651:
  7716   0037EA  EF00  F01C         	goto	l522
  7717   0037EE                     u3650:
  7718   0037EE                     
  7719                           ;mcc_generated_files/i2c1_master.c: 547:     {;mcc_generated_files/i2c1_master.c: 548:  
      +                                 SSP1STAT = 0x00;
  7720   0037EE  0E00               	movlw	0
  7721   0037F0  6E95               	movwf	149,c	;volatile
  7722                           
  7723                           ;mcc_generated_files/i2c1_master.c: 549:         SSP1CON1 = 0x08;
  7724   0037F2  0E08               	movlw	8
  7725   0037F4  6E96               	movwf	150,c	;volatile
  7726                           
  7727                           ;mcc_generated_files/i2c1_master.c: 550:         SSP1CON2 = 0x00;
  7728   0037F6  0E00               	movlw	0
  7729   0037F8  6E97               	movwf	151,c	;volatile
  7730                           
  7731                           ;mcc_generated_files/i2c1_master.c: 551:         SSP1ADD = 0x27;
  7732   0037FA  0E27               	movlw	39
  7733   0037FC  6E93               	movwf	147,c	;volatile
  7734   0037FE                     
  7735                           ;mcc_generated_files/i2c1_master.c: 552:         SSP1CON1bits.SSPEN = 1;
  7736   0037FE  8A96               	bsf	150,5,c	;volatile
  7737   003800                     l522:
  7738   003800  0012               	return		;funcret
  7739   003802                     __end_of_I2C1_MasterOpen:
  7740                           	callstack 0
  7741                           
  7742 ;; *************** function _I2C1_MasterEnableIrq *****************
  7743 ;; Defined at:
  7744 ;;		line 627 in file "mcc_generated_files/i2c1_master.c"
  7745 ;; Parameters:    Size  Location     Type
  7746 ;;		None
  7747 ;; Auto vars:     Size  Location     Type
  7748 ;;		None
  7749 ;; Return value:  Size  Location     Type
  7750 ;;                  1    wreg      void 
  7751 ;; Registers used:
  7752 ;;		None
  7753 ;; Tracked objects:
  7754 ;;		On entry : 0/0
  7755 ;;		On exit  : 0/0
  7756 ;;		Unchanged: 0/0
  7757 ;; Data sizes:     COMRAM   BANK0   BANK1   BANK2   BANK3   BANK4   BANK5   BANK6   BANK7   BANK8   BANK9  BANK10  BANK1
      +1  BANK12  BANK13  BANK14
  7758 ;;      Params:         0       0       0       0       0       0       0       0       0       0       0       0       
      +0       0       0       0
  7759 ;;      Locals:         0       0       0       0       0       0       0       0       0       0       0       0       
      +0       0       0       0
  7760 ;;      Temps:          0       0       0       0       0       0       0       0       0       0       0       0       
      +0       0       0       0
  7761 ;;      Totals:         0       0       0       0       0       0       0       0       0       0       0       0       
      +0       0       0       0
  7762 ;;Total ram usage:        0 bytes
  7763 ;; Hardware stack levels used: 1
  7764 ;; Hardware stack levels required when called: 7
  7765 ;; This function calls:
  7766 ;;		Nothing
  7767 ;; This function is called by:
  7768 ;;		_I2C1_Open
  7769 ;;		_I2C1_SetTimeOut
  7770 ;; This function uses a non-reentrant model
  7771 ;;
  7772                           
  7773                           	psect	text46
  7774   003A02                     __ptext46:
  7775                           	callstack 0
  7776   003A02                     _I2C1_MasterEnableIrq:
  7777                           	callstack 18
  7778   003A02                     
  7779                           ;mcc_generated_files/i2c1_master.c: 629:     PIE3bits.SSP1IE = 1;
  7780   003A02  010E               	movlb	14	; () banked
  7781   003A04  81C5               	bsf	197,0,b	;volatile
  7782   003A06                     
  7783                           ; BSR set to: 14
  7784   003A06  0012               	return		;funcret
  7785   003A08                     __end_of_I2C1_MasterEnableIrq:
  7786                           	callstack 0
  7787                           
  7788 ;; *************** function _I2C1_MasterWrite *****************
  7789 ;; Defined at:
  7790 ;;		line 252 in file "mcc_generated_files/i2c1_master.c"
  7791 ;; Parameters:    Size  Location     Type
  7792 ;;		None
  7793 ;; Auto vars:     Size  Location     Type
  7794 ;;		None
  7795 ;; Return value:  Size  Location     Type
  7796 ;;                  1    wreg      enum E355
  7797 ;; Registers used:
  7798 ;;		wreg, status,2, cstack
  7799 ;; Tracked objects:
  7800 ;;		On entry : 0/0
  7801 ;;		On exit  : 0/0
  7802 ;;		Unchanged: 0/0
  7803 ;; Data sizes:     COMRAM   BANK0   BANK1   BANK2   BANK3   BANK4   BANK5   BANK6   BANK7   BANK8   BANK9  BANK10  BANK1
      +1  BANK12  BANK13  BANK14
  7804 ;;      Params:         0       0       0       0       0       0       0       0       0       0       0       0       
      +0       0       0       0
  7805 ;;      Locals:         0       0       0       0       0       0       0       0       0       0       0       0       
      +0       0       0       0
  7806 ;;      Temps:          0       0       0       0       0       0       0       0       0       0       0       0       
      +0       0       0       0
  7807 ;;      Totals:         0       0       0       0       0       0       0       0       0       0       0       0       
      +0       0       0       0
  7808 ;;Total ram usage:        0 bytes
  7809 ;; Hardware stack levels used: 1
  7810 ;; Hardware stack levels required when called: 9
  7811 ;; This function calls:
  7812 ;;		_I2C1_MasterOperation
  7813 ;; This function is called by:
  7814 ;;		_I2C1_Read1ByteRegister
  7815 ;;		_I2C1_Write1ByteRegister
  7816 ;;		_I2C1_Read2ByteRegister
  7817 ;;		_I2C1_Write2ByteRegister
  7818 ;;		_I2C1_WriteNBytes
  7819 ;;		_I2C1_ReadDataBlock
  7820 ;; This function uses a non-reentrant model
  7821 ;;
  7822                           
  7823                           	psect	text47
  7824   0039AE                     __ptext47:
  7825                           	callstack 0
  7826   0039AE                     _I2C1_MasterWrite:
  7827                           	callstack 17
  7828   0039AE                     
  7829                           ;mcc_generated_files/i2c1_master.c: 254:     return I2C1_MasterOperation(0);;	Return val
      +                          ue of _I2C1_MasterWrite is never used
  7830   0039AE  0E00               	movlw	0
  7831   0039B0  EC5A  F01A         	call	_I2C1_MasterOperation
  7832   0039B4  0012               	return		;funcret
  7833   0039B6                     __end_of_I2C1_MasterWrite:
  7834                           	callstack 0
  7835                           
  7836 ;; *************** function _I2C1_MasterOperation *****************
  7837 ;; Defined at:
  7838 ;;		line 226 in file "mcc_generated_files/i2c1_master.c"
  7839 ;; Parameters:    Size  Location     Type
  7840 ;;  read            1    wreg     _Bool 
  7841 ;; Auto vars:     Size  Location     Type
  7842 ;;  read            1   25[COMRAM] _Bool 
  7843 ;;  returnValue     1   26[COMRAM] enum E355
  7844 ;; Return value:  Size  Location     Type
  7845 ;;                  1    wreg      enum E355
  7846 ;; Registers used:
  7847 ;;		wreg, status,2, cstack
  7848 ;; Tracked objects:
  7849 ;;		On entry : 0/0
  7850 ;;		On exit  : 0/0
  7851 ;;		Unchanged: 0/0
  7852 ;; Data sizes:     COMRAM   BANK0   BANK1   BANK2   BANK3   BANK4   BANK5   BANK6   BANK7   BANK8   BANK9  BANK10  BANK1
      +1  BANK12  BANK13  BANK14
  7853 ;;      Params:         0       0       0       0       0       0       0       0       0       0       0       0       
      +0       0       0       0
  7854 ;;      Locals:         2       0       0       0       0       0       0       0       0       0       0       0       
      +0       0       0       0
  7855 ;;      Temps:          0       0       0       0       0       0       0       0       0       0       0       0       
      +0       0       0       0
  7856 ;;      Totals:         2       0       0       0       0       0       0       0       0       0       0       0       
      +0       0       0       0
  7857 ;;Total ram usage:        2 bytes
  7858 ;; Hardware stack levels used: 1
  7859 ;; Hardware stack levels required when called: 8
  7860 ;; This function calls:
  7861 ;;		_I2C1_MasterStart
  7862 ;; This function is called by:
  7863 ;;		_I2C1_MasterWrite
  7864 ;;		_I2C1_MasterRead
  7865 ;; This function uses a non-reentrant model
  7866 ;;
  7867                           
  7868                           	psect	text48
  7869   0034B4                     __ptext48:
  7870                           	callstack 0
  7871   0034B4                     _I2C1_MasterOperation:
  7872                           	callstack 17
  7873                           
  7874                           ;incstack = 0
  7875                           ;I2C1_MasterOperation@read stored from wreg
  7876   0034B4  6E1A               	movwf	I2C1_MasterOperation@read^0,c
  7877   0034B6                     
  7878                           ;mcc_generated_files/i2c1_master.c: 226: i2c1_error_t I2C1_MasterOperation(_Bool read);m
      +                          cc_generated_files/i2c1_master.c: 227: {;mcc_generated_files/i2c1_master.c: 228:     i2c
      +                          1_error_t returnValue = I2C1_BUSY;
  7879   0034B6  0E01               	movlw	1
  7880   0034B8  6E1B               	movwf	I2C1_MasterOperation@returnValue^0,c
  7881   0034BA                     
  7882                           ;mcc_generated_files/i2c1_master.c: 229:     if(!I2C1_Status.busy)
  7883   0034BA  0100               	movlb	0	; () banked
  7884   0034BC  B3DF               	btfsc	(_I2C1_Status+35)& (0+255),1,b
  7885   0034BE  EF63  F01A         	goto	u3661
  7886   0034C2  EF65  F01A         	goto	u3660
  7887   0034C6                     u3661:
  7888   0034C6  EF78  F01A         	goto	l5098
  7889   0034CA                     u3660:
  7890   0034CA                     
  7891                           ; BSR set to: 0
  7892                           ;mcc_generated_files/i2c1_master.c: 230:     {;mcc_generated_files/i2c1_master.c: 231:  
      +                                 I2C1_Status.busy = 1;
  7893   0034CA  83DF               	bsf	(_I2C1_Status+35)& (0+255),1,b
  7894   0034CC                     
  7895                           ; BSR set to: 0
  7896                           ;mcc_generated_files/i2c1_master.c: 232:         returnValue = I2C1_NOERR;
  7897   0034CC  0E00               	movlw	0
  7898   0034CE  6E1B               	movwf	I2C1_MasterOperation@returnValue^0,c
  7899   0034D0                     
  7900                           ; BSR set to: 0
  7901                           ;mcc_generated_files/i2c1_master.c: 234:         if(read)
  7902   0034D0  501A               	movf	I2C1_MasterOperation@read^0,w,c
  7903   0034D2  B4D8               	btfsc	status,2,c
  7904   0034D4  EF6E  F01A         	goto	u3671
  7905   0034D8  EF70  F01A         	goto	u3670
  7906   0034DC                     u3671:
  7907   0034DC  EF74  F01A         	goto	l5094
  7908   0034E0                     u3670:
  7909   0034E0                     
  7910                           ; BSR set to: 0
  7911                           ;mcc_generated_files/i2c1_master.c: 235:         {;mcc_generated_files/i2c1_master.c: 23
      +                          6:             I2C1_Status.state = I2C1_SEND_ADR_READ;
  7912   0034E0  0E01               	movlw	1
  7913   0034E2  6FDD               	movwf	(_I2C1_Status+33)& (0+255),b
  7914                           
  7915                           ;mcc_generated_files/i2c1_master.c: 237:         }
  7916   0034E4  EF76  F01A         	goto	l5096
  7917   0034E8                     l5094:
  7918                           
  7919                           ; BSR set to: 0
  7920                           ;mcc_generated_files/i2c1_master.c: 239:         {;mcc_generated_files/i2c1_master.c: 24
      +                          0:             I2C1_Status.state = I2C1_SEND_ADR_WRITE;
  7921   0034E8  0E02               	movlw	2
  7922   0034EA  6FDD               	movwf	(_I2C1_Status+33)& (0+255),b
  7923   0034EC                     l5096:
  7924                           
  7925                           ; BSR set to: 0
  7926                           ;mcc_generated_files/i2c1_master.c: 242:         I2C1_MasterStart();
  7927   0034EC  EC1B  F01D         	call	_I2C1_MasterStart	;wreg free
  7928   0034F0                     l5098:
  7929                           
  7930                           ;mcc_generated_files/i2c1_master.c: 244:     return returnValue;
  7931   0034F0  501B               	movf	I2C1_MasterOperation@returnValue^0,w,c
  7932   0034F2  0012               	return		;funcret
  7933   0034F4                     __end_of_I2C1_MasterOperation:
  7934                           	callstack 0
  7935                           
  7936 ;; *************** function _I2C1_MasterStart *****************
  7937 ;; Defined at:
  7938 ;;		line 589 in file "mcc_generated_files/i2c1_master.c"
  7939 ;; Parameters:    Size  Location     Type
  7940 ;;		None
  7941 ;; Auto vars:     Size  Location     Type
  7942 ;;		None
  7943 ;; Return value:  Size  Location     Type
  7944 ;;                  1    wreg      void 
  7945 ;; Registers used:
  7946 ;;		None
  7947 ;; Tracked objects:
  7948 ;;		On entry : 0/0
  7949 ;;		On exit  : 0/0
  7950 ;;		Unchanged: 0/0
  7951 ;; Data sizes:     COMRAM   BANK0   BANK1   BANK2   BANK3   BANK4   BANK5   BANK6   BANK7   BANK8   BANK9  BANK10  BANK1
      +1  BANK12  BANK13  BANK14
  7952 ;;      Params:         0       0       0       0       0       0       0       0       0       0       0       0       
      +0       0       0       0
  7953 ;;      Locals:         0       0       0       0       0       0       0       0       0       0       0       0       
      +0       0       0       0
  7954 ;;      Temps:          0       0       0       0       0       0       0       0       0       0       0       0       
      +0       0       0       0
  7955 ;;      Totals:         0       0       0       0       0       0       0       0       0       0       0       0       
      +0       0       0       0
  7956 ;;Total ram usage:        0 bytes
  7957 ;; Hardware stack levels used: 1
  7958 ;; Hardware stack levels required when called: 7
  7959 ;; This function calls:
  7960 ;;		Nothing
  7961 ;; This function is called by:
  7962 ;;		_I2C1_MasterOperation
  7963 ;; This function uses a non-reentrant model
  7964 ;;
  7965                           
  7966                           	psect	text49
  7967   003A36                     __ptext49:
  7968                           	callstack 0
  7969   003A36                     _I2C1_MasterStart:
  7970                           	callstack 17
  7971   003A36                     
  7972                           ;mcc_generated_files/i2c1_master.c: 591:     SSP1CON2bits.SEN = 1;
  7973   003A36  8097               	bsf	151,0,c	;volatile
  7974   003A38  0012               	return		;funcret
  7975   003A3A                     __end_of_I2C1_MasterStart:
  7976                           	callstack 0
  7977                           
  7978 ;; *************** function _I2C1_Close *****************
  7979 ;; Defined at:
  7980 ;;		line 211 in file "mcc_generated_files/i2c1_master.c"
  7981 ;; Parameters:    Size  Location     Type
  7982 ;;		None
  7983 ;; Auto vars:     Size  Location     Type
  7984 ;;  returnValue     1   25[COMRAM] enum E355
  7985 ;; Return value:  Size  Location     Type
  7986 ;;                  1    wreg      enum E355
  7987 ;; Registers used:
  7988 ;;		wreg, status,2, cstack
  7989 ;; Tracked objects:
  7990 ;;		On entry : 0/0
  7991 ;;		On exit  : 0/0
  7992 ;;		Unchanged: 0/0
  7993 ;; Data sizes:     COMRAM   BANK0   BANK1   BANK2   BANK3   BANK4   BANK5   BANK6   BANK7   BANK8   BANK9  BANK10  BANK1
      +1  BANK12  BANK13  BANK14
  7994 ;;      Params:         0       0       0       0       0       0       0       0       0       0       0       0       
      +0       0       0       0
  7995 ;;      Locals:         1       0       0       0       0       0       0       0       0       0       0       0       
      +0       0       0       0
  7996 ;;      Temps:          0       0       0       0       0       0       0       0       0       0       0       0       
      +0       0       0       0
  7997 ;;      Totals:         1       0       0       0       0       0       0       0       0       0       0       0       
      +0       0       0       0
  7998 ;;Total ram usage:        1 bytes
  7999 ;; Hardware stack levels used: 1
  8000 ;; Hardware stack levels required when called: 8
  8001 ;; This function calls:
  8002 ;;		_I2C1_MasterClearIrq
  8003 ;;		_I2C1_MasterClose
  8004 ;;		_I2C1_MasterDisableIrq
  8005 ;; This function is called by:
  8006 ;;		_I2C1_Read1ByteRegister
  8007 ;;		_I2C1_Write1ByteRegister
  8008 ;;		_I2C1_Read2ByteRegister
  8009 ;;		_I2C1_Write2ByteRegister
  8010 ;;		_I2C1_WriteNBytes
  8011 ;;		_I2C1_ReadNBytes
  8012 ;;		_I2C1_ReadDataBlock
  8013 ;; This function uses a non-reentrant model
  8014 ;;
  8015                           
  8016                           	psect	text50
  8017   0035CE                     __ptext50:
  8018                           	callstack 0
  8019   0035CE                     _I2C1_Close:
  8020                           	callstack 18
  8021   0035CE                     
  8022                           ;mcc_generated_files/i2c1_master.c: 213:     i2c1_error_t returnValue = I2C1_BUSY;
  8023   0035CE  0E01               	movlw	1
  8024   0035D0  6E1A               	movwf	I2C1_Close@returnValue^0,c
  8025   0035D2                     
  8026                           ;mcc_generated_files/i2c1_master.c: 214:     if(!I2C1_Status.busy)
  8027   0035D2  0100               	movlb	0	; () banked
  8028   0035D4  B3DF               	btfsc	(_I2C1_Status+35)& (0+255),1,b
  8029   0035D6  EFEF  F01A         	goto	u3721
  8030   0035DA  EFF1  F01A         	goto	u3720
  8031   0035DE                     u3721:
  8032   0035DE  EFFB  F01A         	goto	l5194
  8033   0035E2                     u3720:
  8034   0035E2                     
  8035                           ; BSR set to: 0
  8036                           ;mcc_generated_files/i2c1_master.c: 215:     {;mcc_generated_files/i2c1_master.c: 216:  
      +                                 I2C1_Status.inUse = 0;
  8037   0035E2  95DF               	bcf	(_I2C1_Status+35)& (0+255),2,b
  8038                           
  8039                           ;mcc_generated_files/i2c1_master.c: 217:         I2C1_Status.address = 0xff;
  8040   0035E4  69D8               	setf	(_I2C1_Status+28)& (0+255),b
  8041   0035E6                     
  8042                           ; BSR set to: 0
  8043                           ;mcc_generated_files/i2c1_master.c: 218:         I2C1_MasterClearIrq();
  8044   0035E6  EC07  F01D         	call	_I2C1_MasterClearIrq	;wreg free
  8045                           
  8046                           ;mcc_generated_files/i2c1_master.c: 219:         I2C1_MasterDisableIrq();
  8047   0035EA  EC04  F01D         	call	_I2C1_MasterDisableIrq	;wreg free
  8048                           
  8049                           ;mcc_generated_files/i2c1_master.c: 220:         I2C1_MasterClose();
  8050   0035EE  EC1D  F01D         	call	_I2C1_MasterClose	;wreg free
  8051   0035F2                     
  8052                           ;mcc_generated_files/i2c1_master.c: 221:         returnValue = I2C1_Status.error;
  8053   0035F2  C0DE  F01A         	movff	_I2C1_Status+34,I2C1_Close@returnValue
  8054   0035F6                     l5194:
  8055                           
  8056                           ;mcc_generated_files/i2c1_master.c: 223:     return returnValue;
  8057   0035F6  501A               	movf	I2C1_Close@returnValue^0,w,c
  8058   0035F8  0012               	return		;funcret
  8059   0035FA                     __end_of_I2C1_Close:
  8060                           	callstack 0
  8061                           
  8062 ;; *************** function _I2C1_MasterDisableIrq *****************
  8063 ;; Defined at:
  8064 ;;		line 637 in file "mcc_generated_files/i2c1_master.c"
  8065 ;; Parameters:    Size  Location     Type
  8066 ;;		None
  8067 ;; Auto vars:     Size  Location     Type
  8068 ;;		None
  8069 ;; Return value:  Size  Location     Type
  8070 ;;                  1    wreg      void 
  8071 ;; Registers used:
  8072 ;;		None
  8073 ;; Tracked objects:
  8074 ;;		On entry : 0/0
  8075 ;;		On exit  : 0/0
  8076 ;;		Unchanged: 0/0
  8077 ;; Data sizes:     COMRAM   BANK0   BANK1   BANK2   BANK3   BANK4   BANK5   BANK6   BANK7   BANK8   BANK9  BANK10  BANK1
      +1  BANK12  BANK13  BANK14
  8078 ;;      Params:         0       0       0       0       0       0       0       0       0       0       0       0       
      +0       0       0       0
  8079 ;;      Locals:         0       0       0       0       0       0       0       0       0       0       0       0       
      +0       0       0       0
  8080 ;;      Temps:          0       0       0       0       0       0       0       0       0       0       0       0       
      +0       0       0       0
  8081 ;;      Totals:         0       0       0       0       0       0       0       0       0       0       0       0       
      +0       0       0       0
  8082 ;;Total ram usage:        0 bytes
  8083 ;; Hardware stack levels used: 1
  8084 ;; Hardware stack levels required when called: 7
  8085 ;; This function calls:
  8086 ;;		Nothing
  8087 ;; This function is called by:
  8088 ;;		_I2C1_Close
  8089 ;;		_I2C1_SetTimeOut
  8090 ;; This function uses a non-reentrant model
  8091 ;;
  8092                           
  8093                           	psect	text51
  8094   003A08                     __ptext51:
  8095                           	callstack 0
  8096   003A08                     _I2C1_MasterDisableIrq:
  8097                           	callstack 18
  8098   003A08                     
  8099                           ;mcc_generated_files/i2c1_master.c: 639:     PIE3bits.SSP1IE = 0;
  8100   003A08  010E               	movlb	14	; () banked
  8101   003A0A  91C5               	bcf	197,0,b	;volatile
  8102   003A0C                     
  8103                           ; BSR set to: 14
  8104   003A0C  0012               	return		;funcret
  8105   003A0E                     __end_of_I2C1_MasterDisableIrq:
  8106                           	callstack 0
  8107                           
  8108 ;; *************** function _I2C1_MasterClose *****************
  8109 ;; Defined at:
  8110 ;;		line 558 in file "mcc_generated_files/i2c1_master.c"
  8111 ;; Parameters:    Size  Location     Type
  8112 ;;		None
  8113 ;; Auto vars:     Size  Location     Type
  8114 ;;		None
  8115 ;; Return value:  Size  Location     Type
  8116 ;;                  1    wreg      void 
  8117 ;; Registers used:
  8118 ;;		None
  8119 ;; Tracked objects:
  8120 ;;		On entry : 0/0
  8121 ;;		On exit  : 0/0
  8122 ;;		Unchanged: 0/0
  8123 ;; Data sizes:     COMRAM   BANK0   BANK1   BANK2   BANK3   BANK4   BANK5   BANK6   BANK7   BANK8   BANK9  BANK10  BANK1
      +1  BANK12  BANK13  BANK14
  8124 ;;      Params:         0       0       0       0       0       0       0       0       0       0       0       0       
      +0       0       0       0
  8125 ;;      Locals:         0       0       0       0       0       0       0       0       0       0       0       0       
      +0       0       0       0
  8126 ;;      Temps:          0       0       0       0       0       0       0       0       0       0       0       0       
      +0       0       0       0
  8127 ;;      Totals:         0       0       0       0       0       0       0       0       0       0       0       0       
      +0       0       0       0
  8128 ;;Total ram usage:        0 bytes
  8129 ;; Hardware stack levels used: 1
  8130 ;; Hardware stack levels required when called: 7
  8131 ;; This function calls:
  8132 ;;		Nothing
  8133 ;; This function is called by:
  8134 ;;		_I2C1_Close
  8135 ;; This function uses a non-reentrant model
  8136 ;;
  8137                           
  8138                           	psect	text52
  8139   003A3A                     __ptext52:
  8140                           	callstack 0
  8141   003A3A                     _I2C1_MasterClose:
  8142                           	callstack 18
  8143   003A3A                     
  8144                           ;mcc_generated_files/i2c1_master.c: 561:     SSP1CON1bits.SSPEN = 0;
  8145   003A3A  9A96               	bcf	150,5,c	;volatile
  8146   003A3C  0012               	return		;funcret
  8147   003A3E                     __end_of_I2C1_MasterClose:
  8148                           	callstack 0
  8149                           
  8150 ;; *************** function _I2C1_MasterClearIrq *****************
  8151 ;; Defined at:
  8152 ;;		line 642 in file "mcc_generated_files/i2c1_master.c"
  8153 ;; Parameters:    Size  Location     Type
  8154 ;;		None
  8155 ;; Auto vars:     Size  Location     Type
  8156 ;;		None
  8157 ;; Return value:  Size  Location     Type
  8158 ;;                  1    wreg      void 
  8159 ;; Registers used:
  8160 ;;		None
  8161 ;; Tracked objects:
  8162 ;;		On entry : 0/0
  8163 ;;		On exit  : 0/0
  8164 ;;		Unchanged: 0/0
  8165 ;; Data sizes:     COMRAM   BANK0   BANK1   BANK2   BANK3   BANK4   BANK5   BANK6   BANK7   BANK8   BANK9  BANK10  BANK1
      +1  BANK12  BANK13  BANK14
  8166 ;;      Params:         0       0       0       0       0       0       0       0       0       0       0       0       
      +0       0       0       0
  8167 ;;      Locals:         0       0       0       0       0       0       0       0       0       0       0       0       
      +0       0       0       0
  8168 ;;      Temps:          0       0       0       0       0       0       0       0       0       0       0       0       
      +0       0       0       0
  8169 ;;      Totals:         0       0       0       0       0       0       0       0       0       0       0       0       
      +0       0       0       0
  8170 ;;Total ram usage:        0 bytes
  8171 ;; Hardware stack levels used: 1
  8172 ;; Hardware stack levels required when called: 7
  8173 ;; This function calls:
  8174 ;;		Nothing
  8175 ;; This function is called by:
  8176 ;;		_I2C1_Open
  8177 ;;		_I2C1_Close
  8178 ;; This function uses a non-reentrant model
  8179 ;;
  8180                           
  8181                           	psect	text53
  8182   003A0E                     __ptext53:
  8183                           	callstack 0
  8184   003A0E                     _I2C1_MasterClearIrq:
  8185                           	callstack 18
  8186   003A0E                     
  8187                           ;mcc_generated_files/i2c1_master.c: 644:     PIR3bits.SSP1IF = 0;
  8188   003A0E  010E               	movlb	14	; () banked
  8189   003A10  91CD               	bcf	205,0,b	;volatile
  8190   003A12                     
  8191                           ; BSR set to: 14
  8192   003A12  0012               	return		;funcret
  8193   003A14                     __end_of_I2C1_MasterClearIrq:
  8194                           	callstack 0
  8195                           
  8196 ;; *************** function ___flge *****************
  8197 ;; Defined at:
  8198 ;;		line 4 in file "C:\Program Files\Microchip\xc8\v2.40\pic\sources\c99\common\flge.c"
  8199 ;; Parameters:    Size  Location     Type
  8200 ;;  ff1             4   25[COMRAM] void 
  8201 ;;  ff2             4   29[COMRAM] void 
  8202 ;; Auto vars:     Size  Location     Type
  8203 ;;		None
  8204 ;; Return value:  Size  Location     Type
  8205 ;;		None               void
  8206 ;; Registers used:
  8207 ;;		wreg, status,2, status,0
  8208 ;; Tracked objects:
  8209 ;;		On entry : 0/0
  8210 ;;		On exit  : 0/0
  8211 ;;		Unchanged: 0/0
  8212 ;; Data sizes:     COMRAM   BANK0   BANK1   BANK2   BANK3   BANK4   BANK5   BANK6   BANK7   BANK8   BANK9  BANK10  BANK1
      +1  BANK12  BANK13  BANK14
  8213 ;;      Params:         8       0       0       0       0       0       0       0       0       0       0       0       
      +0       0       0       0
  8214 ;;      Locals:         0       0       0       0       0       0       0       0       0       0       0       0       
      +0       0       0       0
  8215 ;;      Temps:          4       0       0       0       0       0       0       0       0       0       0       0       
      +0       0       0       0
  8216 ;;      Totals:        12       0       0       0       0       0       0       0       0       0       0       0       
      +0       0       0       0
  8217 ;;Total ram usage:       12 bytes
  8218 ;; Hardware stack levels used: 1
  8219 ;; Hardware stack levels required when called: 7
  8220 ;; This function calls:
  8221 ;;		Nothing
  8222 ;; This function is called by:
  8223 ;;		_main
  8224 ;; This function uses a non-reentrant model
  8225 ;;
  8226                           
  8227                           	psect	text54
  8228   0028A6                     __ptext54:
  8229                           	callstack 0
  8230   0028A6                     ___flge:
  8231                           	callstack 23
  8232   0028A6  0E00               	movlw	0
  8233   0028A8  141A               	andwf	___flge@ff1^0,w,c
  8234   0028AA  6E22               	movwf	??___flge^0,c
  8235   0028AC  0E00               	movlw	0
  8236   0028AE  141B               	andwf	(___flge@ff1+1)^0,w,c
  8237   0028B0  6E23               	movwf	(??___flge+1)^0,c
  8238   0028B2  0E80               	movlw	128
  8239   0028B4  141C               	andwf	(___flge@ff1+2)^0,w,c
  8240   0028B6  6E24               	movwf	(??___flge+2)^0,c
  8241   0028B8  0E7F               	movlw	127
  8242   0028BA  141D               	andwf	(___flge@ff1+3)^0,w,c
  8243   0028BC  6E25               	movwf	(??___flge+3)^0,c
  8244   0028BE  5022               	movf	??___flge^0,w,c
  8245   0028C0  1023               	iorwf	(??___flge+1)^0,w,c
  8246   0028C2  1024               	iorwf	(??___flge+2)^0,w,c
  8247   0028C4  1025               	iorwf	(??___flge+3)^0,w,c
  8248   0028C6  A4D8               	btfss	status,2,c
  8249   0028C8  EF68  F014         	goto	u4921
  8250   0028CC  EF6A  F014         	goto	u4920
  8251   0028D0                     u4921:
  8252   0028D0  EF72  F014         	goto	l6090
  8253   0028D4                     u4920:
  8254   0028D4  0E00               	movlw	0
  8255   0028D6  6E1A               	movwf	___flge@ff1^0,c
  8256   0028D8  0E00               	movlw	0
  8257   0028DA  6E1B               	movwf	(___flge@ff1+1)^0,c
  8258   0028DC  0E00               	movlw	0
  8259   0028DE  6E1C               	movwf	(___flge@ff1+2)^0,c
  8260   0028E0  0E00               	movlw	0
  8261   0028E2  6E1D               	movwf	(___flge@ff1+3)^0,c
  8262   0028E4                     l6090:
  8263   0028E4  0E00               	movlw	0
  8264   0028E6  141E               	andwf	___flge@ff2^0,w,c
  8265   0028E8  6E22               	movwf	??___flge^0,c
  8266   0028EA  0E00               	movlw	0
  8267   0028EC  141F               	andwf	(___flge@ff2+1)^0,w,c
  8268   0028EE  6E23               	movwf	(??___flge+1)^0,c
  8269   0028F0  0E80               	movlw	128
  8270   0028F2  1420               	andwf	(___flge@ff2+2)^0,w,c
  8271   0028F4  6E24               	movwf	(??___flge+2)^0,c
  8272   0028F6  0E7F               	movlw	127
  8273   0028F8  1421               	andwf	(___flge@ff2+3)^0,w,c
  8274   0028FA  6E25               	movwf	(??___flge+3)^0,c
  8275   0028FC  5022               	movf	??___flge^0,w,c
  8276   0028FE  1023               	iorwf	(??___flge+1)^0,w,c
  8277   002900  1024               	iorwf	(??___flge+2)^0,w,c
  8278   002902  1025               	iorwf	(??___flge+3)^0,w,c
  8279   002904  A4D8               	btfss	status,2,c
  8280   002906  EF87  F014         	goto	u4931
  8281   00290A  EF89  F014         	goto	u4930
  8282   00290E                     u4931:
  8283   00290E  EF91  F014         	goto	l6094
  8284   002912                     u4930:
  8285   002912  0E00               	movlw	0
  8286   002914  6E1E               	movwf	___flge@ff2^0,c
  8287   002916  0E00               	movlw	0
  8288   002918  6E1F               	movwf	(___flge@ff2+1)^0,c
  8289   00291A  0E00               	movlw	0
  8290   00291C  6E20               	movwf	(___flge@ff2+2)^0,c
  8291   00291E  0E00               	movlw	0
  8292   002920  6E21               	movwf	(___flge@ff2+3)^0,c
  8293   002922                     l6094:
  8294   002922  AE1D               	btfss	(___flge@ff1+3)^0,7,c
  8295   002924  EF96  F014         	goto	u4941
  8296   002928  EF98  F014         	goto	u4940
  8297   00292C                     u4941:
  8298   00292C  EFA1  F014         	goto	l6098
  8299   002930                     u4940:
  8300   002930  6C1A               	negf	___flge@ff1^0,c
  8301   002932  1E1B               	comf	(___flge@ff1+1)^0,f,c
  8302   002934  B0D8               	btfsc	status,0,c
  8303   002936  2A1B               	incf	(___flge@ff1+1)^0,f,c
  8304   002938  1E1C               	comf	(___flge@ff1+2)^0,f,c
  8305   00293A  B0D8               	btfsc	status,0,c
  8306   00293C  2A1C               	incf	(___flge@ff1+2)^0,f,c
  8307   00293E  0E80               	movlw	128
  8308   002940  561D               	subfwb	(___flge@ff1+3)^0,f,c
  8309   002942                     l6098:
  8310   002942  AE21               	btfss	(___flge@ff2+3)^0,7,c
  8311   002944  EFA6  F014         	goto	u4951
  8312   002948  EFA8  F014         	goto	u4950
  8313   00294C                     u4951:
  8314   00294C  EFB1  F014         	goto	l1081
  8315   002950                     u4950:
  8316   002950  6C1E               	negf	___flge@ff2^0,c
  8317   002952  1E1F               	comf	(___flge@ff2+1)^0,f,c
  8318   002954  B0D8               	btfsc	status,0,c
  8319   002956  2A1F               	incf	(___flge@ff2+1)^0,f,c
  8320   002958  1E20               	comf	(___flge@ff2+2)^0,f,c
  8321   00295A  B0D8               	btfsc	status,0,c
  8322   00295C  2A20               	incf	(___flge@ff2+2)^0,f,c
  8323   00295E  0E80               	movlw	128
  8324   002960  5621               	subfwb	(___flge@ff2+3)^0,f,c
  8325   002962                     l1081:
  8326   002962  0E00               	movlw	0
  8327   002964  1A1A               	xorwf	___flge@ff1^0,f,c
  8328   002966  0E00               	movlw	0
  8329   002968  1A1B               	xorwf	(___flge@ff1+1)^0,f,c
  8330   00296A  0E00               	movlw	0
  8331   00296C  1A1C               	xorwf	(___flge@ff1+2)^0,f,c
  8332   00296E  0E80               	movlw	128
  8333   002970  1A1D               	xorwf	(___flge@ff1+3)^0,f,c
  8334   002972  0E00               	movlw	0
  8335   002974  1A1E               	xorwf	___flge@ff2^0,f,c
  8336   002976  0E00               	movlw	0
  8337   002978  1A1F               	xorwf	(___flge@ff2+1)^0,f,c
  8338   00297A  0E00               	movlw	0
  8339   00297C  1A20               	xorwf	(___flge@ff2+2)^0,f,c
  8340   00297E  0E80               	movlw	128
  8341   002980  1A21               	xorwf	(___flge@ff2+3)^0,f,c
  8342   002982  501E               	movf	___flge@ff2^0,w,c
  8343   002984  5C1A               	subwf	___flge@ff1^0,w,c
  8344   002986  501F               	movf	(___flge@ff2+1)^0,w,c
  8345   002988  581B               	subwfb	(___flge@ff1+1)^0,w,c
  8346   00298A  5020               	movf	(___flge@ff2+2)^0,w,c
  8347   00298C  581C               	subwfb	(___flge@ff1+2)^0,w,c
  8348   00298E  5021               	movf	(___flge@ff2+3)^0,w,c
  8349   002990  581D               	subwfb	(___flge@ff1+3)^0,w,c
  8350   002992  B0D8               	btfsc	status,0,c
  8351   002994  EFCE  F014         	goto	u4961
  8352   002998  EFD0  F014         	goto	u4960
  8353   00299C                     u4961:
  8354   00299C  EFD3  F014         	goto	l6104
  8355   0029A0                     u4960:
  8356   0029A0  90D8               	bcf	status,0,c
  8357   0029A2  EFD4  F014         	goto	l1086
  8358   0029A6                     l6104:
  8359   0029A6  80D8               	bsf	status,0,c
  8360   0029A8                     l1086:
  8361   0029A8  0012               	return		;funcret
  8362   0029AA                     __end_of___flge:
  8363                           	callstack 0
  8364                           
  8365 ;; *************** function _SYSTEM_Initialize *****************
  8366 ;; Defined at:
  8367 ;;		line 50 in file "mcc_generated_files/mcc.c"
  8368 ;; Parameters:    Size  Location     Type
  8369 ;;		None
  8370 ;; Auto vars:     Size  Location     Type
  8371 ;;		None
  8372 ;; Return value:  Size  Location     Type
  8373 ;;                  1    wreg      void 
  8374 ;; Registers used:
  8375 ;;		wreg, status,2, status,0, cstack
  8376 ;; Tracked objects:
  8377 ;;		On entry : 0/0
  8378 ;;		On exit  : 0/0
  8379 ;;		Unchanged: 0/0
  8380 ;; Data sizes:     COMRAM   BANK0   BANK1   BANK2   BANK3   BANK4   BANK5   BANK6   BANK7   BANK8   BANK9  BANK10  BANK1
      +1  BANK12  BANK13  BANK14
  8381 ;;      Params:         0       0       0       0       0       0       0       0       0       0       0       0       
      +0       0       0       0
  8382 ;;      Locals:         0       0       0       0       0       0       0       0       0       0       0       0       
      +0       0       0       0
  8383 ;;      Temps:          0       0       0       0       0       0       0       0       0       0       0       0       
      +0       0       0       0
  8384 ;;      Totals:         0       0       0       0       0       0       0       0       0       0       0       0       
      +0       0       0       0
  8385 ;;Total ram usage:        0 bytes
  8386 ;; Hardware stack levels used: 1
  8387 ;; Hardware stack levels required when called: 9
  8388 ;; This function calls:
  8389 ;;		_EUSART1_Initialize
  8390 ;;		_I2C1_Initialize
  8391 ;;		_INTERRUPT_Initialize
  8392 ;;		_OSCILLATOR_Initialize
  8393 ;;		_PIN_MANAGER_Initialize
  8394 ;;		_PMD_Initialize
  8395 ;;		_TMR2_Initialize
  8396 ;; This function is called by:
  8397 ;;		_main
  8398 ;; This function uses a non-reentrant model
  8399 ;;
  8400                           
  8401                           	psect	text55
  8402   003802                     __ptext55:
  8403                           	callstack 0
  8404   003802                     _SYSTEM_Initialize:
  8405                           	callstack 21
  8406   003802                     
  8407                           ;mcc_generated_files/mcc.c: 52:     INTERRUPT_Initialize();
  8408   003802  EC1F  F01D         	call	_INTERRUPT_Initialize	;wreg free
  8409   003806                     
  8410                           ;mcc_generated_files/mcc.c: 53:     PMD_Initialize();
  8411   003806  EC2D  F01C         	call	_PMD_Initialize	;wreg free
  8412   00380A                     
  8413                           ;mcc_generated_files/mcc.c: 54:     I2C1_Initialize();
  8414   00380A  EC77  F01C         	call	_I2C1_Initialize	;wreg free
  8415   00380E                     
  8416                           ;mcc_generated_files/mcc.c: 55:     PIN_MANAGER_Initialize();
  8417   00380E  ECF7  F018         	call	_PIN_MANAGER_Initialize	;wreg free
  8418   003812                     
  8419                           ;mcc_generated_files/mcc.c: 56:     OSCILLATOR_Initialize();
  8420   003812  EC5F  F01C         	call	_OSCILLATOR_Initialize	;wreg free
  8421   003816                     
  8422                           ;mcc_generated_files/mcc.c: 57:     TMR2_Initialize();
  8423   003816  EC10  F01C         	call	_TMR2_Initialize	;wreg free
  8424   00381A                     
  8425                           ;mcc_generated_files/mcc.c: 58:     EUSART1_Initialize();
  8426   00381A  EC9A  F01A         	call	_EUSART1_Initialize	;wreg free
  8427   00381E  0012               	return		;funcret
  8428   003820                     __end_of_SYSTEM_Initialize:
  8429                           	callstack 0
  8430                           
  8431 ;; *************** function _TMR2_Initialize *****************
  8432 ;; Defined at:
  8433 ;;		line 62 in file "mcc_generated_files/tmr2.c"
  8434 ;; Parameters:    Size  Location     Type
  8435 ;;		None
  8436 ;; Auto vars:     Size  Location     Type
  8437 ;;		None
  8438 ;; Return value:  Size  Location     Type
  8439 ;;                  1    wreg      void 
  8440 ;; Registers used:
  8441 ;;		wreg, status,2
  8442 ;; Tracked objects:
  8443 ;;		On entry : 0/0
  8444 ;;		On exit  : 0/0
  8445 ;;		Unchanged: 0/0
  8446 ;; Data sizes:     COMRAM   BANK0   BANK1   BANK2   BANK3   BANK4   BANK5   BANK6   BANK7   BANK8   BANK9  BANK10  BANK1
      +1  BANK12  BANK13  BANK14
  8447 ;;      Params:         0       0       0       0       0       0       0       0       0       0       0       0       
      +0       0       0       0
  8448 ;;      Locals:         0       0       0       0       0       0       0       0       0       0       0       0       
      +0       0       0       0
  8449 ;;      Temps:          0       0       0       0       0       0       0       0       0       0       0       0       
      +0       0       0       0
  8450 ;;      Totals:         0       0       0       0       0       0       0       0       0       0       0       0       
      +0       0       0       0
  8451 ;;Total ram usage:        0 bytes
  8452 ;; Hardware stack levels used: 1
  8453 ;; Hardware stack levels required when called: 7
  8454 ;; This function calls:
  8455 ;;		Nothing
  8456 ;; This function is called by:
  8457 ;;		_SYSTEM_Initialize
  8458 ;; This function uses a non-reentrant model
  8459 ;;
  8460                           
  8461                           	psect	text56
  8462   003820                     __ptext56:
  8463                           	callstack 0
  8464   003820                     _TMR2_Initialize:
  8465                           	callstack 22
  8466   003820                     
  8467                           ;mcc_generated_files/tmr2.c: 67:     T2CLKCON = 0x03;
  8468   003820  0E03               	movlw	3
  8469   003822  6EBF               	movwf	191,c	;volatile
  8470                           
  8471                           ;mcc_generated_files/tmr2.c: 70:     T2HLT = 0x00;
  8472   003824  0E00               	movlw	0
  8473   003826  6EBE               	movwf	190,c	;volatile
  8474                           
  8475                           ;mcc_generated_files/tmr2.c: 73:     T2RST = 0x00;
  8476   003828  0E00               	movlw	0
  8477   00382A  6EC0               	movwf	192,c	;volatile
  8478                           
  8479                           ;mcc_generated_files/tmr2.c: 76:     T2PR = 0xF9;
  8480   00382C  0EF9               	movlw	249
  8481   00382E  6EBC               	movwf	188,c	;volatile
  8482                           
  8483                           ;mcc_generated_files/tmr2.c: 79:     T2TMR = 0x00;
  8484   003830  0E00               	movlw	0
  8485   003832  6EBB               	movwf	187,c	;volatile
  8486   003834                     
  8487                           ;mcc_generated_files/tmr2.c: 82:     PIR4bits.TMR2IF = 0;
  8488   003834  010E               	movlb	14	; () banked
  8489   003836  93CE               	bcf	206,1,b	;volatile
  8490                           
  8491                           ;mcc_generated_files/tmr2.c: 85:     T2CON = 0xC3;
  8492   003838  0EC3               	movlw	195
  8493   00383A  6EBD               	movwf	189,c	;volatile
  8494   00383C                     
  8495                           ; BSR set to: 14
  8496   00383C  0012               	return		;funcret
  8497   00383E                     __end_of_TMR2_Initialize:
  8498                           	callstack 0
  8499                           
  8500 ;; *************** function _PMD_Initialize *****************
  8501 ;; Defined at:
  8502 ;;		line 75 in file "mcc_generated_files/mcc.c"
  8503 ;; Parameters:    Size  Location     Type
  8504 ;;		None
  8505 ;; Auto vars:     Size  Location     Type
  8506 ;;		None
  8507 ;; Return value:  Size  Location     Type
  8508 ;;                  1    wreg      void 
  8509 ;; Registers used:
  8510 ;;		wreg, status,2
  8511 ;; Tracked objects:
  8512 ;;		On entry : 0/0
  8513 ;;		On exit  : 0/0
  8514 ;;		Unchanged: 0/0
  8515 ;; Data sizes:     COMRAM   BANK0   BANK1   BANK2   BANK3   BANK4   BANK5   BANK6   BANK7   BANK8   BANK9  BANK10  BANK1
      +1  BANK12  BANK13  BANK14
  8516 ;;      Params:         0       0       0       0       0       0       0       0       0       0       0       0       
      +0       0       0       0
  8517 ;;      Locals:         0       0       0       0       0       0       0       0       0       0       0       0       
      +0       0       0       0
  8518 ;;      Temps:          0       0       0       0       0       0       0       0       0       0       0       0       
      +0       0       0       0
  8519 ;;      Totals:         0       0       0       0       0       0       0       0       0       0       0       0       
      +0       0       0       0
  8520 ;;Total ram usage:        0 bytes
  8521 ;; Hardware stack levels used: 1
  8522 ;; Hardware stack levels required when called: 7
  8523 ;; This function calls:
  8524 ;;		Nothing
  8525 ;; This function is called by:
  8526 ;;		_SYSTEM_Initialize
  8527 ;; This function uses a non-reentrant model
  8528 ;;
  8529                           
  8530                           	psect	text57
  8531   00385A                     __ptext57:
  8532                           	callstack 0
  8533   00385A                     _PMD_Initialize:
  8534                           	callstack 22
  8535   00385A                     
  8536                           ;mcc_generated_files/mcc.c: 78:     PMD0 = 0x00;
  8537   00385A  0E00               	movlw	0
  8538   00385C  010E               	movlb	14	; () banked
  8539   00385E  6FE1               	movwf	225,b	;volatile
  8540                           
  8541                           ;mcc_generated_files/mcc.c: 80:     PMD1 = 0x00;
  8542   003860  0E00               	movlw	0
  8543   003862  6FE2               	movwf	226,b	;volatile
  8544                           
  8545                           ;mcc_generated_files/mcc.c: 82:     PMD2 = 0x00;
  8546   003864  0E00               	movlw	0
  8547   003866  6FE3               	movwf	227,b	;volatile
  8548                           
  8549                           ;mcc_generated_files/mcc.c: 84:     PMD3 = 0x00;
  8550   003868  0E00               	movlw	0
  8551   00386A  6FE4               	movwf	228,b	;volatile
  8552                           
  8553                           ;mcc_generated_files/mcc.c: 86:     PMD4 = 0x00;
  8554   00386C  0E00               	movlw	0
  8555   00386E  6FE5               	movwf	229,b	;volatile
  8556                           
  8557                           ;mcc_generated_files/mcc.c: 88:     PMD5 = 0x00;
  8558   003870  0E00               	movlw	0
  8559   003872  6FE6               	movwf	230,b	;volatile
  8560   003874                     
  8561                           ; BSR set to: 14
  8562   003874  0012               	return		;funcret
  8563   003876                     __end_of_PMD_Initialize:
  8564                           	callstack 0
  8565                           
  8566 ;; *************** function _PIN_MANAGER_Initialize *****************
  8567 ;; Defined at:
  8568 ;;		line 55 in file "mcc_generated_files/pin_manager.c"
  8569 ;; Parameters:    Size  Location     Type
  8570 ;;		None
  8571 ;; Auto vars:     Size  Location     Type
  8572 ;;		None
  8573 ;; Return value:  Size  Location     Type
  8574 ;;                  1    wreg      void 
  8575 ;; Registers used:
  8576 ;;		wreg, status,2
  8577 ;; Tracked objects:
  8578 ;;		On entry : 0/0
  8579 ;;		On exit  : 0/0
  8580 ;;		Unchanged: 0/0
  8581 ;; Data sizes:     COMRAM   BANK0   BANK1   BANK2   BANK3   BANK4   BANK5   BANK6   BANK7   BANK8   BANK9  BANK10  BANK1
      +1  BANK12  BANK13  BANK14
  8582 ;;      Params:         0       0       0       0       0       0       0       0       0       0       0       0       
      +0       0       0       0
  8583 ;;      Locals:         0       0       0       0       0       0       0       0       0       0       0       0       
      +0       0       0       0
  8584 ;;      Temps:          0       0       0       0       0       0       0       0       0       0       0       0       
      +0       0       0       0
  8585 ;;      Totals:         0       0       0       0       0       0       0       0       0       0       0       0       
      +0       0       0       0
  8586 ;;Total ram usage:        0 bytes
  8587 ;; Hardware stack levels used: 1
  8588 ;; Hardware stack levels required when called: 7
  8589 ;; This function calls:
  8590 ;;		Nothing
  8591 ;; This function is called by:
  8592 ;;		_SYSTEM_Initialize
  8593 ;; This function uses a non-reentrant model
  8594 ;;
  8595                           
  8596                           	psect	text58
  8597   0031EE                     __ptext58:
  8598                           	callstack 0
  8599   0031EE                     _PIN_MANAGER_Initialize:
  8600                           	callstack 22
  8601   0031EE                     
  8602                           ;mcc_generated_files/pin_manager.c: 60:     LATA = 0x00;
  8603   0031EE  0E00               	movlw	0
  8604   0031F0  6E83               	movwf	131,c	;volatile
  8605                           
  8606                           ;mcc_generated_files/pin_manager.c: 61:     LATB = 0x00;
  8607   0031F2  0E00               	movlw	0
  8608   0031F4  6E84               	movwf	132,c	;volatile
  8609                           
  8610                           ;mcc_generated_files/pin_manager.c: 62:     LATC = 0x00;
  8611   0031F6  0E00               	movlw	0
  8612   0031F8  6E85               	movwf	133,c	;volatile
  8613                           
  8614                           ;mcc_generated_files/pin_manager.c: 67:     TRISA = 0xE7;
  8615   0031FA  0EE7               	movlw	231
  8616   0031FC  6E88               	movwf	136,c	;volatile
  8617                           
  8618                           ;mcc_generated_files/pin_manager.c: 68:     TRISB = 0xC0;
  8619   0031FE  0EC0               	movlw	192
  8620   003200  6E89               	movwf	137,c	;volatile
  8621                           
  8622                           ;mcc_generated_files/pin_manager.c: 69:     TRISC = 0xBF;
  8623   003202  0EBF               	movlw	191
  8624   003204  6E8A               	movwf	138,c	;volatile
  8625                           
  8626                           ;mcc_generated_files/pin_manager.c: 74:     ANSELC = 0x27;
  8627   003206  0E27               	movlw	39
  8628   003208  010F               	movlb	15	; () banked
  8629   00320A  6F21               	movwf	33,b	;volatile
  8630                           
  8631                           ;mcc_generated_files/pin_manager.c: 75:     ANSELB = 0xC0;
  8632   00320C  0EC0               	movlw	192
  8633   00320E  6F19               	movwf	25,b	;volatile
  8634                           
  8635                           ;mcc_generated_files/pin_manager.c: 76:     ANSELA = 0xF8;
  8636   003210  0EF8               	movlw	248
  8637   003212  6F11               	movwf	17,b	;volatile
  8638                           
  8639                           ;mcc_generated_files/pin_manager.c: 81:     WPUE = 0x00;
  8640   003214  0E00               	movlw	0
  8641   003216  6F2D               	movwf	45,b	;volatile
  8642                           
  8643                           ;mcc_generated_files/pin_manager.c: 82:     WPUB = 0x00;
  8644   003218  0E00               	movlw	0
  8645   00321A  6F18               	movwf	24,b	;volatile
  8646                           
  8647                           ;mcc_generated_files/pin_manager.c: 83:     WPUA = 0x00;
  8648   00321C  0E00               	movlw	0
  8649   00321E  6F10               	movwf	16,b	;volatile
  8650                           
  8651                           ;mcc_generated_files/pin_manager.c: 84:     WPUC = 0x00;
  8652   003220  0E00               	movlw	0
  8653   003222  6F20               	movwf	32,b	;volatile
  8654                           
  8655                           ;mcc_generated_files/pin_manager.c: 89:     ODCONA = 0x00;
  8656   003224  0E00               	movlw	0
  8657   003226  6F0F               	movwf	15,b	;volatile
  8658                           
  8659                           ;mcc_generated_files/pin_manager.c: 90:     ODCONB = 0x00;
  8660   003228  0E00               	movlw	0
  8661   00322A  6F17               	movwf	23,b	;volatile
  8662                           
  8663                           ;mcc_generated_files/pin_manager.c: 91:     ODCONC = 0x00;
  8664   00322C  0E00               	movlw	0
  8665   00322E  6F1F               	movwf	31,b	;volatile
  8666   003230                     
  8667                           ; BSR set to: 15
  8668                           ;mcc_generated_files/pin_manager.c: 96:     SLRCONA = 0xFF;
  8669   003230  690E               	setf	14,b	;volatile
  8670   003232                     
  8671                           ; BSR set to: 15
  8672                           ;mcc_generated_files/pin_manager.c: 97:     SLRCONB = 0xFF;
  8673   003232  6916               	setf	22,b	;volatile
  8674   003234                     
  8675                           ; BSR set to: 15
  8676                           ;mcc_generated_files/pin_manager.c: 98:     SLRCONC = 0xFF;
  8677   003234  691E               	setf	30,b	;volatile
  8678   003236                     
  8679                           ; BSR set to: 15
  8680                           ;mcc_generated_files/pin_manager.c: 103:     INLVLA = 0xFF;
  8681   003236  690D               	setf	13,b	;volatile
  8682   003238                     
  8683                           ; BSR set to: 15
  8684                           ;mcc_generated_files/pin_manager.c: 104:     INLVLB = 0xFF;
  8685   003238  6915               	setf	21,b	;volatile
  8686   00323A                     
  8687                           ; BSR set to: 15
  8688                           ;mcc_generated_files/pin_manager.c: 105:     INLVLC = 0xFF;
  8689   00323A  691D               	setf	29,b	;volatile
  8690                           
  8691                           ;mcc_generated_files/pin_manager.c: 106:     INLVLE = 0x08;
  8692   00323C  0E08               	movlw	8
  8693   00323E  6F2A               	movwf	42,b	;volatile
  8694                           
  8695                           ;mcc_generated_files/pin_manager.c: 115:     SSP1CLKPPS = 0x13;
  8696   003240  0E13               	movlw	19
  8697   003242  010E               	movlb	14	; () banked
  8698   003244  6FB7               	movwf	183,b	;volatile
  8699                           
  8700                           ;mcc_generated_files/pin_manager.c: 116:     RX1PPS = 0x17;
  8701   003246  0E17               	movlw	23
  8702   003248  6FB5               	movwf	181,b	;volatile
  8703                           
  8704                           ;mcc_generated_files/pin_manager.c: 117:     RC3PPS = 0x0F;
  8705   00324A  0E0F               	movlw	15
  8706   00324C  6FFA               	movwf	250,b	;volatile
  8707                           
  8708                           ;mcc_generated_files/pin_manager.c: 118:     RC4PPS = 0x10;
  8709   00324E  0E10               	movlw	16
  8710   003250  6FFB               	movwf	251,b	;volatile
  8711                           
  8712                           ;mcc_generated_files/pin_manager.c: 119:     RC6PPS = 0x09;
  8713   003252  0E09               	movlw	9
  8714   003254  6FFD               	movwf	253,b	;volatile
  8715                           
  8716                           ;mcc_generated_files/pin_manager.c: 120:     SSP1DATPPS = 0x14;
  8717   003256  0E14               	movlw	20
  8718   003258  6FB8               	movwf	184,b	;volatile
  8719   00325A                     
  8720                           ; BSR set to: 14
  8721   00325A  0012               	return		;funcret
  8722   00325C                     __end_of_PIN_MANAGER_Initialize:
  8723                           	callstack 0
  8724                           
  8725 ;; *************** function _OSCILLATOR_Initialize *****************
  8726 ;; Defined at:
  8727 ;;		line 61 in file "mcc_generated_files/mcc.c"
  8728 ;; Parameters:    Size  Location     Type
  8729 ;;		None
  8730 ;; Auto vars:     Size  Location     Type
  8731 ;;		None
  8732 ;; Return value:  Size  Location     Type
  8733 ;;                  1    wreg      void 
  8734 ;; Registers used:
  8735 ;;		wreg, status,2
  8736 ;; Tracked objects:
  8737 ;;		On entry : 0/0
  8738 ;;		On exit  : 0/0
  8739 ;;		Unchanged: 0/0
  8740 ;; Data sizes:     COMRAM   BANK0   BANK1   BANK2   BANK3   BANK4   BANK5   BANK6   BANK7   BANK8   BANK9  BANK10  BANK1
      +1  BANK12  BANK13  BANK14
  8741 ;;      Params:         0       0       0       0       0       0       0       0       0       0       0       0       
      +0       0       0       0
  8742 ;;      Locals:         0       0       0       0       0       0       0       0       0       0       0       0       
      +0       0       0       0
  8743 ;;      Temps:          0       0       0       0       0       0       0       0       0       0       0       0       
      +0       0       0       0
  8744 ;;      Totals:         0       0       0       0       0       0       0       0       0       0       0       0       
      +0       0       0       0
  8745 ;;Total ram usage:        0 bytes
  8746 ;; Hardware stack levels used: 1
  8747 ;; Hardware stack levels required when called: 7
  8748 ;; This function calls:
  8749 ;;		Nothing
  8750 ;; This function is called by:
  8751 ;;		_SYSTEM_Initialize
  8752 ;; This function uses a non-reentrant model
  8753 ;;
  8754                           
  8755                           	psect	text59
  8756   0038BE                     __ptext59:
  8757                           	callstack 0
  8758   0038BE                     _OSCILLATOR_Initialize:
  8759                           	callstack 22
  8760   0038BE                     
  8761                           ;mcc_generated_files/mcc.c: 64:     OSCCON1 = 0x60;
  8762   0038BE  0E60               	movlw	96
  8763   0038C0  010E               	movlb	14	; () banked
  8764   0038C2  6FD8               	movwf	216,b	;volatile
  8765                           
  8766                           ;mcc_generated_files/mcc.c: 66:     OSCCON3 = 0x00;
  8767   0038C4  0E00               	movlw	0
  8768   0038C6  6FDA               	movwf	218,b	;volatile
  8769                           
  8770                           ;mcc_generated_files/mcc.c: 68:     OSCEN = 0x00;
  8771   0038C8  0E00               	movlw	0
  8772   0038CA  6FDC               	movwf	220,b	;volatile
  8773                           
  8774                           ;mcc_generated_files/mcc.c: 70:     OSCFRQ = 0x05;
  8775   0038CC  0E05               	movlw	5
  8776   0038CE  6FDE               	movwf	222,b	;volatile
  8777                           
  8778                           ;mcc_generated_files/mcc.c: 72:     OSCTUNE = 0x00;
  8779   0038D0  0E00               	movlw	0
  8780   0038D2  6FDD               	movwf	221,b	;volatile
  8781   0038D4                     
  8782                           ; BSR set to: 14
  8783   0038D4  0012               	return		;funcret
  8784   0038D6                     __end_of_OSCILLATOR_Initialize:
  8785                           	callstack 0
  8786                           
  8787 ;; *************** function _INTERRUPT_Initialize *****************
  8788 ;; Defined at:
  8789 ;;		line 52 in file "mcc_generated_files/interrupt_manager.c"
  8790 ;; Parameters:    Size  Location     Type
  8791 ;;		None
  8792 ;; Auto vars:     Size  Location     Type
  8793 ;;		None
  8794 ;; Return value:  Size  Location     Type
  8795 ;;                  1    wreg      void 
  8796 ;; Registers used:
  8797 ;;		None
  8798 ;; Tracked objects:
  8799 ;;		On entry : 0/0
  8800 ;;		On exit  : 0/0
  8801 ;;		Unchanged: 0/0
  8802 ;; Data sizes:     COMRAM   BANK0   BANK1   BANK2   BANK3   BANK4   BANK5   BANK6   BANK7   BANK8   BANK9  BANK10  BANK1
      +1  BANK12  BANK13  BANK14
  8803 ;;      Params:         0       0       0       0       0       0       0       0       0       0       0       0       
      +0       0       0       0
  8804 ;;      Locals:         0       0       0       0       0       0       0       0       0       0       0       0       
      +0       0       0       0
  8805 ;;      Temps:          0       0       0       0       0       0       0       0       0       0       0       0       
      +0       0       0       0
  8806 ;;      Totals:         0       0       0       0       0       0       0       0       0       0       0       0       
      +0       0       0       0
  8807 ;;Total ram usage:        0 bytes
  8808 ;; Hardware stack levels used: 1
  8809 ;; Hardware stack levels required when called: 7
  8810 ;; This function calls:
  8811 ;;		Nothing
  8812 ;; This function is called by:
  8813 ;;		_SYSTEM_Initialize
  8814 ;; This function uses a non-reentrant model
  8815 ;;
  8816                           
  8817                           	psect	text60
  8818   003A3E                     __ptext60:
  8819                           	callstack 0
  8820   003A3E                     _INTERRUPT_Initialize:
  8821                           	callstack 22
  8822   003A3E                     
  8823                           ;mcc_generated_files/interrupt_manager.c: 55:     INTCONbits.IPEN = 0;
  8824   003A3E  9AF2               	bcf	242,5,c	;volatile
  8825   003A40  0012               	return		;funcret
  8826   003A42                     __end_of_INTERRUPT_Initialize:
  8827                           	callstack 0
  8828                           
  8829 ;; *************** function _I2C1_Initialize *****************
  8830 ;; Defined at:
  8831 ;;		line 167 in file "mcc_generated_files/i2c1_master.c"
  8832 ;; Parameters:    Size  Location     Type
  8833 ;;		None
  8834 ;; Auto vars:     Size  Location     Type
  8835 ;;		None
  8836 ;; Return value:  Size  Location     Type
  8837 ;;                  1    wreg      void 
  8838 ;; Registers used:
  8839 ;;		wreg, status,2
  8840 ;; Tracked objects:
  8841 ;;		On entry : 0/0
  8842 ;;		On exit  : 0/0
  8843 ;;		Unchanged: 0/0
  8844 ;; Data sizes:     COMRAM   BANK0   BANK1   BANK2   BANK3   BANK4   BANK5   BANK6   BANK7   BANK8   BANK9  BANK10  BANK1
      +1  BANK12  BANK13  BANK14
  8845 ;;      Params:         0       0       0       0       0       0       0       0       0       0       0       0       
      +0       0       0       0
  8846 ;;      Locals:         0       0       0       0       0       0       0       0       0       0       0       0       
      +0       0       0       0
  8847 ;;      Temps:          0       0       0       0       0       0       0       0       0       0       0       0       
      +0       0       0       0
  8848 ;;      Totals:         0       0       0       0       0       0       0       0       0       0       0       0       
      +0       0       0       0
  8849 ;;Total ram usage:        0 bytes
  8850 ;; Hardware stack levels used: 1
  8851 ;; Hardware stack levels required when called: 7
  8852 ;; This function calls:
  8853 ;;		Nothing
  8854 ;; This function is called by:
  8855 ;;		_SYSTEM_Initialize
  8856 ;; This function uses a non-reentrant model
  8857 ;;
  8858                           
  8859                           	psect	text61
  8860   0038EE                     __ptext61:
  8861                           	callstack 0
  8862   0038EE                     _I2C1_Initialize:
  8863                           	callstack 22
  8864   0038EE                     
  8865                           ;mcc_generated_files/i2c1_master.c: 169:     SSP1STAT = 0x00;
  8866   0038EE  0E00               	movlw	0
  8867   0038F0  6E95               	movwf	149,c	;volatile
  8868                           
  8869                           ;mcc_generated_files/i2c1_master.c: 170:     SSP1CON1 = 0x08;
  8870   0038F2  0E08               	movlw	8
  8871   0038F4  6E96               	movwf	150,c	;volatile
  8872                           
  8873                           ;mcc_generated_files/i2c1_master.c: 171:     SSP1CON2 = 0x00;
  8874   0038F6  0E00               	movlw	0
  8875   0038F8  6E97               	movwf	151,c	;volatile
  8876                           
  8877                           ;mcc_generated_files/i2c1_master.c: 172:     SSP1ADD = 0x27;
  8878   0038FA  0E27               	movlw	39
  8879   0038FC  6E93               	movwf	147,c	;volatile
  8880   0038FE                     
  8881                           ;mcc_generated_files/i2c1_master.c: 173:     SSP1CON1bits.SSPEN = 0;
  8882   0038FE  9A96               	bcf	150,5,c	;volatile
  8883   003900  0012               	return		;funcret
  8884   003902                     __end_of_I2C1_Initialize:
  8885                           	callstack 0
  8886                           
  8887 ;; *************** function _EUSART1_Initialize *****************
  8888 ;; Defined at:
  8889 ;;		line 66 in file "mcc_generated_files/eusart1.c"
  8890 ;; Parameters:    Size  Location     Type
  8891 ;;		None
  8892 ;; Auto vars:     Size  Location     Type
  8893 ;;		None
  8894 ;; Return value:  Size  Location     Type
  8895 ;;                  1    wreg      void 
  8896 ;; Registers used:
  8897 ;;		wreg, status,2, status,0, cstack
  8898 ;; Tracked objects:
  8899 ;;		On entry : 0/0
  8900 ;;		On exit  : 0/0
  8901 ;;		Unchanged: 0/0
  8902 ;; Data sizes:     COMRAM   BANK0   BANK1   BANK2   BANK3   BANK4   BANK5   BANK6   BANK7   BANK8   BANK9  BANK10  BANK1
      +1  BANK12  BANK13  BANK14
  8903 ;;      Params:         0       0       0       0       0       0       0       0       0       0       0       0       
      +0       0       0       0
  8904 ;;      Locals:         0       0       0       0       0       0       0       0       0       0       0       0       
      +0       0       0       0
  8905 ;;      Temps:          0       0       0       0       0       0       0       0       0       0       0       0       
      +0       0       0       0
  8906 ;;      Totals:         0       0       0       0       0       0       0       0       0       0       0       0       
      +0       0       0       0
  8907 ;;Total ram usage:        0 bytes
  8908 ;; Hardware stack levels used: 1
  8909 ;; Hardware stack levels required when called: 8
  8910 ;; This function calls:
  8911 ;;		_EUSART1_SetErrorHandler
  8912 ;;		_EUSART1_SetFramingErrorHandler
  8913 ;;		_EUSART1_SetOverrunErrorHandler
  8914 ;; This function is called by:
  8915 ;;		_SYSTEM_Initialize
  8916 ;; This function uses a non-reentrant model
  8917 ;;
  8918                           
  8919                           	psect	text62
  8920   003534                     __ptext62:
  8921                           	callstack 0
  8922   003534                     _EUSART1_Initialize:
  8923                           	callstack 21
  8924   003534                     
  8925                           ;mcc_generated_files/eusart1.c: 71:     BAUD1CON = 0x08;
  8926   003534  0E08               	movlw	8
  8927   003536  6E9F               	movwf	159,c	;volatile
  8928                           
  8929                           ;mcc_generated_files/eusart1.c: 74:     RC1STA = 0x90;
  8930   003538  0E90               	movlw	144
  8931   00353A  6E9D               	movwf	157,c	;volatile
  8932                           
  8933                           ;mcc_generated_files/eusart1.c: 77:     TX1STA = 0x24;
  8934   00353C  0E24               	movlw	36
  8935   00353E  6E9E               	movwf	158,c	;volatile
  8936                           
  8937                           ;mcc_generated_files/eusart1.c: 80:     SP1BRGL = 0xA0;
  8938   003540  0EA0               	movlw	160
  8939   003542  6E9B               	movwf	155,c	;volatile
  8940                           
  8941                           ;mcc_generated_files/eusart1.c: 83:     SP1BRGH = 0x01;
  8942   003544  0E01               	movlw	1
  8943   003546  6E9C               	movwf	156,c	;volatile
  8944   003548                     
  8945                           ;mcc_generated_files/eusart1.c: 86:     EUSART1_SetFramingErrorHandler(EUSART1_DefaultFr
      +                          amingErrorHandler);
  8946   003548  0E00               	movlw	0
  8947   00354A  6E1A               	movwf	EUSART1_SetFramingErrorHandler@interruptHandler^0,c
  8948   00354C  0E00               	movlw	0
  8949   00354E  6E1B               	movwf	(EUSART1_SetFramingErrorHandler@interruptHandler+1)^0,c
  8950   003550  ECC9  F01C         	call	_EUSART1_SetFramingErrorHandler	;wreg free
  8951   003554                     
  8952                           ;mcc_generated_files/eusart1.c: 87:     EUSART1_SetOverrunErrorHandler(EUSART1_DefaultOv
      +                          errunErrorHandler);
  8953   003554  0E00               	movlw	0
  8954   003556  6E1A               	movwf	EUSART1_SetOverrunErrorHandler@interruptHandler^0,c
  8955   003558  0E00               	movlw	0
  8956   00355A  6E1B               	movwf	(EUSART1_SetOverrunErrorHandler@interruptHandler+1)^0,c
  8957   00355C  ECC4  F01C         	call	_EUSART1_SetOverrunErrorHandler	;wreg free
  8958   003560                     
  8959                           ;mcc_generated_files/eusart1.c: 88:     EUSART1_SetErrorHandler(EUSART1_DefaultErrorHand
      +                          ler);
  8960   003560  0E00               	movlw	0
  8961   003562  6E1A               	movwf	EUSART1_SetErrorHandler@interruptHandler^0,c
  8962   003564  0E00               	movlw	0
  8963   003566  6E1B               	movwf	(EUSART1_SetErrorHandler@interruptHandler+1)^0,c
  8964   003568  ECCE  F01C         	call	_EUSART1_SetErrorHandler	;wreg free
  8965   00356C                     
  8966                           ;mcc_generated_files/eusart1.c: 90:     eusart1RxLastError.status = 0;
  8967   00356C  0E00               	movlw	0
  8968   00356E  6E3F               	movwf	_eusart1RxLastError^0,c	;volatile
  8969   003570  0012               	return		;funcret
  8970   003572                     __end_of_EUSART1_Initialize:
  8971                           	callstack 0
  8972                           
  8973 ;; *************** function _EUSART1_SetOverrunErrorHandler *****************
  8974 ;; Defined at:
  8975 ;;		line 170 in file "mcc_generated_files/eusart1.c"
  8976 ;; Parameters:    Size  Location     Type
  8977 ;;  interruptHan    2   25[COMRAM] PTR FTN()void 
  8978 ;;		 -> EUSART1_DefaultOverrunErrorHandler(1), 
  8979 ;; Auto vars:     Size  Location     Type
  8980 ;;		None
  8981 ;; Return value:  Size  Location     Type
  8982 ;;                  1    wreg      void 
  8983 ;; Registers used:
  8984 ;;		wreg, status,2, status,0
  8985 ;; Tracked objects:
  8986 ;;		On entry : 0/0
  8987 ;;		On exit  : 0/0
  8988 ;;		Unchanged: 0/0
  8989 ;; Data sizes:     COMRAM   BANK0   BANK1   BANK2   BANK3   BANK4   BANK5   BANK6   BANK7   BANK8   BANK9  BANK10  BANK1
      +1  BANK12  BANK13  BANK14
  8990 ;;      Params:         2       0       0       0       0       0       0       0       0       0       0       0       
      +0       0       0       0
  8991 ;;      Locals:         0       0       0       0       0       0       0       0       0       0       0       0       
      +0       0       0       0
  8992 ;;      Temps:          0       0       0       0       0       0       0       0       0       0       0       0       
      +0       0       0       0
  8993 ;;      Totals:         2       0       0       0       0       0       0       0       0       0       0       0       
      +0       0       0       0
  8994 ;;Total ram usage:        2 bytes
  8995 ;; Hardware stack levels used: 1
  8996 ;; Hardware stack levels required when called: 7
  8997 ;; This function calls:
  8998 ;;		Nothing
  8999 ;; This function is called by:
  9000 ;;		_EUSART1_Initialize
  9001 ;; This function uses a non-reentrant model
  9002 ;;
  9003                           
  9004                           	psect	text63
  9005   003988                     __ptext63:
  9006                           	callstack 0
  9007   003988                     _EUSART1_SetOverrunErrorHandler:
  9008                           	callstack 21
  9009   003988                     
  9010                           ;mcc_generated_files/eusart1.c: 171:     EUSART1_OverrunErrorHandler = interruptHandler;
  9011   003988  C01A  F042         	movff	EUSART1_SetOverrunErrorHandler@interruptHandler,_EUSART1_OverrunErrorHandler
  9012   00398C  C01B  F043         	movff	EUSART1_SetOverrunErrorHandler@interruptHandler+1,_EUSART1_OverrunErrorHandler+1
  9013   003990  0012               	return		;funcret
  9014   003992                     __end_of_EUSART1_SetOverrunErrorHandler:
  9015                           	callstack 0
  9016                           
  9017 ;; *************** function _EUSART1_SetFramingErrorHandler *****************
  9018 ;; Defined at:
  9019 ;;		line 166 in file "mcc_generated_files/eusart1.c"
  9020 ;; Parameters:    Size  Location     Type
  9021 ;;  interruptHan    2   25[COMRAM] PTR FTN()void 
  9022 ;;		 -> EUSART1_DefaultFramingErrorHandler(1), 
  9023 ;; Auto vars:     Size  Location     Type
  9024 ;;		None
  9025 ;; Return value:  Size  Location     Type
  9026 ;;                  1    wreg      void 
  9027 ;; Registers used:
  9028 ;;		wreg, status,2, status,0
  9029 ;; Tracked objects:
  9030 ;;		On entry : 0/0
  9031 ;;		On exit  : 0/0
  9032 ;;		Unchanged: 0/0
  9033 ;; Data sizes:     COMRAM   BANK0   BANK1   BANK2   BANK3   BANK4   BANK5   BANK6   BANK7   BANK8   BANK9  BANK10  BANK1
      +1  BANK12  BANK13  BANK14
  9034 ;;      Params:         2       0       0       0       0       0       0       0       0       0       0       0       
      +0       0       0       0
  9035 ;;      Locals:         0       0       0       0       0       0       0       0       0       0       0       0       
      +0       0       0       0
  9036 ;;      Temps:          0       0       0       0       0       0       0       0       0       0       0       0       
      +0       0       0       0
  9037 ;;      Totals:         2       0       0       0       0       0       0       0       0       0       0       0       
      +0       0       0       0
  9038 ;;Total ram usage:        2 bytes
  9039 ;; Hardware stack levels used: 1
  9040 ;; Hardware stack levels required when called: 7
  9041 ;; This function calls:
  9042 ;;		Nothing
  9043 ;; This function is called by:
  9044 ;;		_EUSART1_Initialize
  9045 ;; This function uses a non-reentrant model
  9046 ;;
  9047                           
  9048                           	psect	text64
  9049   003992                     __ptext64:
  9050                           	callstack 0
  9051   003992                     _EUSART1_SetFramingErrorHandler:
  9052                           	callstack 21
  9053   003992                     
  9054                           ;mcc_generated_files/eusart1.c: 167:     EUSART1_FramingErrorHandler = interruptHandler;
  9055   003992  C01A  F044         	movff	EUSART1_SetFramingErrorHandler@interruptHandler,_EUSART1_FramingErrorHandler
  9056   003996  C01B  F045         	movff	EUSART1_SetFramingErrorHandler@interruptHandler+1,_EUSART1_FramingErrorHandler+1
  9057   00399A  0012               	return		;funcret
  9058   00399C                     __end_of_EUSART1_SetFramingErrorHandler:
  9059                           	callstack 0
  9060                           
  9061 ;; *************** function _EUSART1_SetErrorHandler *****************
  9062 ;; Defined at:
  9063 ;;		line 174 in file "mcc_generated_files/eusart1.c"
  9064 ;; Parameters:    Size  Location     Type
  9065 ;;  interruptHan    2   25[COMRAM] PTR FTN()void 
  9066 ;;		 -> EUSART1_DefaultErrorHandler(1), 
  9067 ;; Auto vars:     Size  Location     Type
  9068 ;;		None
  9069 ;; Return value:  Size  Location     Type
  9070 ;;                  1    wreg      void 
  9071 ;; Registers used:
  9072 ;;		wreg, status,2, status,0
  9073 ;; Tracked objects:
  9074 ;;		On entry : 0/0
  9075 ;;		On exit  : 0/0
  9076 ;;		Unchanged: 0/0
  9077 ;; Data sizes:     COMRAM   BANK0   BANK1   BANK2   BANK3   BANK4   BANK5   BANK6   BANK7   BANK8   BANK9  BANK10  BANK1
      +1  BANK12  BANK13  BANK14
  9078 ;;      Params:         2       0       0       0       0       0       0       0       0       0       0       0       
      +0       0       0       0
  9079 ;;      Locals:         0       0       0       0       0       0       0       0       0       0       0       0       
      +0       0       0       0
  9080 ;;      Temps:          0       0       0       0       0       0       0       0       0       0       0       0       
      +0       0       0       0
  9081 ;;      Totals:         2       0       0       0       0       0       0       0       0       0       0       0       
      +0       0       0       0
  9082 ;;Total ram usage:        2 bytes
  9083 ;; Hardware stack levels used: 1
  9084 ;; Hardware stack levels required when called: 7
  9085 ;; This function calls:
  9086 ;;		Nothing
  9087 ;; This function is called by:
  9088 ;;		_EUSART1_Initialize
  9089 ;; This function uses a non-reentrant model
  9090 ;;
  9091                           
  9092                           	psect	text65
  9093   00399C                     __ptext65:
  9094                           	callstack 0
  9095   00399C                     _EUSART1_SetErrorHandler:
  9096                           	callstack 21
  9097   00399C                     
  9098                           ;mcc_generated_files/eusart1.c: 175:     EUSART1_ErrorHandler = interruptHandler;
  9099   00399C  C01A  F040         	movff	EUSART1_SetErrorHandler@interruptHandler,_EUSART1_ErrorHandler
  9100   0039A0  C01B  F041         	movff	EUSART1_SetErrorHandler@interruptHandler+1,_EUSART1_ErrorHandler+1
  9101   0039A4  0012               	return		;funcret
  9102   0039A6                     __end_of_EUSART1_SetErrorHandler:
  9103                           	callstack 0
  9104                           
  9105 ;; *************** function _EUSART1_is_tx_ready *****************
  9106 ;; Defined at:
  9107 ;;		line 94 in file "mcc_generated_files/eusart1.c"
  9108 ;; Parameters:    Size  Location     Type
  9109 ;;		None
  9110 ;; Auto vars:     Size  Location     Type
  9111 ;;		None
  9112 ;; Return value:  Size  Location     Type
  9113 ;;                  1    wreg      _Bool 
  9114 ;; Registers used:
  9115 ;;		wreg, status,2
  9116 ;; Tracked objects:
  9117 ;;		On entry : 0/0
  9118 ;;		On exit  : 0/0
  9119 ;;		Unchanged: 0/0
  9120 ;; Data sizes:     COMRAM   BANK0   BANK1   BANK2   BANK3   BANK4   BANK5   BANK6   BANK7   BANK8   BANK9  BANK10  BANK1
      +1  BANK12  BANK13  BANK14
  9121 ;;      Params:         0       0       0       0       0       0       0       0       0       0       0       0       
      +0       0       0       0
  9122 ;;      Locals:         1       0       0       0       0       0       0       0       0       0       0       0       
      +0       0       0       0
  9123 ;;      Temps:          0       0       0       0       0       0       0       0       0       0       0       0       
      +0       0       0       0
  9124 ;;      Totals:         1       0       0       0       0       0       0       0       0       0       0       0       
      +0       0       0       0
  9125 ;;Total ram usage:        1 bytes
  9126 ;; Hardware stack levels used: 1
  9127 ;; Hardware stack levels required when called: 7
  9128 ;; This function calls:
  9129 ;;		Nothing
  9130 ;; This function is called by:
  9131 ;;		_main
  9132 ;; This function uses a non-reentrant model
  9133 ;;
  9134                           
  9135                           	psect	text66
  9136   0036FE                     __ptext66:
  9137                           	callstack 0
  9138   0036FE                     _EUSART1_is_tx_ready:
  9139                           	callstack 23
  9140   0036FE                     
  9141                           ;mcc_generated_files/eusart1.c: 96:     return (_Bool)(PIR3bits.TX1IF && TX1STAbits.TXEN
      +                          );
  9142   0036FE  0E00               	movlw	0
  9143   003700  6E1A               	movwf	_EUSART1_is_tx_ready$1681^0,c
  9144   003702  010E               	movlb	14	; () banked
  9145   003704  A9CD               	btfss	205,4,b	;volatile
  9146   003706  EF87  F01B         	goto	u4901
  9147   00370A  EF89  F01B         	goto	u4900
  9148   00370E                     u4901:
  9149   00370E  EF92  F01B         	goto	l699
  9150   003712                     u4900:
  9151   003712                     
  9152                           ; BSR set to: 14
  9153   003712  AA9E               	btfss	158,5,c	;volatile
  9154   003714  EF8E  F01B         	goto	u4911
  9155   003718  EF90  F01B         	goto	u4910
  9156   00371C                     u4911:
  9157   00371C  EF92  F01B         	goto	l699
  9158   003720                     u4910:
  9159   003720                     
  9160                           ; BSR set to: 14
  9161   003720  0E01               	movlw	1
  9162   003722  6E1A               	movwf	_EUSART1_is_tx_ready$1681^0,c
  9163   003724                     l699:
  9164                           
  9165                           ; BSR set to: 14
  9166   003724  501A               	movf	_EUSART1_is_tx_ready$1681^0,w,c
  9167   003726                     
  9168                           ; BSR set to: 14
  9169   003726  0012               	return		;funcret
  9170   003728                     __end_of_EUSART1_is_tx_ready:
  9171                           	callstack 0
  9172                           
  9173 ;; *************** function _INTERRUPT_InterruptManager *****************
  9174 ;; Defined at:
  9175 ;;		line 58 in file "mcc_generated_files/interrupt_manager.c"
  9176 ;; Parameters:    Size  Location     Type
  9177 ;;		None
  9178 ;; Auto vars:     Size  Location     Type
  9179 ;;		None
  9180 ;; Return value:  Size  Location     Type
  9181 ;;                  1    wreg      void 
  9182 ;; Registers used:
  9183 ;;		wreg, fsr2l, fsr2h, status,2, status,0, pcl, pclath, pclatu, tosl, tblptrl, tblptrh, tblptru, prodl, prodh, cstack
  9184 ;; Tracked objects:
  9185 ;;		On entry : 0/0
  9186 ;;		On exit  : 0/0
  9187 ;;		Unchanged: 0/0
  9188 ;; Data sizes:     COMRAM   BANK0   BANK1   BANK2   BANK3   BANK4   BANK5   BANK6   BANK7   BANK8   BANK9  BANK10  BANK1
      +1  BANK12  BANK13  BANK14
  9189 ;;      Params:         0       0       0       0       0       0       0       0       0       0       0       0       
      +0       0       0       0
  9190 ;;      Locals:         0       0       0       0       0       0       0       0       0       0       0       0       
      +0       0       0       0
  9191 ;;      Temps:         10       0       0       0       0       0       0       0       0       0       0       0       
      +0       0       0       0
  9192 ;;      Totals:        10       0       0       0       0       0       0       0       0       0       0       0       
      +0       0       0       0
  9193 ;;Total ram usage:       10 bytes
  9194 ;; Hardware stack levels used: 1
  9195 ;; Hardware stack levels required when called: 6
  9196 ;; This function calls:
  9197 ;;		Absolute function
  9198 ;;		_I2C1_MasterIsr
  9199 ;; This function is called by:
  9200 ;;		Interrupt level 2
  9201 ;; This function uses a non-reentrant model
  9202 ;;
  9203                           
  9204                           	psect	intcode
  9205   000008                     __pintcode:
  9206                           	callstack 0
  9207   000008                     _INTERRUPT_InterruptManager:
  9208                           	callstack 15
  9209                           
  9210                           ; BSR set to: 14
  9211                           ;incstack = 0
  9212   000008  8246               	bsf	int$flags,1,c	;set compiler interrupt flag (level 2)
  9213   00000A  CFFA F010          	movff	pclath,??_INTERRUPT_InterruptManager
  9214   00000E  CFFB F011          	movff	pclatu,??_INTERRUPT_InterruptManager+1
  9215   000012  CFD9 F012          	movff	fsr2l,??_INTERRUPT_InterruptManager+2
  9216   000016  CFDA F013          	movff	fsr2h,??_INTERRUPT_InterruptManager+3
  9217   00001A  CFF3 F014          	movff	prodl,??_INTERRUPT_InterruptManager+4
  9218   00001E  CFF4 F015          	movff	prodh,??_INTERRUPT_InterruptManager+5
  9219   000022  CFF6 F016          	movff	tblptrl,??_INTERRUPT_InterruptManager+6
  9220   000026  CFF7 F017          	movff	tblptrh,??_INTERRUPT_InterruptManager+7
  9221   00002A  CFF8 F018          	movff	tblptru,??_INTERRUPT_InterruptManager+8
  9222   00002E  CFF5 F019          	movff	tablat,??_INTERRUPT_InterruptManager+9
  9223   000032                     
  9224                           ;mcc_generated_files/interrupt_manager.c: 61:     if(INTCONbits.PEIE == 1)
  9225   000032  ACF2               	btfss	242,6,c	;volatile
  9226   000034  EF1E  F000         	goto	i2u354_41
  9227   000038  EF20  F000         	goto	i2u354_40
  9228   00003C                     i2u354_41:
  9229   00003C  EF4D  F000         	goto	i2l652
  9230   000040                     i2u354_40:
  9231   000040                     
  9232                           ;mcc_generated_files/interrupt_manager.c: 62:     {;mcc_generated_files/interrupt_manage
      +                          r.c: 63:         if(PIE3bits.SSP1IE == 1 && PIR3bits.SSP1IF == 1)
  9233   000040  010E               	movlb	14	; () banked
  9234   000042  A1C5               	btfss	197,0,b	;volatile
  9235   000044  EF26  F000         	goto	i2u355_41
  9236   000048  EF28  F000         	goto	i2u355_40
  9237   00004C                     i2u355_41:
  9238   00004C  EF3D  F000         	goto	i2l647
  9239   000050                     i2u355_40:
  9240   000050                     
  9241                           ; BSR set to: 14
  9242   000050  A1CD               	btfss	205,0,b	;volatile
  9243   000052  EF2D  F000         	goto	i2u356_41
  9244   000056  EF2F  F000         	goto	i2u356_40
  9245   00005A                     i2u356_41:
  9246   00005A  EF3D  F000         	goto	i2l647
  9247   00005E                     i2u356_40:
  9248   00005E                     i2l4916:
  9249                           
  9250                           ; BSR set to: 14
  9251                           ;mcc_generated_files/interrupt_manager.c: 64:         {;mcc_generated_files/interrupt_ma
      +                          nager.c: 65:             MSSP1_InterruptHandler();
  9252   00005E  D802               	call	i2u357_48
  9253   000060  EF3B  F000         	goto	i2u357_49
  9254   000064                     i2u357_48:
  9255   000064  0005               	push	
  9256   000066  6EFA               	movwf	pclath,c
  9257   000068  503C               	movf	_MSSP1_InterruptHandler^0,w,c
  9258   00006A  6EFD               	movwf	tosl,c
  9259   00006C  503D               	movf	(_MSSP1_InterruptHandler+1)^0,w,c
  9260   00006E  6EFE               	movwf	tosh,c
  9261   000070  6AFF               	clrf	tosu,c
  9262   000072  50FA               	movf	pclath,w,c
  9263   000074  0012               	return		;indir
  9264   000076                     i2u357_49:
  9265                           
  9266                           ;mcc_generated_files/interrupt_manager.c: 66:         }
  9267   000076  EF4D  F000         	goto	i2l652
  9268   00007A                     i2l647:
  9269                           
  9270                           ; BSR set to: 14
  9271   00007A  A3C5               	btfss	197,1,b	;volatile
  9272   00007C  EF42  F000         	goto	i2u358_41
  9273   000080  EF44  F000         	goto	i2u358_40
  9274   000084                     i2u358_41:
  9275   000084  EF4D  F000         	goto	i2l648
  9276   000088                     i2u358_40:
  9277   000088                     
  9278                           ; BSR set to: 14
  9279   000088  A3CD               	btfss	205,1,b	;volatile
  9280   00008A  EF49  F000         	goto	i2u359_41
  9281   00008E  EF4B  F000         	goto	i2u359_40
  9282   000092                     i2u359_41:
  9283   000092  EF4D  F000         	goto	i2l648
  9284   000096                     i2u359_40:
  9285   000096  EF2F  F000         	goto	i2l4916
  9286   00009A                     i2l648:
  9287   00009A                     i2l652:
  9288   00009A  C019  FFF5         	movff	??_INTERRUPT_InterruptManager+9,tablat
  9289   00009E  C018  FFF8         	movff	??_INTERRUPT_InterruptManager+8,tblptru
  9290   0000A2  C017  FFF7         	movff	??_INTERRUPT_InterruptManager+7,tblptrh
  9291   0000A6  C016  FFF6         	movff	??_INTERRUPT_InterruptManager+6,tblptrl
  9292   0000AA  C015  FFF4         	movff	??_INTERRUPT_InterruptManager+5,prodh
  9293   0000AE  C014  FFF3         	movff	??_INTERRUPT_InterruptManager+4,prodl
  9294   0000B2  C013  FFDA         	movff	??_INTERRUPT_InterruptManager+3,fsr2h
  9295   0000B6  C012  FFD9         	movff	??_INTERRUPT_InterruptManager+2,fsr2l
  9296   0000BA  C011  FFFB         	movff	??_INTERRUPT_InterruptManager+1,pclatu
  9297   0000BE  C010  FFFA         	movff	??_INTERRUPT_InterruptManager,pclath
  9298   0000C2  9246               	bcf	int$flags,1,c	;clear compiler interrupt flag (level 2)
  9299   0000C4  0011               	retfie		f
  9300   0000C6                     __end_of_INTERRUPT_InterruptManager:
  9301                           	callstack 0
  9302                           
  9303 ;; *************** function _I2C1_MasterIsr *****************
  9304 ;; Defined at:
  9305 ;;		line 318 in file "mcc_generated_files/i2c1_master.c"
  9306 ;; Parameters:    Size  Location     Type
  9307 ;;		None
  9308 ;; Auto vars:     Size  Location     Type
  9309 ;;		None
  9310 ;; Return value:  Size  Location     Type
  9311 ;;                  1    wreg      void 
  9312 ;; Registers used:
  9313 ;;		wreg, fsr2l, fsr2h, status,2, status,0, pcl, pclath, pclatu, tosl, tblptrl, tblptrh, tblptru, prodl, prodh, cstack
  9314 ;; Tracked objects:
  9315 ;;		On entry : 0/0
  9316 ;;		On exit  : 0/0
  9317 ;;		Unchanged: 0/0
  9318 ;; Data sizes:     COMRAM   BANK0   BANK1   BANK2   BANK3   BANK4   BANK5   BANK6   BANK7   BANK8   BANK9  BANK10  BANK1
      +1  BANK12  BANK13  BANK14
  9319 ;;      Params:         0       0       0       0       0       0       0       0       0       0       0       0       
      +0       0       0       0
  9320 ;;      Locals:         0       0       0       0       0       0       0       0       0       0       0       0       
      +0       0       0       0
  9321 ;;      Temps:          0       0       0       0       0       0       0       0       0       0       0       0       
      +0       0       0       0
  9322 ;;      Totals:         0       0       0       0       0       0       0       0       0       0       0       0       
      +0       0       0       0
  9323 ;;Total ram usage:        0 bytes
  9324 ;; Hardware stack levels used: 1
  9325 ;; Hardware stack levels required when called: 5
  9326 ;; This function calls:
  9327 ;;		_I2C1_MasterFsm
  9328 ;; This function is called by:
  9329 ;;		_I2C1_Open
  9330 ;;		_INTERRUPT_InterruptManager
  9331 ;; This function uses a non-reentrant model
  9332 ;;
  9333                           
  9334                           	psect	text68
  9335   003A14                     __ptext68:
  9336                           	callstack 0
  9337   003A14                     _I2C1_MasterIsr:
  9338                           	callstack 15
  9339   003A14                     
  9340                           ;mcc_generated_files/i2c1_master.c: 320:     I2C1_MasterFsm();
  9341   003A14  EC88  F018         	call	_I2C1_MasterFsm	;wreg free
  9342   003A18  0012               	return		;funcret
  9343   003A1A                     __end_of_I2C1_MasterIsr:
  9344                           	callstack 0
  9345                           
  9346 ;; *************** function _I2C1_MasterFsm *****************
  9347 ;; Defined at:
  9348 ;;		line 323 in file "mcc_generated_files/i2c1_master.c"
  9349 ;; Parameters:    Size  Location     Type
  9350 ;;		None
  9351 ;; Auto vars:     Size  Location     Type
  9352 ;;		None
  9353 ;; Return value:  Size  Location     Type
  9354 ;;                  1    wreg      void 
  9355 ;; Registers used:
  9356 ;;		wreg, fsr2l, fsr2h, status,2, status,0, pcl, pclath, pclatu, tosl, tblptrl, tblptrh, tblptru, prodl, prodh, cstack
  9357 ;; Tracked objects:
  9358 ;;		On entry : 0/0
  9359 ;;		On exit  : 0/0
  9360 ;;		Unchanged: 0/0
  9361 ;; Data sizes:     COMRAM   BANK0   BANK1   BANK2   BANK3   BANK4   BANK5   BANK6   BANK7   BANK8   BANK9  BANK10  BANK1
      +1  BANK12  BANK13  BANK14
  9362 ;;      Params:         0       0       0       0       0       0       0       0       0       0       0       0       
      +0       0       0       0
  9363 ;;      Locals:         0       0       0       0       0       0       0       0       0       0       0       0       
      +0       0       0       0
  9364 ;;      Temps:          2       0       0       0       0       0       0       0       0       0       0       0       
      +0       0       0       0
  9365 ;;      Totals:         2       0       0       0       0       0       0       0       0       0       0       0       
      +0       0       0       0
  9366 ;;Total ram usage:        2 bytes
  9367 ;; Hardware stack levels used: 1
  9368 ;; Hardware stack levels required when called: 4
  9369 ;; This function calls:
  9370 ;;		_I2C1_DO_ADDRESS_NACK
  9371 ;;		_I2C1_DO_IDLE
  9372 ;;		_I2C1_DO_RCEN
  9373 ;;		_I2C1_DO_RESET
  9374 ;;		_I2C1_DO_RX
  9375 ;;		_I2C1_DO_RX_ACK
  9376 ;;		_I2C1_DO_RX_NACK_RESTART
  9377 ;;		_I2C1_DO_RX_NACK_STOP
  9378 ;;		_I2C1_DO_SEND_ADR_READ
  9379 ;;		_I2C1_DO_SEND_ADR_WRITE
  9380 ;;		_I2C1_DO_SEND_RESTART
  9381 ;;		_I2C1_DO_SEND_RESTART_READ
  9382 ;;		_I2C1_DO_SEND_RESTART_WRITE
  9383 ;;		_I2C1_DO_SEND_STOP
  9384 ;;		_I2C1_DO_TX
  9385 ;;		_I2C1_DO_TX_EMPTY
  9386 ;;		_I2C1_MasterIsNack
  9387 ;;		i2_I2C1_MasterClearIrq
  9388 ;; This function is called by:
  9389 ;;		_I2C1_MasterIsr
  9390 ;; This function uses a non-reentrant model
  9391 ;;
  9392                           
  9393                           	psect	text69
  9394   003110                     __ptext69:
  9395                           	callstack 0
  9396   003110                     _I2C1_MasterFsm:
  9397                           	callstack 15
  9398   003110                     
  9399                           ;mcc_generated_files/i2c1_master.c: 325:     I2C1_MasterClearIrq();
  9400   003110  EC0D  F01D         	call	i2_I2C1_MasterClearIrq	;wreg free
  9401   003114                     
  9402                           ;mcc_generated_files/i2c1_master.c: 327:     if(I2C1_Status.addressNackCheck && I2C1_Mas
      +                          terIsNack())
  9403   003114  0100               	movlb	0	; () banked
  9404   003116  A1DF               	btfss	(_I2C1_Status+35)& (0+255),0,b
  9405   003118  EF90  F018         	goto	i2u267_41
  9406   00311C  EF92  F018         	goto	i2u267_40
  9407   003120                     i2u267_41:
  9408   003120  EF9F  F018         	goto	i2l4262
  9409   003124                     i2u267_40:
  9410   003124                     
  9411                           ; BSR set to: 0
  9412   003124  EC81  F01C         	call	_I2C1_MasterIsNack	;wreg free
  9413   003128  0900               	iorlw	0
  9414   00312A  B4D8               	btfsc	status,2,c
  9415   00312C  EF9A  F018         	goto	i2u268_41
  9416   003130  EF9C  F018         	goto	i2u268_40
  9417   003134                     i2u268_41:
  9418   003134  EF9F  F018         	goto	i2l4262
  9419   003138                     i2u268_40:
  9420   003138                     
  9421                           ;mcc_generated_files/i2c1_master.c: 328:     {;mcc_generated_files/i2c1_master.c: 329:  
      +                                 I2C1_Status.state = I2C1_ADDRESS_NACK;
  9422   003138  0E0F               	movlw	15
  9423   00313A  0100               	movlb	0	; () banked
  9424   00313C  6FDD               	movwf	(_I2C1_Status+33)& (0+255),b
  9425   00313E                     i2l4262:
  9426                           
  9427                           ;mcc_generated_files/i2c1_master.c: 331:     I2C1_Status.state = i2c1_fsmStateTable[I2C1
      +                          _Status.state]();
  9428   00313E  0100               	movlb	0	; () banked
  9429   003140  51DD               	movf	(_I2C1_Status+33)& (0+255),w,b
  9430   003142  0D02               	mullw	2
  9431   003144  0E01               	movlw	low _i2c1_fsmStateTable
  9432   003146  24F3               	addwf	243,w,c
  9433   003148  6EF6               	movwf	tblptrl,c
  9434   00314A  0E0F               	movlw	high _i2c1_fsmStateTable
  9435   00314C  20F4               	addwfc	244,w,c
  9436   00314E  6EF7               	movwf	tblptrh,c
  9437   003150                     	if	1	;There are 3 active tblptr bytes
  9438   003150  6AF8               	clrf	tblptru,c
  9439   003152  0E00               	movlw	low (__mediumconst shr (0+16))
  9440   003154  22F8               	addwfc	tblptru,f,c
  9441   003156                     	endif
  9442   003156  0009               	tblrd		*+
  9443   003158  CFF5 F00E          	movff	tablat,??_I2C1_MasterFsm
  9444   00315C  0009               	tblrd		*+
  9445   00315E  CFF5 F00F          	movff	tablat,??_I2C1_MasterFsm+1
  9446   003162  D802               	call	i2u269_48
  9447   003164  EFBD  F018         	goto	i2u269_49
  9448   003168                     i2u269_48:
  9449   003168  0005               	push	
  9450   00316A  6EFA               	movwf	pclath,c
  9451   00316C  500E               	movf	??_I2C1_MasterFsm^0,w,c
  9452   00316E  6EFD               	movwf	tosl,c
  9453   003170  500F               	movf	(??_I2C1_MasterFsm+1)^0,w,c
  9454   003172  6EFE               	movwf	tosh,c
  9455   003174  6AFF               	clrf	tosu,c
  9456   003176  50FA               	movf	pclath,w,c
  9457   003178  0012               	return		;indir
  9458   00317A                     i2u269_49:
  9459   00317A  0100               	movlb	0	; () banked
  9460   00317C  6FDD               	movwf	(_I2C1_Status+33)& (0+255),b
  9461   00317E                     
  9462                           ; BSR set to: 0
  9463   00317E  0012               	return		;funcret
  9464   003180                     __end_of_I2C1_MasterFsm:
  9465                           	callstack 0
  9466                           
  9467 ;; *************** function i2_I2C1_MasterClearIrq *****************
  9468 ;; Defined at:
  9469 ;;		line 642 in file "mcc_generated_files/i2c1_master.c"
  9470 ;; Parameters:    Size  Location     Type
  9471 ;;		None
  9472 ;; Auto vars:     Size  Location     Type
  9473 ;;		None
  9474 ;; Return value:  Size  Location     Type
  9475 ;;                  1    wreg      void 
  9476 ;; Registers used:
  9477 ;;		None
  9478 ;; Tracked objects:
  9479 ;;		On entry : 0/0
  9480 ;;		On exit  : 0/0
  9481 ;;		Unchanged: 0/0
  9482 ;; Data sizes:     COMRAM   BANK0   BANK1   BANK2   BANK3   BANK4   BANK5   BANK6   BANK7   BANK8   BANK9  BANK10  BANK1
      +1  BANK12  BANK13  BANK14
  9483 ;;      Params:         0       0       0       0       0       0       0       0       0       0       0       0       
      +0       0       0       0
  9484 ;;      Locals:         0       0       0       0       0       0       0       0       0       0       0       0       
      +0       0       0       0
  9485 ;;      Temps:          0       0       0       0       0       0       0       0       0       0       0       0       
      +0       0       0       0
  9486 ;;      Totals:         0       0       0       0       0       0       0       0       0       0       0       0       
      +0       0       0       0
  9487 ;;Total ram usage:        0 bytes
  9488 ;; Hardware stack levels used: 1
  9489 ;; This function calls:
  9490 ;;		Nothing
  9491 ;; This function is called by:
  9492 ;;		_I2C1_MasterFsm
  9493 ;; This function uses a non-reentrant model
  9494 ;;
  9495                           
  9496                           	psect	text70
  9497   003A1A                     __ptext70:
  9498                           	callstack 0
  9499   003A1A                     i2_I2C1_MasterClearIrq:
  9500                           	callstack 18
  9501   003A1A                     
  9502                           ;mcc_generated_files/i2c1_master.c: 644:     PIR3bits.SSP1IF = 0;
  9503   003A1A  010E               	movlb	14	; () banked
  9504   003A1C  91CD               	bcf	205,0,b	;volatile
  9505   003A1E                     
  9506                           ; BSR set to: 14
  9507   003A1E  0012               	return		;funcret
  9508   003A20                     __end_ofi2_I2C1_MasterClearIrq:
  9509                           	callstack 0
  9510                           
  9511 ;; *************** function _I2C1_DO_ADDRESS_NACK *****************
  9512 ;; Defined at:
  9513 ;;		line 501 in file "mcc_generated_files/i2c1_master.c"
  9514 ;; Parameters:    Size  Location     Type
  9515 ;;		None
  9516 ;; Auto vars:     Size  Location     Type
  9517 ;;		None
  9518 ;; Return value:  Size  Location     Type
  9519 ;;                  1    wreg      enum E10029
  9520 ;; Registers used:
  9521 ;;		wreg, fsr2l, fsr2h, status,2, status,0, pcl, pclath, pclatu, tosl, prodl, prodh, cstack
  9522 ;; Tracked objects:
  9523 ;;		On entry : 0/0
  9524 ;;		On exit  : 0/0
  9525 ;;		Unchanged: 0/0
  9526 ;; Data sizes:     COMRAM   BANK0   BANK1   BANK2   BANK3   BANK4   BANK5   BANK6   BANK7   BANK8   BANK9  BANK10  BANK1
      +1  BANK12  BANK13  BANK14
  9527 ;;      Params:         0       0       0       0       0       0       0       0       0       0       0       0       
      +0       0       0       0
  9528 ;;      Locals:         0       0       0       0       0       0       0       0       0       0       0       0       
      +0       0       0       0
  9529 ;;      Temps:          2       0       0       0       0       0       0       0       0       0       0       0       
      +0       0       0       0
  9530 ;;      Totals:         2       0       0       0       0       0       0       0       0       0       0       0       
      +0       0       0       0
  9531 ;;Total ram usage:        2 bytes
  9532 ;; Hardware stack levels used: 1
  9533 ;; Hardware stack levels required when called: 3
  9534 ;; This function calls:
  9535 ;;		Absolute function
  9536 ;;		_I2C1_CallbackReturnReset
  9537 ;;		_I2C1_CallbackReturnStop
  9538 ;;		_I2C1_DO_SEND_RESTART
  9539 ;;		_I2C1_DO_SEND_STOP
  9540 ;;		_rd1RegCompleteHandler
  9541 ;;		_rd2RegCompleteHandler
  9542 ;;		_rdBlkRegCompleteHandler
  9543 ;;		_wr1RegCompleteHandler
  9544 ;;		_wr2RegCompleteHandler
  9545 ;; This function is called by:
  9546 ;;		_I2C1_MasterFsm
  9547 ;; This function uses a non-reentrant model
  9548 ;;
  9549                           
  9550                           	psect	text71
  9551   003330                     __ptext71:
  9552                           	callstack 0
  9553   003330                     _I2C1_DO_ADDRESS_NACK:
  9554                           	callstack 15
  9555   003330                     
  9556                           ;mcc_generated_files/i2c1_master.c: 503:     I2C1_Status.addressNackCheck = 0;
  9557   003330  0100               	movlb	0	; () banked
  9558   003332  91DF               	bcf	(_I2C1_Status+35)& (0+255),0,b
  9559   003334                     
  9560                           ; BSR set to: 0
  9561                           ;mcc_generated_files/i2c1_master.c: 504:     I2C1_Status.error = I2C1_FAIL;
  9562   003334  0E02               	movlw	2
  9563   003336  6FDE               	movwf	(_I2C1_Status+34)& (0+255),b
  9564                           
  9565                           ;mcc_generated_files/i2c1_master.c: 505:     switch(I2C1_Status.callbackTable[I2C1_ADDR_
      +                          NACK](I2C1_Status.callbackPayload[I2C1_ADDR_NACK]))
  9566   003338  EFA6  F019         	goto	i2l4128
  9567   00333C                     i2l4118:
  9568                           
  9569                           ;mcc_generated_files/i2c1_master.c: 509:             return I2C1_DO_SEND_RESTART();
  9570   00333C  ECEB  F01C         	call	_I2C1_DO_SEND_RESTART	;wreg free
  9571   003340  EFCA  F019         	goto	i2l501
  9572   003344                     i2l4122:
  9573                           
  9574                           ;mcc_generated_files/i2c1_master.c: 511:             return I2C1_DO_SEND_STOP();
  9575   003344  ECE7  F01C         	call	_I2C1_DO_SEND_STOP	;wreg free
  9576   003348  EFCA  F019         	goto	i2l501
  9577   00334C                     i2l4128:
  9578                           
  9579                           ; BSR set to: 0
  9580   00334C  C0CC  F00A         	movff	_I2C1_Status+16,I2C1_CallbackReturnReset@funPtr
  9581   003350  C0CD  F00B         	movff	_I2C1_Status+17,I2C1_CallbackReturnReset@funPtr+1
  9582   003354  D802               	call	i2u256_48
  9583   003356  EFB6  F019         	goto	i2u256_49
  9584   00335A                     i2u256_48:
  9585   00335A  0005               	push	
  9586   00335C  6EFA               	movwf	pclath,c
  9587   00335E  51C0               	movf	(_I2C1_Status+4)& (0+255),w,b
  9588   003360  6EFD               	movwf	tosl,c
  9589   003362  51C1               	movf	(_I2C1_Status+5)& (0+255),w,b
  9590   003364  6EFE               	movwf	tosh,c
  9591   003366  6AFF               	clrf	tosu,c
  9592   003368  50FA               	movf	pclath,w,c
  9593   00336A  0012               	return		;indir
  9594   00336C                     i2u256_49:
  9595   00336C  6E0C               	movwf	??_I2C1_DO_ADDRESS_NACK^0,c
  9596   00336E  6A0D               	clrf	(??_I2C1_DO_ADDRESS_NACK+1)^0,c
  9597                           
  9598                           ; Switch on 2 bytes has been partitioned into a top level switch of size 1, and 1 sub-sw
      +                          itches
  9599                           ; Switch size 1, requested type "simple"
  9600                           ; Number of cases is 1, Range of values is 0 to 0
  9601                           ; switch strategies available:
  9602                           ; Name         Instructions Cycles
  9603                           ; simple_byte            4     3 (average)
  9604                           ;	Chosen strategy is simple_byte
  9605   003370  500D               	movf	(??_I2C1_DO_ADDRESS_NACK+1)^0,w,c
  9606   003372  0A00               	xorlw	0	; case 0
  9607   003374  B4D8               	btfsc	status,2,c
  9608   003376  EFBF  F019         	goto	i2l6384
  9609   00337A  EFA2  F019         	goto	i2l4122
  9610   00337E                     i2l6384:
  9611                           
  9612                           ; Switch size 1, requested type "simple"
  9613                           ; Number of cases is 2, Range of values is 2 to 3
  9614                           ; switch strategies available:
  9615                           ; Name         Instructions Cycles
  9616                           ; simple_byte            7     4 (average)
  9617                           ;	Chosen strategy is simple_byte
  9618   00337E  500C               	movf	??_I2C1_DO_ADDRESS_NACK^0,w,c
  9619   003380  0A02               	xorlw	2	; case 2
  9620   003382  B4D8               	btfsc	status,2,c
  9621   003384  EF9E  F019         	goto	i2l4118
  9622   003388  0A01               	xorlw	1	; case 3
  9623   00338A  B4D8               	btfsc	status,2,c
  9624   00338C  EF9E  F019         	goto	i2l4118
  9625   003390  EFA2  F019         	goto	i2l4122
  9626   003394                     i2l501:
  9627   003394  0012               	return		;funcret
  9628   003396                     __end_of_I2C1_DO_ADDRESS_NACK:
  9629                           	callstack 0
  9630                           
  9631 ;; *************** function _I2C1_DO_RESET *****************
  9632 ;; Defined at:
  9633 ;;		line 495 in file "mcc_generated_files/i2c1_master.c"
  9634 ;; Parameters:    Size  Location     Type
  9635 ;;		None
  9636 ;; Auto vars:     Size  Location     Type
  9637 ;;		None
  9638 ;; Return value:  Size  Location     Type
  9639 ;;                  1    wreg      enum E10029
  9640 ;; Registers used:
  9641 ;;		wreg, status,2
  9642 ;; Tracked objects:
  9643 ;;		On entry : 0/0
  9644 ;;		On exit  : 0/0
  9645 ;;		Unchanged: 0/0
  9646 ;; Data sizes:     COMRAM   BANK0   BANK1   BANK2   BANK3   BANK4   BANK5   BANK6   BANK7   BANK8   BANK9  BANK10  BANK1
      +1  BANK12  BANK13  BANK14
  9647 ;;      Params:         0       0       0       0       0       0       0       0       0       0       0       0       
      +0       0       0       0
  9648 ;;      Locals:         0       0       0       0       0       0       0       0       0       0       0       0       
      +0       0       0       0
  9649 ;;      Temps:          0       0       0       0       0       0       0       0       0       0       0       0       
      +0       0       0       0
  9650 ;;      Totals:         0       0       0       0       0       0       0       0       0       0       0       0       
      +0       0       0       0
  9651 ;;Total ram usage:        0 bytes
  9652 ;; Hardware stack levels used: 1
  9653 ;; This function calls:
  9654 ;;		Nothing
  9655 ;; This function is called by:
  9656 ;;		_I2C1_MasterFsm
  9657 ;; This function uses a non-reentrant model
  9658 ;;
  9659                           
  9660                           	psect	text72
  9661   003950                     __ptext72:
  9662                           	callstack 0
  9663   003950                     _I2C1_DO_RESET:
  9664                           	callstack 18
  9665   003950                     
  9666                           ;mcc_generated_files/i2c1_master.c: 497:     I2C1_Status.busy = 0;
  9667   003950  0100               	movlb	0	; () banked
  9668   003952  93DF               	bcf	(_I2C1_Status+35)& (0+255),1,b
  9669   003954                     
  9670                           ; BSR set to: 0
  9671                           ;mcc_generated_files/i2c1_master.c: 498:     I2C1_Status.error = I2C1_NOERR;
  9672   003954  0E00               	movlw	0
  9673   003956  6FDE               	movwf	(_I2C1_Status+34)& (0+255),b
  9674   003958                     
  9675                           ; BSR set to: 0
  9676                           ;mcc_generated_files/i2c1_master.c: 499:     return I2C1_RESET;
  9677   003958  0E0E               	movlw	14
  9678   00395A                     
  9679                           ; BSR set to: 0
  9680   00395A  0012               	return		;funcret
  9681   00395C                     __end_of_I2C1_DO_RESET:
  9682                           	callstack 0
  9683                           
  9684 ;; *************** function _I2C1_DO_RX_NACK_RESTART *****************
  9685 ;; Defined at:
  9686 ;;		line 489 in file "mcc_generated_files/i2c1_master.c"
  9687 ;; Parameters:    Size  Location     Type
  9688 ;;		None
  9689 ;; Auto vars:     Size  Location     Type
  9690 ;;		None
  9691 ;; Return value:  Size  Location     Type
  9692 ;;                  1    wreg      enum E10029
  9693 ;; Registers used:
  9694 ;;		wreg, cstack
  9695 ;; Tracked objects:
  9696 ;;		On entry : 0/0
  9697 ;;		On exit  : 0/0
  9698 ;;		Unchanged: 0/0
  9699 ;; Data sizes:     COMRAM   BANK0   BANK1   BANK2   BANK3   BANK4   BANK5   BANK6   BANK7   BANK8   BANK9  BANK10  BANK1
      +1  BANK12  BANK13  BANK14
  9700 ;;      Params:         0       0       0       0       0       0       0       0       0       0       0       0       
      +0       0       0       0
  9701 ;;      Locals:         0       0       0       0       0       0       0       0       0       0       0       0       
      +0       0       0       0
  9702 ;;      Temps:          0       0       0       0       0       0       0       0       0       0       0       0       
      +0       0       0       0
  9703 ;;      Totals:         0       0       0       0       0       0       0       0       0       0       0       0       
      +0       0       0       0
  9704 ;;Total ram usage:        0 bytes
  9705 ;; Hardware stack levels used: 1
  9706 ;; Hardware stack levels required when called: 1
  9707 ;; This function calls:
  9708 ;;		_I2C1_MasterSendNack
  9709 ;; This function is called by:
  9710 ;;		_I2C1_DO_RX
  9711 ;;		_I2C1_MasterFsm
  9712 ;; This function uses a non-reentrant model
  9713 ;;
  9714                           
  9715                           	psect	text73
  9716   0039B6                     __ptext73:
  9717                           	callstack 0
  9718   0039B6                     _I2C1_DO_RX_NACK_RESTART:
  9719                           	callstack 17
  9720   0039B6                     
  9721                           ;mcc_generated_files/i2c1_master.c: 491:     I2C1_MasterSendNack();
  9722   0039B6  EC16  F01D         	call	_I2C1_MasterSendNack	;wreg free
  9723   0039BA                     
  9724                           ;mcc_generated_files/i2c1_master.c: 492:     return I2C1_SEND_RESTART;
  9725   0039BA  0E09               	movlw	9
  9726   0039BC  0012               	return		;funcret
  9727   0039BE                     __end_of_I2C1_DO_RX_NACK_RESTART:
  9728                           	callstack 0
  9729                           
  9730 ;; *************** function _I2C1_DO_RX_NACK_STOP *****************
  9731 ;; Defined at:
  9732 ;;		line 483 in file "mcc_generated_files/i2c1_master.c"
  9733 ;; Parameters:    Size  Location     Type
  9734 ;;		None
  9735 ;; Auto vars:     Size  Location     Type
  9736 ;;		None
  9737 ;; Return value:  Size  Location     Type
  9738 ;;                  1    wreg      enum E10029
  9739 ;; Registers used:
  9740 ;;		wreg, cstack
  9741 ;; Tracked objects:
  9742 ;;		On entry : 0/0
  9743 ;;		On exit  : 0/0
  9744 ;;		Unchanged: 0/0
  9745 ;; Data sizes:     COMRAM   BANK0   BANK1   BANK2   BANK3   BANK4   BANK5   BANK6   BANK7   BANK8   BANK9  BANK10  BANK1
      +1  BANK12  BANK13  BANK14
  9746 ;;      Params:         0       0       0       0       0       0       0       0       0       0       0       0       
      +0       0       0       0
  9747 ;;      Locals:         0       0       0       0       0       0       0       0       0       0       0       0       
      +0       0       0       0
  9748 ;;      Temps:          0       0       0       0       0       0       0       0       0       0       0       0       
      +0       0       0       0
  9749 ;;      Totals:         0       0       0       0       0       0       0       0       0       0       0       0       
      +0       0       0       0
  9750 ;;Total ram usage:        0 bytes
  9751 ;; Hardware stack levels used: 1
  9752 ;; Hardware stack levels required when called: 1
  9753 ;; This function calls:
  9754 ;;		_I2C1_MasterSendNack
  9755 ;; This function is called by:
  9756 ;;		_I2C1_DO_RX
  9757 ;;		_I2C1_MasterFsm
  9758 ;; This function uses a non-reentrant model
  9759 ;;
  9760                           
  9761                           	psect	text74
  9762   0039BE                     __ptext74:
  9763                           	callstack 0
  9764   0039BE                     _I2C1_DO_RX_NACK_STOP:
  9765                           	callstack 17
  9766   0039BE                     
  9767                           ;mcc_generated_files/i2c1_master.c: 485:     I2C1_MasterSendNack();
  9768   0039BE  EC16  F01D         	call	_I2C1_MasterSendNack	;wreg free
  9769   0039C2                     
  9770                           ;mcc_generated_files/i2c1_master.c: 486:     return I2C1_SEND_STOP;
  9771   0039C2  0E0A               	movlw	10
  9772   0039C4  0012               	return		;funcret
  9773   0039C6                     __end_of_I2C1_DO_RX_NACK_STOP:
  9774                           	callstack 0
  9775                           
  9776 ;; *************** function _I2C1_DO_RX_ACK *****************
  9777 ;; Defined at:
  9778 ;;		line 476 in file "mcc_generated_files/i2c1_master.c"
  9779 ;; Parameters:    Size  Location     Type
  9780 ;;		None
  9781 ;; Auto vars:     Size  Location     Type
  9782 ;;		None
  9783 ;; Return value:  Size  Location     Type
  9784 ;;                  1    wreg      enum E10029
  9785 ;; Registers used:
  9786 ;;		wreg, cstack
  9787 ;; Tracked objects:
  9788 ;;		On entry : 0/0
  9789 ;;		On exit  : 0/0
  9790 ;;		Unchanged: 0/0
  9791 ;; Data sizes:     COMRAM   BANK0   BANK1   BANK2   BANK3   BANK4   BANK5   BANK6   BANK7   BANK8   BANK9  BANK10  BANK1
      +1  BANK12  BANK13  BANK14
  9792 ;;      Params:         0       0       0       0       0       0       0       0       0       0       0       0       
      +0       0       0       0
  9793 ;;      Locals:         0       0       0       0       0       0       0       0       0       0       0       0       
      +0       0       0       0
  9794 ;;      Temps:          0       0       0       0       0       0       0       0       0       0       0       0       
      +0       0       0       0
  9795 ;;      Totals:         0       0       0       0       0       0       0       0       0       0       0       0       
      +0       0       0       0
  9796 ;;Total ram usage:        0 bytes
  9797 ;; Hardware stack levels used: 1
  9798 ;; Hardware stack levels required when called: 1
  9799 ;; This function calls:
  9800 ;;		_I2C1_MasterSendAck
  9801 ;; This function is called by:
  9802 ;;		_I2C1_MasterFsm
  9803 ;; This function uses a non-reentrant model
  9804 ;;
  9805                           
  9806                           	psect	text75
  9807   0039C6                     __ptext75:
  9808                           	callstack 0
  9809   0039C6                     _I2C1_DO_RX_ACK:
  9810                           	callstack 17
  9811   0039C6                     
  9812                           ;mcc_generated_files/i2c1_master.c: 478:     I2C1_MasterSendAck();
  9813   0039C6  EC13  F01D         	call	_I2C1_MasterSendAck	;wreg free
  9814   0039CA                     
  9815                           ;mcc_generated_files/i2c1_master.c: 479:     return I2C1_RCEN;
  9816   0039CA  0E05               	movlw	5
  9817   0039CC  0012               	return		;funcret
  9818   0039CE                     __end_of_I2C1_DO_RX_ACK:
  9819                           	callstack 0
  9820                           
  9821 ;; *************** function _I2C1_DO_SEND_STOP *****************
  9822 ;; Defined at:
  9823 ;;		line 470 in file "mcc_generated_files/i2c1_master.c"
  9824 ;; Parameters:    Size  Location     Type
  9825 ;;		None
  9826 ;; Auto vars:     Size  Location     Type
  9827 ;;		None
  9828 ;; Return value:  Size  Location     Type
  9829 ;;                  1    wreg      enum E10029
  9830 ;; Registers used:
  9831 ;;		wreg, cstack
  9832 ;; Tracked objects:
  9833 ;;		On entry : 0/0
  9834 ;;		On exit  : 0/0
  9835 ;;		Unchanged: 0/0
  9836 ;; Data sizes:     COMRAM   BANK0   BANK1   BANK2   BANK3   BANK4   BANK5   BANK6   BANK7   BANK8   BANK9  BANK10  BANK1
      +1  BANK12  BANK13  BANK14
  9837 ;;      Params:         0       0       0       0       0       0       0       0       0       0       0       0       
      +0       0       0       0
  9838 ;;      Locals:         0       0       0       0       0       0       0       0       0       0       0       0       
      +0       0       0       0
  9839 ;;      Temps:          0       0       0       0       0       0       0       0       0       0       0       0       
      +0       0       0       0
  9840 ;;      Totals:         0       0       0       0       0       0       0       0       0       0       0       0       
      +0       0       0       0
  9841 ;;Total ram usage:        0 bytes
  9842 ;; Hardware stack levels used: 1
  9843 ;; Hardware stack levels required when called: 1
  9844 ;; This function calls:
  9845 ;;		_I2C1_MasterStop
  9846 ;; This function is called by:
  9847 ;;		_I2C1_DO_TX
  9848 ;;		_I2C1_DO_TX_EMPTY
  9849 ;;		_I2C1_DO_ADDRESS_NACK
  9850 ;;		_I2C1_MasterFsm
  9851 ;; This function uses a non-reentrant model
  9852 ;;
  9853                           
  9854                           	psect	text76
  9855   0039CE                     __ptext76:
  9856                           	callstack 0
  9857   0039CE                     _I2C1_DO_SEND_STOP:
  9858                           	callstack 16
  9859   0039CE                     
  9860                           ;mcc_generated_files/i2c1_master.c: 472:     I2C1_MasterStop();
  9861   0039CE  EC29  F01D         	call	_I2C1_MasterStop	;wreg free
  9862   0039D2                     
  9863                           ;mcc_generated_files/i2c1_master.c: 473:     return I2C1_IDLE;
  9864   0039D2  0E00               	movlw	0
  9865   0039D4  0012               	return		;funcret
  9866   0039D6                     __end_of_I2C1_DO_SEND_STOP:
  9867                           	callstack 0
  9868                           
  9869 ;; *************** function _I2C1_DO_SEND_RESTART *****************
  9870 ;; Defined at:
  9871 ;;		line 464 in file "mcc_generated_files/i2c1_master.c"
  9872 ;; Parameters:    Size  Location     Type
  9873 ;;		None
  9874 ;; Auto vars:     Size  Location     Type
  9875 ;;		None
  9876 ;; Return value:  Size  Location     Type
  9877 ;;                  1    wreg      enum E10029
  9878 ;; Registers used:
  9879 ;;		wreg, cstack
  9880 ;; Tracked objects:
  9881 ;;		On entry : 0/0
  9882 ;;		On exit  : 0/0
  9883 ;;		Unchanged: 0/0
  9884 ;; Data sizes:     COMRAM   BANK0   BANK1   BANK2   BANK3   BANK4   BANK5   BANK6   BANK7   BANK8   BANK9  BANK10  BANK1
      +1  BANK12  BANK13  BANK14
  9885 ;;      Params:         0       0       0       0       0       0       0       0       0       0       0       0       
      +0       0       0       0
  9886 ;;      Locals:         0       0       0       0       0       0       0       0       0       0       0       0       
      +0       0       0       0
  9887 ;;      Temps:          0       0       0       0       0       0       0       0       0       0       0       0       
      +0       0       0       0
  9888 ;;      Totals:         0       0       0       0       0       0       0       0       0       0       0       0       
      +0       0       0       0
  9889 ;;Total ram usage:        0 bytes
  9890 ;; Hardware stack levels used: 1
  9891 ;; Hardware stack levels required when called: 1
  9892 ;; This function calls:
  9893 ;;		_I2C1_MasterEnableRestart
  9894 ;; This function is called by:
  9895 ;;		_I2C1_DO_TX_EMPTY
  9896 ;;		_I2C1_DO_ADDRESS_NACK
  9897 ;;		_I2C1_MasterFsm
  9898 ;; This function uses a non-reentrant model
  9899 ;;
  9900                           
  9901                           	psect	text77
  9902   0039D6                     __ptext77:
  9903                           	callstack 0
  9904   0039D6                     _I2C1_DO_SEND_RESTART:
  9905                           	callstack 16
  9906   0039D6                     
  9907                           ;mcc_generated_files/i2c1_master.c: 466:     I2C1_MasterEnableRestart();
  9908   0039D6  EC2B  F01D         	call	_I2C1_MasterEnableRestart	;wreg free
  9909   0039DA                     
  9910                           ;mcc_generated_files/i2c1_master.c: 467:     return I2C1_SEND_ADR_READ;
  9911   0039DA  0E01               	movlw	1
  9912   0039DC  0012               	return		;funcret
  9913   0039DE                     __end_of_I2C1_DO_SEND_RESTART:
  9914                           	callstack 0
  9915                           
  9916 ;; *************** function _I2C1_DO_SEND_RESTART_WRITE *****************
  9917 ;; Defined at:
  9918 ;;		line 457 in file "mcc_generated_files/i2c1_master.c"
  9919 ;; Parameters:    Size  Location     Type
  9920 ;;		None
  9921 ;; Auto vars:     Size  Location     Type
  9922 ;;		None
  9923 ;; Return value:  Size  Location     Type
  9924 ;;                  1    wreg      enum E10029
  9925 ;; Registers used:
  9926 ;;		wreg, cstack
  9927 ;; Tracked objects:
  9928 ;;		On entry : 0/0
  9929 ;;		On exit  : 0/0
  9930 ;;		Unchanged: 0/0
  9931 ;; Data sizes:     COMRAM   BANK0   BANK1   BANK2   BANK3   BANK4   BANK5   BANK6   BANK7   BANK8   BANK9  BANK10  BANK1
      +1  BANK12  BANK13  BANK14
  9932 ;;      Params:         0       0       0       0       0       0       0       0       0       0       0       0       
      +0       0       0       0
  9933 ;;      Locals:         0       0       0       0       0       0       0       0       0       0       0       0       
      +0       0       0       0
  9934 ;;      Temps:          0       0       0       0       0       0       0       0       0       0       0       0       
      +0       0       0       0
  9935 ;;      Totals:         0       0       0       0       0       0       0       0       0       0       0       0       
      +0       0       0       0
  9936 ;;Total ram usage:        0 bytes
  9937 ;; Hardware stack levels used: 1
  9938 ;; Hardware stack levels required when called: 1
  9939 ;; This function calls:
  9940 ;;		_I2C1_MasterEnableRestart
  9941 ;; This function is called by:
  9942 ;;		_I2C1_DO_TX
  9943 ;;		_I2C1_MasterFsm
  9944 ;; This function uses a non-reentrant model
  9945 ;;
  9946                           
  9947                           	psect	text78
  9948   0039DE                     __ptext78:
  9949                           	callstack 0
  9950   0039DE                     _I2C1_DO_SEND_RESTART_WRITE:
  9951                           	callstack 16
  9952   0039DE                     
  9953                           ;mcc_generated_files/i2c1_master.c: 459:     I2C1_MasterEnableRestart();
  9954   0039DE  EC2B  F01D         	call	_I2C1_MasterEnableRestart	;wreg free
  9955   0039E2                     
  9956                           ;mcc_generated_files/i2c1_master.c: 460:     return I2C1_SEND_ADR_WRITE;
  9957   0039E2  0E02               	movlw	2
  9958   0039E4  0012               	return		;funcret
  9959   0039E6                     __end_of_I2C1_DO_SEND_RESTART_WRITE:
  9960                           	callstack 0
  9961                           
  9962 ;; *************** function _I2C1_DO_SEND_RESTART_READ *****************
  9963 ;; Defined at:
  9964 ;;		line 451 in file "mcc_generated_files/i2c1_master.c"
  9965 ;; Parameters:    Size  Location     Type
  9966 ;;		None
  9967 ;; Auto vars:     Size  Location     Type
  9968 ;;		None
  9969 ;; Return value:  Size  Location     Type
  9970 ;;                  1    wreg      enum E10029
  9971 ;; Registers used:
  9972 ;;		wreg, cstack
  9973 ;; Tracked objects:
  9974 ;;		On entry : 0/0
  9975 ;;		On exit  : 0/0
  9976 ;;		Unchanged: 0/0
  9977 ;; Data sizes:     COMRAM   BANK0   BANK1   BANK2   BANK3   BANK4   BANK5   BANK6   BANK7   BANK8   BANK9  BANK10  BANK1
      +1  BANK12  BANK13  BANK14
  9978 ;;      Params:         0       0       0       0       0       0       0       0       0       0       0       0       
      +0       0       0       0
  9979 ;;      Locals:         0       0       0       0       0       0       0       0       0       0       0       0       
      +0       0       0       0
  9980 ;;      Temps:          0       0       0       0       0       0       0       0       0       0       0       0       
      +0       0       0       0
  9981 ;;      Totals:         0       0       0       0       0       0       0       0       0       0       0       0       
      +0       0       0       0
  9982 ;;Total ram usage:        0 bytes
  9983 ;; Hardware stack levels used: 1
  9984 ;; Hardware stack levels required when called: 1
  9985 ;; This function calls:
  9986 ;;		_I2C1_MasterEnableRestart
  9987 ;; This function is called by:
  9988 ;;		_I2C1_DO_TX
  9989 ;;		_I2C1_MasterFsm
  9990 ;; This function uses a non-reentrant model
  9991 ;;
  9992                           
  9993                           	psect	text79
  9994   0039E6                     __ptext79:
  9995                           	callstack 0
  9996   0039E6                     _I2C1_DO_SEND_RESTART_READ:
  9997                           	callstack 16
  9998   0039E6                     
  9999                           ;mcc_generated_files/i2c1_master.c: 453:     I2C1_MasterEnableRestart();
 10000   0039E6  EC2B  F01D         	call	_I2C1_MasterEnableRestart	;wreg free
 10001   0039EA                     
 10002                           ;mcc_generated_files/i2c1_master.c: 454:     return I2C1_SEND_ADR_READ;
 10003   0039EA  0E01               	movlw	1
 10004   0039EC  0012               	return		;funcret
 10005   0039EE                     __end_of_I2C1_DO_SEND_RESTART_READ:
 10006                           	callstack 0
 10007                           
 10008 ;; *************** function _I2C1_DO_RCEN *****************
 10009 ;; Defined at:
 10010 ;;		line 404 in file "mcc_generated_files/i2c1_master.c"
 10011 ;; Parameters:    Size  Location     Type
 10012 ;;		None
 10013 ;; Auto vars:     Size  Location     Type
 10014 ;;		None
 10015 ;; Return value:  Size  Location     Type
 10016 ;;                  1    wreg      enum E10029
 10017 ;; Registers used:
 10018 ;;		wreg, cstack
 10019 ;; Tracked objects:
 10020 ;;		On entry : 0/0
 10021 ;;		On exit  : 0/0
 10022 ;;		Unchanged: 0/0
 10023 ;; Data sizes:     COMRAM   BANK0   BANK1   BANK2   BANK3   BANK4   BANK5   BANK6   BANK7   BANK8   BANK9  BANK10  BANK1
      +1  BANK12  BANK13  BANK14
 10024 ;;      Params:         0       0       0       0       0       0       0       0       0       0       0       0       
      +0       0       0       0
 10025 ;;      Locals:         0       0       0       0       0       0       0       0       0       0       0       0       
      +0       0       0       0
 10026 ;;      Temps:          0       0       0       0       0       0       0       0       0       0       0       0       
      +0       0       0       0
 10027 ;;      Totals:         0       0       0       0       0       0       0       0       0       0       0       0       
      +0       0       0       0
 10028 ;;Total ram usage:        0 bytes
 10029 ;; Hardware stack levels used: 1
 10030 ;; Hardware stack levels required when called: 1
 10031 ;; This function calls:
 10032 ;;		_I2C1_MasterStartRx
 10033 ;; This function is called by:
 10034 ;;		_I2C1_MasterFsm
 10035 ;; This function uses a non-reentrant model
 10036 ;;
 10037                           
 10038                           	psect	text80
 10039   00395C                     __ptext80:
 10040                           	callstack 0
 10041   00395C                     _I2C1_DO_RCEN:
 10042                           	callstack 17
 10043   00395C                     
 10044                           ;mcc_generated_files/i2c1_master.c: 406:     I2C1_Status.addressNackCheck = 0;
 10045   00395C  0100               	movlb	0	; () banked
 10046   00395E  91DF               	bcf	(_I2C1_Status+35)& (0+255),0,b
 10047   003960                     
 10048                           ; BSR set to: 0
 10049                           ;mcc_generated_files/i2c1_master.c: 407:     I2C1_MasterStartRx();
 10050   003960  EC23  F01D         	call	_I2C1_MasterStartRx	;wreg free
 10051   003964                     
 10052                           ;mcc_generated_files/i2c1_master.c: 408:     return I2C1_RX;
 10053   003964  0E04               	movlw	4
 10054   003966  0012               	return		;funcret
 10055   003968                     __end_of_I2C1_DO_RCEN:
 10056                           	callstack 0
 10057                           
 10058 ;; *************** function _I2C1_DO_RX *****************
 10059 ;; Defined at:
 10060 ;;		line 380 in file "mcc_generated_files/i2c1_master.c"
 10061 ;; Parameters:    Size  Location     Type
 10062 ;;		None
 10063 ;; Auto vars:     Size  Location     Type
 10064 ;;		None
 10065 ;; Return value:  Size  Location     Type
 10066 ;;                  1    wreg      enum E10029
 10067 ;; Registers used:
 10068 ;;		wreg, fsr2l, fsr2h, status,2, status,0, pcl, pclath, pclatu, tosl, prodl, prodh, cstack
 10069 ;; Tracked objects:
 10070 ;;		On entry : 0/0
 10071 ;;		On exit  : 0/0
 10072 ;;		Unchanged: 0/0
 10073 ;; Data sizes:     COMRAM   BANK0   BANK1   BANK2   BANK3   BANK4   BANK5   BANK6   BANK7   BANK8   BANK9  BANK10  BANK1
      +1  BANK12  BANK13  BANK14
 10074 ;;      Params:         0       0       0       0       0       0       0       0       0       0       0       0       
      +0       0       0       0
 10075 ;;      Locals:         0       0       0       0       0       0       0       0       0       0       0       0       
      +0       0       0       0
 10076 ;;      Temps:          2       0       0       0       0       0       0       0       0       0       0       0       
      +0       0       0       0
 10077 ;;      Totals:         2       0       0       0       0       0       0       0       0       0       0       0       
      +0       0       0       0
 10078 ;;Total ram usage:        2 bytes
 10079 ;; Hardware stack levels used: 1
 10080 ;; Hardware stack levels required when called: 3
 10081 ;; This function calls:
 10082 ;;		Absolute function
 10083 ;;		_I2C1_CallbackReturnReset
 10084 ;;		_I2C1_CallbackReturnStop
 10085 ;;		_I2C1_DO_RX_NACK_RESTART
 10086 ;;		_I2C1_DO_RX_NACK_STOP
 10087 ;;		_I2C1_MasterGetRxData
 10088 ;;		_I2C1_MasterSendAck
 10089 ;;		_rd1RegCompleteHandler
 10090 ;;		_rd2RegCompleteHandler
 10091 ;;		_rdBlkRegCompleteHandler
 10092 ;;		_wr1RegCompleteHandler
 10093 ;;		_wr2RegCompleteHandler
 10094 ;; This function is called by:
 10095 ;;		_I2C1_MasterFsm
 10096 ;; This function uses a non-reentrant model
 10097 ;;
 10098                           
 10099                           	psect	text81
 10100   002CDE                     __ptext81:
 10101                           	callstack 0
 10102   002CDE                     _I2C1_DO_RX:
 10103                           	callstack 15
 10104   002CDE                     
 10105                           ;mcc_generated_files/i2c1_master.c: 382:     *I2C1_Status.data_ptr++ = I2C1_MasterGetRxD
      +                          ata();
 10106   002CDE  EC21  F01D         	call	_I2C1_MasterGetRxData	;wreg free
 10107   002CE2  C0D9  FFD9         	movff	_I2C1_Status+29,fsr2l
 10108   002CE6  C0DA  FFDA         	movff	_I2C1_Status+30,fsr2h
 10109   002CEA  6EDF               	movwf	indf2,c
 10110   002CEC  0100               	movlb	0	; () banked
 10111   002CEE  4BD9               	infsnz	(_I2C1_Status+29)& (0+255),f,b
 10112   002CF0  2BDA               	incf	(_I2C1_Status+30)& (0+255),f,b
 10113   002CF2                     
 10114                           ; BSR set to: 0
 10115                           ;mcc_generated_files/i2c1_master.c: 383:     if(--I2C1_Status.data_length)
 10116   002CF2  07DB               	decf	(_I2C1_Status+31)& (0+255),f,b
 10117   002CF4  A0D8               	btfss	status,0,c
 10118   002CF6  07DC               	decf	(_I2C1_Status+32)& (0+255),f,b
 10119   002CF8  51DB               	movf	(_I2C1_Status+31)& (0+255),w,b
 10120   002CFA  11DC               	iorwf	(_I2C1_Status+32)& (0+255),w,b
 10121   002CFC  B4D8               	btfsc	status,2,c
 10122   002CFE  EF83  F016         	goto	i2u253_41
 10123   002D02  EF85  F016         	goto	i2u253_40
 10124   002D06                     i2u253_41:
 10125   002D06  EF8A  F016         	goto	i2l438
 10126   002D0A                     i2u253_40:
 10127   002D0A                     
 10128                           ; BSR set to: 0
 10129                           ;mcc_generated_files/i2c1_master.c: 384:     {;mcc_generated_files/i2c1_master.c: 385:  
      +                                 I2C1_MasterSendAck();
 10130   002D0A  EC13  F01D         	call	_I2C1_MasterSendAck	;wreg free
 10131   002D0E                     
 10132                           ;mcc_generated_files/i2c1_master.c: 386:         return I2C1_RCEN;
 10133   002D0E  0E05               	movlw	5
 10134   002D10  EFC1  F016         	goto	i2l439
 10135   002D14                     i2l438:
 10136                           
 10137                           ; BSR set to: 0
 10138                           ;mcc_generated_files/i2c1_master.c: 389:     {;mcc_generated_files/i2c1_master.c: 390:  
      +                                 I2C1_Status.bufferFree = 1;
 10139   002D14  87DF               	bsf	(_I2C1_Status+35)& (0+255),3,b
 10140                           
 10141                           ;mcc_generated_files/i2c1_master.c: 391:         switch(I2C1_Status.callbackTable[I2C1_D
      +                          ATA_COMPLETE](I2C1_Status.callbackPayload[I2C1_DATA_COMPLETE]))
 10142   002D16  EF95  F016         	goto	i2l4062
 10143   002D1A                     i2l4052:
 10144                           
 10145                           ;mcc_generated_files/i2c1_master.c: 395:                 return I2C1_DO_RX_NACK_RESTART(
      +                          );
 10146   002D1A  ECDB  F01C         	call	_I2C1_DO_RX_NACK_RESTART	;wreg free
 10147   002D1E  EFC1  F016         	goto	i2l439
 10148   002D22                     i2l4056:
 10149                           
 10150                           ;mcc_generated_files/i2c1_master.c: 399:                 return I2C1_DO_RX_NACK_STOP();
 10151   002D22  ECDF  F01C         	call	_I2C1_DO_RX_NACK_STOP	;wreg free
 10152   002D26  EFC1  F016         	goto	i2l439
 10153   002D2A                     i2l4062:
 10154                           
 10155                           ; BSR set to: 0
 10156   002D2A  C0C8  F00A         	movff	_I2C1_Status+12,I2C1_CallbackReturnReset@funPtr
 10157   002D2E  C0C9  F00B         	movff	_I2C1_Status+13,I2C1_CallbackReturnReset@funPtr+1
 10158   002D32  D802               	call	i2u254_48
 10159   002D34  EFA5  F016         	goto	i2u254_49
 10160   002D38                     i2u254_48:
 10161   002D38  0005               	push	
 10162   002D3A  6EFA               	movwf	pclath,c
 10163   002D3C  51BC               	movf	_I2C1_Status& (0+255),w,b
 10164   002D3E  6EFD               	movwf	tosl,c
 10165   002D40  51BD               	movf	(_I2C1_Status+1)& (0+255),w,b
 10166   002D42  6EFE               	movwf	tosh,c
 10167   002D44  6AFF               	clrf	tosu,c
 10168   002D46  50FA               	movf	pclath,w,c
 10169   002D48  0012               	return		;indir
 10170   002D4A                     i2u254_49:
 10171   002D4A  6E0C               	movwf	??_I2C1_DO_RX^0,c
 10172   002D4C  6A0D               	clrf	(??_I2C1_DO_RX+1)^0,c
 10173                           
 10174                           ; Switch on 2 bytes has been partitioned into a top level switch of size 1, and 1 sub-sw
      +                          itches
 10175                           ; Switch size 1, requested type "simple"
 10176                           ; Number of cases is 1, Range of values is 0 to 0
 10177                           ; switch strategies available:
 10178                           ; Name         Instructions Cycles
 10179                           ; simple_byte            4     3 (average)
 10180                           ;	Chosen strategy is simple_byte
 10181   002D4E  500D               	movf	(??_I2C1_DO_RX+1)^0,w,c
 10182   002D50  0A00               	xorlw	0	; case 0
 10183   002D52  B4D8               	btfsc	status,2,c
 10184   002D54  EFAE  F016         	goto	i2l6386
 10185   002D58  EF91  F016         	goto	i2l4056
 10186   002D5C                     i2l6386:
 10187                           
 10188                           ; Switch size 1, requested type "simple"
 10189                           ; Number of cases is 4, Range of values is 1 to 4
 10190                           ; switch strategies available:
 10191                           ; Name         Instructions Cycles
 10192                           ; simple_byte           13     7 (average)
 10193                           ;	Chosen strategy is simple_byte
 10194   002D5C  500C               	movf	??_I2C1_DO_RX^0,w,c
 10195   002D5E  0A01               	xorlw	1	; case 1
 10196   002D60  B4D8               	btfsc	status,2,c
 10197   002D62  EF91  F016         	goto	i2l4056
 10198   002D66  0A03               	xorlw	3	; case 2
 10199   002D68  B4D8               	btfsc	status,2,c
 10200   002D6A  EF8D  F016         	goto	i2l4052
 10201   002D6E  0A01               	xorlw	1	; case 3
 10202   002D70  B4D8               	btfsc	status,2,c
 10203   002D72  EF8D  F016         	goto	i2l4052
 10204   002D76  0A07               	xorlw	7	; case 4
 10205   002D78  B4D8               	btfsc	status,2,c
 10206   002D7A  EF91  F016         	goto	i2l4056
 10207   002D7E  EF91  F016         	goto	i2l4056
 10208   002D82                     i2l439:
 10209   002D82  0012               	return		;funcret
 10210   002D84                     __end_of_I2C1_DO_RX:
 10211                           	callstack 0
 10212                           
 10213 ;; *************** function _I2C1_DO_TX *****************
 10214 ;; Defined at:
 10215 ;;		line 356 in file "mcc_generated_files/i2c1_master.c"
 10216 ;; Parameters:    Size  Location     Type
 10217 ;;		None
 10218 ;; Auto vars:     Size  Location     Type
 10219 ;;		None
 10220 ;; Return value:  Size  Location     Type
 10221 ;;                  1    wreg      enum E10029
 10222 ;; Registers used:
 10223 ;;		wreg, fsr2l, fsr2h, status,2, status,0, pcl, pclath, pclatu, tosl, prodl, prodh, cstack
 10224 ;; Tracked objects:
 10225 ;;		On entry : 0/0
 10226 ;;		On exit  : 0/0
 10227 ;;		Unchanged: 0/0
 10228 ;; Data sizes:     COMRAM   BANK0   BANK1   BANK2   BANK3   BANK4   BANK5   BANK6   BANK7   BANK8   BANK9  BANK10  BANK1
      +1  BANK12  BANK13  BANK14
 10229 ;;      Params:         0       0       0       0       0       0       0       0       0       0       0       0       
      +0       0       0       0
 10230 ;;      Locals:         0       0       0       0       0       0       0       0       0       0       0       0       
      +0       0       0       0
 10231 ;;      Temps:          2       0       0       0       0       0       0       0       0       0       0       0       
      +0       0       0       0
 10232 ;;      Totals:         2       0       0       0       0       0       0       0       0       0       0       0       
      +0       0       0       0
 10233 ;;Total ram usage:        2 bytes
 10234 ;; Hardware stack levels used: 1
 10235 ;; Hardware stack levels required when called: 3
 10236 ;; This function calls:
 10237 ;;		Absolute function
 10238 ;;		_I2C1_CallbackReturnReset
 10239 ;;		_I2C1_CallbackReturnStop
 10240 ;;		_I2C1_DO_SEND_RESTART_READ
 10241 ;;		_I2C1_DO_SEND_RESTART_WRITE
 10242 ;;		_I2C1_DO_SEND_STOP
 10243 ;;		_I2C1_MasterIsNack
 10244 ;;		_I2C1_MasterSendTxData
 10245 ;;		_rd1RegCompleteHandler
 10246 ;;		_rd2RegCompleteHandler
 10247 ;;		_rdBlkRegCompleteHandler
 10248 ;;		_wr1RegCompleteHandler
 10249 ;;		_wr2RegCompleteHandler
 10250 ;; This function is called by:
 10251 ;;		_I2C1_MasterFsm
 10252 ;; This function uses a non-reentrant model
 10253 ;;
 10254                           
 10255                           	psect	text82
 10256   002B6C                     __ptext82:
 10257                           	callstack 0
 10258   002B6C                     _I2C1_DO_TX:
 10259                           	callstack 15
 10260   002B6C                     
 10261                           ;mcc_generated_files/i2c1_master.c: 358:     if(I2C1_MasterIsNack())
 10262   002B6C  EC81  F01C         	call	_I2C1_MasterIsNack	;wreg free
 10263   002B70  0900               	iorlw	0
 10264   002B72  B4D8               	btfsc	status,2,c
 10265   002B74  EFBE  F015         	goto	i2u250_41
 10266   002B78  EFC0  F015         	goto	i2u250_40
 10267   002B7C                     i2u250_41:
 10268   002B7C  EFFB  F015         	goto	i2l422
 10269   002B80                     i2u250_40:
 10270   002B80  EFCE  F015         	goto	i2l4022
 10271   002B84                     i2l4008:
 10272                           
 10273                           ;mcc_generated_files/i2c1_master.c: 363:                 return I2C1_DO_SEND_RESTART_REA
      +                          D();
 10274   002B84  ECF3  F01C         	call	_I2C1_DO_SEND_RESTART_READ	;wreg free
 10275   002B88  EF17  F016         	goto	i2l425
 10276   002B8C                     i2l4012:
 10277                           
 10278                           ;mcc_generated_files/i2c1_master.c: 365:                   return I2C1_DO_SEND_RESTART_W
      +                          RITE();
 10279   002B8C  ECEF  F01C         	call	_I2C1_DO_SEND_RESTART_WRITE	;wreg free
 10280   002B90  EF17  F016         	goto	i2l425
 10281   002B94                     i2l4016:
 10282                           
 10283                           ;mcc_generated_files/i2c1_master.c: 369:                 return I2C1_DO_SEND_STOP();
 10284   002B94  ECE7  F01C         	call	_I2C1_DO_SEND_STOP	;wreg free
 10285   002B98  EF17  F016         	goto	i2l425
 10286   002B9C                     i2l4022:
 10287   002B9C  C0CE  F00A         	movff	_I2C1_Status+18,I2C1_CallbackReturnReset@funPtr
 10288   002BA0  C0CF  F00B         	movff	_I2C1_Status+19,I2C1_CallbackReturnReset@funPtr+1
 10289   002BA4  D802               	call	i2u251_48
 10290   002BA6  EFDF  F015         	goto	i2u251_49
 10291   002BAA                     i2u251_48:
 10292   002BAA  0005               	push	
 10293   002BAC  6EFA               	movwf	pclath,c
 10294   002BAE  0100               	movlb	0	; () banked
 10295   002BB0  51C2               	movf	(_I2C1_Status+6)& (0+255),w,b
 10296   002BB2  6EFD               	movwf	tosl,c
 10297   002BB4  51C3               	movf	(_I2C1_Status+7)& (0+255),w,b
 10298   002BB6  6EFE               	movwf	tosh,c
 10299   002BB8  6AFF               	clrf	tosu,c
 10300   002BBA  50FA               	movf	pclath,w,c
 10301   002BBC  0012               	return		;indir
 10302   002BBE                     i2u251_49:
 10303   002BBE  6E0C               	movwf	??_I2C1_DO_TX^0,c
 10304   002BC0  6A0D               	clrf	(??_I2C1_DO_TX+1)^0,c
 10305                           
 10306                           ; Switch on 2 bytes has been partitioned into a top level switch of size 1, and 1 sub-sw
      +                          itches
 10307                           ; Switch size 1, requested type "simple"
 10308                           ; Number of cases is 1, Range of values is 0 to 0
 10309                           ; switch strategies available:
 10310                           ; Name         Instructions Cycles
 10311                           ; simple_byte            4     3 (average)
 10312                           ;	Chosen strategy is simple_byte
 10313   002BC2  500D               	movf	(??_I2C1_DO_TX+1)^0,w,c
 10314   002BC4  0A00               	xorlw	0	; case 0
 10315   002BC6  B4D8               	btfsc	status,2,c
 10316   002BC8  EFE8  F015         	goto	i2l6388
 10317   002BCC  EFCA  F015         	goto	i2l4016
 10318   002BD0                     i2l6388:
 10319                           
 10320                           ; Switch size 1, requested type "simple"
 10321                           ; Number of cases is 4, Range of values is 1 to 4
 10322                           ; switch strategies available:
 10323                           ; Name         Instructions Cycles
 10324                           ; simple_byte           13     7 (average)
 10325                           ;	Chosen strategy is simple_byte
 10326   002BD0  500C               	movf	??_I2C1_DO_TX^0,w,c
 10327   002BD2  0A01               	xorlw	1	; case 1
 10328   002BD4  B4D8               	btfsc	status,2,c
 10329   002BD6  EFCA  F015         	goto	i2l4016
 10330   002BDA  0A03               	xorlw	3	; case 2
 10331   002BDC  B4D8               	btfsc	status,2,c
 10332   002BDE  EFC2  F015         	goto	i2l4008
 10333   002BE2  0A01               	xorlw	1	; case 3
 10334   002BE4  B4D8               	btfsc	status,2,c
 10335   002BE6  EFC6  F015         	goto	i2l4012
 10336   002BEA  0A07               	xorlw	7	; case 4
 10337   002BEC  B4D8               	btfsc	status,2,c
 10338   002BEE  EFCA  F015         	goto	i2l4016
 10339   002BF2  EFCA  F015         	goto	i2l4016
 10340   002BF6                     i2l422:
 10341                           
 10342                           ;mcc_generated_files/i2c1_master.c: 373:     {;mcc_generated_files/i2c1_master.c: 374:  
      +                                 I2C1_Status.addressNackCheck = 0;
 10343   002BF6  0100               	movlb	0	; () banked
 10344   002BF8  91DF               	bcf	(_I2C1_Status+35)& (0+255),0,b
 10345   002BFA                     
 10346                           ; BSR set to: 0
 10347                           ;mcc_generated_files/i2c1_master.c: 375:         I2C1_MasterSendTxData(*I2C1_Status.data
      +                          _ptr++);
 10348   002BFA  C0D9  FFD9         	movff	_I2C1_Status+29,fsr2l
 10349   002BFE  C0DA  FFDA         	movff	_I2C1_Status+30,fsr2h
 10350   002C02  4BD9               	infsnz	(_I2C1_Status+29)& (0+255),f,b
 10351   002C04  2BDA               	incf	(_I2C1_Status+30)& (0+255),f,b
 10352   002C06  50DF               	movf	indf2,w,c
 10353   002C08  ECF7  F01C         	call	_I2C1_MasterSendTxData
 10354   002C0C                     
 10355                           ;mcc_generated_files/i2c1_master.c: 376:         return (--I2C1_Status.data_length)?I2C1
      +                          _TX:I2C1_TX_EMPTY;
 10356   002C0C  0100               	movlb	0	; () banked
 10357   002C0E  07DB               	decf	(_I2C1_Status+31)& (0+255),f,b
 10358   002C10  A0D8               	btfss	status,0,c
 10359   002C12  07DC               	decf	(_I2C1_Status+32)& (0+255),f,b
 10360   002C14  51DB               	movf	(_I2C1_Status+31)& (0+255),w,b
 10361   002C16  11DC               	iorwf	(_I2C1_Status+32)& (0+255),w,b
 10362   002C18  A4D8               	btfss	status,2,c
 10363   002C1A  EF11  F016         	goto	i2u252_41
 10364   002C1E  EF13  F016         	goto	i2u252_40
 10365   002C22                     i2u252_41:
 10366   002C22  EF16  F016         	goto	i2l4030
 10367   002C26                     i2u252_40:
 10368   002C26                     
 10369                           ; BSR set to: 0
 10370   002C26  0E06               	movlw	6
 10371   002C28  EF17  F016         	goto	i2l425
 10372   002C2C                     i2l4030:
 10373                           
 10374                           ; BSR set to: 0
 10375   002C2C  0E03               	movlw	3
 10376   002C2E                     i2l425:
 10377   002C2E  0012               	return		;funcret
 10378   002C30                     __end_of_I2C1_DO_TX:
 10379                           	callstack 0
 10380                           
 10381 ;; *************** function _I2C1_DO_SEND_ADR_WRITE *****************
 10382 ;; Defined at:
 10383 ;;		line 349 in file "mcc_generated_files/i2c1_master.c"
 10384 ;; Parameters:    Size  Location     Type
 10385 ;;		None
 10386 ;; Auto vars:     Size  Location     Type
 10387 ;;		None
 10388 ;; Return value:  Size  Location     Type
 10389 ;;                  1    wreg      enum E10029
 10390 ;; Registers used:
 10391 ;;		wreg, status,2, status,0, cstack
 10392 ;; Tracked objects:
 10393 ;;		On entry : 0/0
 10394 ;;		On exit  : 0/0
 10395 ;;		Unchanged: 0/0
 10396 ;; Data sizes:     COMRAM   BANK0   BANK1   BANK2   BANK3   BANK4   BANK5   BANK6   BANK7   BANK8   BANK9  BANK10  BANK1
      +1  BANK12  BANK13  BANK14
 10397 ;;      Params:         0       0       0       0       0       0       0       0       0       0       0       0       
      +0       0       0       0
 10398 ;;      Locals:         0       0       0       0       0       0       0       0       0       0       0       0       
      +0       0       0       0
 10399 ;;      Temps:          0       0       0       0       0       0       0       0       0       0       0       0       
      +0       0       0       0
 10400 ;;      Totals:         0       0       0       0       0       0       0       0       0       0       0       0       
      +0       0       0       0
 10401 ;;Total ram usage:        0 bytes
 10402 ;; Hardware stack levels used: 1
 10403 ;; Hardware stack levels required when called: 1
 10404 ;; This function calls:
 10405 ;;		_I2C1_MasterSendTxData
 10406 ;; This function is called by:
 10407 ;;		_I2C1_MasterFsm
 10408 ;; This function uses a non-reentrant model
 10409 ;;
 10410                           
 10411                           	psect	text83
 10412   003916                     __ptext83:
 10413                           	callstack 0
 10414   003916                     _I2C1_DO_SEND_ADR_WRITE:
 10415                           	callstack 17
 10416   003916                     
 10417                           ;mcc_generated_files/i2c1_master.c: 351:     I2C1_Status.addressNackCheck = 1;
 10418   003916  0100               	movlb	0	; () banked
 10419   003918  81DF               	bsf	(_I2C1_Status+35)& (0+255),0,b
 10420   00391A                     
 10421                           ; BSR set to: 0
 10422                           ;mcc_generated_files/i2c1_master.c: 352:     I2C1_MasterSendTxData((uint8_t) (I2C1_Statu
      +                          s.address << 1));
 10423   00391A  51D8               	movf	(_I2C1_Status+28)& (0+255),w,b
 10424   00391C  25D8               	addwf	(_I2C1_Status+28)& (0+255),w,b
 10425   00391E  ECF7  F01C         	call	_I2C1_MasterSendTxData
 10426   003922                     
 10427                           ;mcc_generated_files/i2c1_master.c: 353:     return I2C1_TX;
 10428   003922  0E03               	movlw	3
 10429   003924  0012               	return		;funcret
 10430   003926                     __end_of_I2C1_DO_SEND_ADR_WRITE:
 10431                           	callstack 0
 10432                           
 10433 ;; *************** function _I2C1_DO_SEND_ADR_READ *****************
 10434 ;; Defined at:
 10435 ;;		line 342 in file "mcc_generated_files/i2c1_master.c"
 10436 ;; Parameters:    Size  Location     Type
 10437 ;;		None
 10438 ;; Auto vars:     Size  Location     Type
 10439 ;;		None
 10440 ;; Return value:  Size  Location     Type
 10441 ;;                  1    wreg      enum E10029
 10442 ;; Registers used:
 10443 ;;		wreg, status,0, cstack
 10444 ;; Tracked objects:
 10445 ;;		On entry : 0/0
 10446 ;;		On exit  : 0/0
 10447 ;;		Unchanged: 0/0
 10448 ;; Data sizes:     COMRAM   BANK0   BANK1   BANK2   BANK3   BANK4   BANK5   BANK6   BANK7   BANK8   BANK9  BANK10  BANK1
      +1  BANK12  BANK13  BANK14
 10449 ;;      Params:         0       0       0       0       0       0       0       0       0       0       0       0       
      +0       0       0       0
 10450 ;;      Locals:         0       0       0       0       0       0       0       0       0       0       0       0       
      +0       0       0       0
 10451 ;;      Temps:          0       0       0       0       0       0       0       0       0       0       0       0       
      +0       0       0       0
 10452 ;;      Totals:         0       0       0       0       0       0       0       0       0       0       0       0       
      +0       0       0       0
 10453 ;;Total ram usage:        0 bytes
 10454 ;; Hardware stack levels used: 1
 10455 ;; Hardware stack levels required when called: 1
 10456 ;; This function calls:
 10457 ;;		_I2C1_MasterSendTxData
 10458 ;; This function is called by:
 10459 ;;		_I2C1_MasterFsm
 10460 ;; This function uses a non-reentrant model
 10461 ;;
 10462                           
 10463                           	psect	text84
 10464   003926                     __ptext84:
 10465                           	callstack 0
 10466   003926                     _I2C1_DO_SEND_ADR_READ:
 10467                           	callstack 17
 10468   003926                     
 10469                           ;mcc_generated_files/i2c1_master.c: 344:     I2C1_Status.addressNackCheck = 1;
 10470   003926  0100               	movlb	0	; () banked
 10471   003928  81DF               	bsf	(_I2C1_Status+35)& (0+255),0,b
 10472   00392A                     
 10473                           ; BSR set to: 0
 10474                           ;mcc_generated_files/i2c1_master.c: 345:     I2C1_MasterSendTxData((uint8_t) (I2C1_Statu
      +                          s.address << 1 | 1));
 10475   00392A  80D8               	bsf	status,0,c
 10476   00392C  35D8               	rlcf	(_I2C1_Status+28)& (0+255),w,b
 10477   00392E  ECF7  F01C         	call	_I2C1_MasterSendTxData
 10478   003932                     
 10479                           ;mcc_generated_files/i2c1_master.c: 346:     return I2C1_RCEN;
 10480   003932  0E05               	movlw	5
 10481   003934  0012               	return		;funcret
 10482   003936                     __end_of_I2C1_DO_SEND_ADR_READ:
 10483                           	callstack 0
 10484                           
 10485 ;; *************** function _I2C1_DO_IDLE *****************
 10486 ;; Defined at:
 10487 ;;		line 335 in file "mcc_generated_files/i2c1_master.c"
 10488 ;; Parameters:    Size  Location     Type
 10489 ;;		None
 10490 ;; Auto vars:     Size  Location     Type
 10491 ;;		None
 10492 ;; Return value:  Size  Location     Type
 10493 ;;                  1    wreg      enum E10029
 10494 ;; Registers used:
 10495 ;;		wreg, status,2
 10496 ;; Tracked objects:
 10497 ;;		On entry : 0/0
 10498 ;;		On exit  : 0/0
 10499 ;;		Unchanged: 0/0
 10500 ;; Data sizes:     COMRAM   BANK0   BANK1   BANK2   BANK3   BANK4   BANK5   BANK6   BANK7   BANK8   BANK9  BANK10  BANK1
      +1  BANK12  BANK13  BANK14
 10501 ;;      Params:         0       0       0       0       0       0       0       0       0       0       0       0       
      +0       0       0       0
 10502 ;;      Locals:         0       0       0       0       0       0       0       0       0       0       0       0       
      +0       0       0       0
 10503 ;;      Temps:          0       0       0       0       0       0       0       0       0       0       0       0       
      +0       0       0       0
 10504 ;;      Totals:         0       0       0       0       0       0       0       0       0       0       0       0       
      +0       0       0       0
 10505 ;;Total ram usage:        0 bytes
 10506 ;; Hardware stack levels used: 1
 10507 ;; This function calls:
 10508 ;;		Nothing
 10509 ;; This function is called by:
 10510 ;;		_I2C1_MasterFsm
 10511 ;; This function uses a non-reentrant model
 10512 ;;
 10513                           
 10514                           	psect	text85
 10515   003968                     __ptext85:
 10516                           	callstack 0
 10517   003968                     _I2C1_DO_IDLE:
 10518                           	callstack 18
 10519   003968                     
 10520                           ;mcc_generated_files/i2c1_master.c: 337:     I2C1_Status.busy = 0;
 10521   003968  0100               	movlb	0	; () banked
 10522   00396A  93DF               	bcf	(_I2C1_Status+35)& (0+255),1,b
 10523   00396C                     
 10524                           ; BSR set to: 0
 10525                           ;mcc_generated_files/i2c1_master.c: 338:     I2C1_Status.error = I2C1_NOERR;
 10526   00396C  0E00               	movlw	0
 10527   00396E  6FDE               	movwf	(_I2C1_Status+34)& (0+255),b
 10528   003970                     
 10529                           ; BSR set to: 0
 10530                           ;mcc_generated_files/i2c1_master.c: 339:     return I2C1_RESET;
 10531   003970  0E0E               	movlw	14
 10532   003972                     
 10533                           ; BSR set to: 0
 10534   003972  0012               	return		;funcret
 10535   003974                     __end_of_I2C1_DO_IDLE:
 10536                           	callstack 0
 10537                           
 10538 ;; *************** function _I2C1_DO_TX_EMPTY *****************
 10539 ;; Defined at:
 10540 ;;		line 411 in file "mcc_generated_files/i2c1_master.c"
 10541 ;; Parameters:    Size  Location     Type
 10542 ;;		None
 10543 ;; Auto vars:     Size  Location     Type
 10544 ;;		None
 10545 ;; Return value:  Size  Location     Type
 10546 ;;                  1    wreg      enum E10029
 10547 ;; Registers used:
 10548 ;;		wreg, fsr2l, fsr2h, status,2, status,0, pcl, pclath, pclatu, tosl, prodl, prodh, cstack
 10549 ;; Tracked objects:
 10550 ;;		On entry : 0/0
 10551 ;;		On exit  : 0/0
 10552 ;;		Unchanged: 0/0
 10553 ;; Data sizes:     COMRAM   BANK0   BANK1   BANK2   BANK3   BANK4   BANK5   BANK6   BANK7   BANK8   BANK9  BANK10  BANK1
      +1  BANK12  BANK13  BANK14
 10554 ;;      Params:         0       0       0       0       0       0       0       0       0       0       0       0       
      +0       0       0       0
 10555 ;;      Locals:         0       0       0       0       0       0       0       0       0       0       0       0       
      +0       0       0       0
 10556 ;;      Temps:          2       0       0       0       0       0       0       0       0       0       0       0       
      +0       0       0       0
 10557 ;;      Totals:         2       0       0       0       0       0       0       0       0       0       0       0       
      +0       0       0       0
 10558 ;;Total ram usage:        2 bytes
 10559 ;; Hardware stack levels used: 1
 10560 ;; Hardware stack levels required when called: 3
 10561 ;; This function calls:
 10562 ;;		Absolute function
 10563 ;;		_I2C1_CallbackReturnReset
 10564 ;;		_I2C1_CallbackReturnStop
 10565 ;;		_I2C1_DO_SEND_RESTART
 10566 ;;		_I2C1_DO_SEND_STOP
 10567 ;;		_I2C1_MasterSetIrq
 10568 ;;		_rd1RegCompleteHandler
 10569 ;;		_rd2RegCompleteHandler
 10570 ;;		_rdBlkRegCompleteHandler
 10571 ;;		_wr1RegCompleteHandler
 10572 ;;		_wr2RegCompleteHandler
 10573 ;; This function is called by:
 10574 ;;		_I2C1_MasterFsm
 10575 ;; This function uses a non-reentrant model
 10576 ;;
 10577                           
 10578                           	psect	text86
 10579   002EB8                     __ptext86:
 10580                           	callstack 0
 10581   002EB8                     _I2C1_DO_TX_EMPTY:
 10582                           	callstack 15
 10583   002EB8                     
 10584                           ;mcc_generated_files/i2c1_master.c: 413:     I2C1_Status.bufferFree = 1;
 10585   002EB8  0100               	movlb	0	; () banked
 10586   002EBA  87DF               	bsf	(_I2C1_Status+35)& (0+255),3,b
 10587                           
 10588                           ;mcc_generated_files/i2c1_master.c: 414:     switch(I2C1_Status.callbackTable[I2C1_DATA_
      +                          COMPLETE](I2C1_Status.callbackPayload[I2C1_DATA_COMPLETE]))
 10589   002EBC  EF6D  F017         	goto	i2l4094
 10590   002EC0                     i2l4078:
 10591                           
 10592                           ;mcc_generated_files/i2c1_master.c: 418:             return I2C1_DO_SEND_RESTART();
 10593   002EC0  ECEB  F01C         	call	_I2C1_DO_SEND_RESTART	;wreg free
 10594   002EC4  EF99  F017         	goto	i2l456
 10595   002EC8                     i2l4082:
 10596                           
 10597                           ;mcc_generated_files/i2c1_master.c: 420:             I2C1_MasterSetIrq();
 10598   002EC8  EC10  F01D         	call	_I2C1_MasterSetIrq	;wreg free
 10599   002ECC                     
 10600                           ;mcc_generated_files/i2c1_master.c: 421:             return I2C1_TX;
 10601   002ECC  0E03               	movlw	3
 10602   002ECE  EF99  F017         	goto	i2l456
 10603   002ED2                     i2l4088:
 10604                           
 10605                           ;mcc_generated_files/i2c1_master.c: 424:             return I2C1_DO_SEND_STOP();
 10606   002ED2  ECE7  F01C         	call	_I2C1_DO_SEND_STOP	;wreg free
 10607   002ED6  EF99  F017         	goto	i2l456
 10608   002EDA                     i2l4094:
 10609                           
 10610                           ; BSR set to: 0
 10611   002EDA  C0C8  F00A         	movff	_I2C1_Status+12,I2C1_CallbackReturnReset@funPtr
 10612   002EDE  C0C9  F00B         	movff	_I2C1_Status+13,I2C1_CallbackReturnReset@funPtr+1
 10613   002EE2  D802               	call	i2u255_48
 10614   002EE4  EF7D  F017         	goto	i2u255_49
 10615   002EE8                     i2u255_48:
 10616   002EE8  0005               	push	
 10617   002EEA  6EFA               	movwf	pclath,c
 10618   002EEC  51BC               	movf	_I2C1_Status& (0+255),w,b
 10619   002EEE  6EFD               	movwf	tosl,c
 10620   002EF0  51BD               	movf	(_I2C1_Status+1)& (0+255),w,b
 10621   002EF2  6EFE               	movwf	tosh,c
 10622   002EF4  6AFF               	clrf	tosu,c
 10623   002EF6  50FA               	movf	pclath,w,c
 10624   002EF8  0012               	return		;indir
 10625   002EFA                     i2u255_49:
 10626   002EFA  6E0C               	movwf	??_I2C1_DO_TX_EMPTY^0,c
 10627   002EFC  6A0D               	clrf	(??_I2C1_DO_TX_EMPTY+1)^0,c
 10628                           
 10629                           ; Switch on 2 bytes has been partitioned into a top level switch of size 1, and 1 sub-sw
      +                          itches
 10630                           ; Switch size 1, requested type "simple"
 10631                           ; Number of cases is 1, Range of values is 0 to 0
 10632                           ; switch strategies available:
 10633                           ; Name         Instructions Cycles
 10634                           ; simple_byte            4     3 (average)
 10635                           ;	Chosen strategy is simple_byte
 10636   002EFE  500D               	movf	(??_I2C1_DO_TX_EMPTY+1)^0,w,c
 10637   002F00  0A00               	xorlw	0	; case 0
 10638   002F02  B4D8               	btfsc	status,2,c
 10639   002F04  EF86  F017         	goto	i2l6390
 10640   002F08  EF69  F017         	goto	i2l4088
 10641   002F0C                     i2l6390:
 10642                           
 10643                           ; Switch size 1, requested type "simple"
 10644                           ; Number of cases is 4, Range of values is 1 to 4
 10645                           ; switch strategies available:
 10646                           ; Name         Instructions Cycles
 10647                           ; simple_byte           13     7 (average)
 10648                           ;	Chosen strategy is simple_byte
 10649   002F0C  500C               	movf	??_I2C1_DO_TX_EMPTY^0,w,c
 10650   002F0E  0A01               	xorlw	1	; case 1
 10651   002F10  B4D8               	btfsc	status,2,c
 10652   002F12  EF69  F017         	goto	i2l4088
 10653   002F16  0A03               	xorlw	3	; case 2
 10654   002F18  B4D8               	btfsc	status,2,c
 10655   002F1A  EF60  F017         	goto	i2l4078
 10656   002F1E  0A01               	xorlw	1	; case 3
 10657   002F20  B4D8               	btfsc	status,2,c
 10658   002F22  EF60  F017         	goto	i2l4078
 10659   002F26  0A07               	xorlw	7	; case 4
 10660   002F28  B4D8               	btfsc	status,2,c
 10661   002F2A  EF64  F017         	goto	i2l4082
 10662   002F2E  EF69  F017         	goto	i2l4088
 10663   002F32                     i2l456:
 10664   002F32  0012               	return		;funcret
 10665   002F34                     __end_of_I2C1_DO_TX_EMPTY:
 10666                           	callstack 0
 10667                           
 10668 ;; *************** function _I2C1_MasterSetIrq *****************
 10669 ;; Defined at:
 10670 ;;		line 647 in file "mcc_generated_files/i2c1_master.c"
 10671 ;; Parameters:    Size  Location     Type
 10672 ;;		None
 10673 ;; Auto vars:     Size  Location     Type
 10674 ;;		None
 10675 ;; Return value:  Size  Location     Type
 10676 ;;                  1    wreg      void 
 10677 ;; Registers used:
 10678 ;;		None
 10679 ;; Tracked objects:
 10680 ;;		On entry : 0/0
 10681 ;;		On exit  : 0/0
 10682 ;;		Unchanged: 0/0
 10683 ;; Data sizes:     COMRAM   BANK0   BANK1   BANK2   BANK3   BANK4   BANK5   BANK6   BANK7   BANK8   BANK9  BANK10  BANK1
      +1  BANK12  BANK13  BANK14
 10684 ;;      Params:         0       0       0       0       0       0       0       0       0       0       0       0       
      +0       0       0       0
 10685 ;;      Locals:         0       0       0       0       0       0       0       0       0       0       0       0       
      +0       0       0       0
 10686 ;;      Temps:          0       0       0       0       0       0       0       0       0       0       0       0       
      +0       0       0       0
 10687 ;;      Totals:         0       0       0       0       0       0       0       0       0       0       0       0       
      +0       0       0       0
 10688 ;;Total ram usage:        0 bytes
 10689 ;; Hardware stack levels used: 1
 10690 ;; This function calls:
 10691 ;;		Nothing
 10692 ;; This function is called by:
 10693 ;;		_I2C1_DO_TX_EMPTY
 10694 ;; This function uses a non-reentrant model
 10695 ;;
 10696                           
 10697                           	psect	text87
 10698   003A20                     __ptext87:
 10699                           	callstack 0
 10700   003A20                     _I2C1_MasterSetIrq:
 10701                           	callstack 17
 10702   003A20                     
 10703                           ;mcc_generated_files/i2c1_master.c: 649:     PIR3bits.SSP1IF = 1;
 10704   003A20  010E               	movlb	14	; () banked
 10705   003A22  81CD               	bsf	205,0,b	;volatile
 10706   003A24                     
 10707                           ; BSR set to: 14
 10708   003A24  0012               	return		;funcret
 10709   003A26                     __end_of_I2C1_MasterSetIrq:
 10710                           	callstack 0
 10711                           
 10712 ;; *************** function _I2C1_MasterIsNack *****************
 10713 ;; Defined at:
 10714 ;;		line 599 in file "mcc_generated_files/i2c1_master.c"
 10715 ;; Parameters:    Size  Location     Type
 10716 ;;		None
 10717 ;; Auto vars:     Size  Location     Type
 10718 ;;		None
 10719 ;; Return value:  Size  Location     Type
 10720 ;;                  1    wreg      _Bool 
 10721 ;; Registers used:
 10722 ;;		wreg
 10723 ;; Tracked objects:
 10724 ;;		On entry : 0/0
 10725 ;;		On exit  : 0/0
 10726 ;;		Unchanged: 0/0
 10727 ;; Data sizes:     COMRAM   BANK0   BANK1   BANK2   BANK3   BANK4   BANK5   BANK6   BANK7   BANK8   BANK9  BANK10  BANK1
      +1  BANK12  BANK13  BANK14
 10728 ;;      Params:         0       0       0       0       0       0       0       0       0       0       0       0       
      +0       0       0       0
 10729 ;;      Locals:         0       0       0       0       0       0       0       0       0       0       0       0       
      +0       0       0       0
 10730 ;;      Temps:          0       0       0       0       0       0       0       0       0       0       0       0       
      +0       0       0       0
 10731 ;;      Totals:         0       0       0       0       0       0       0       0       0       0       0       0       
      +0       0       0       0
 10732 ;;Total ram usage:        0 bytes
 10733 ;; Hardware stack levels used: 1
 10734 ;; This function calls:
 10735 ;;		Nothing
 10736 ;; This function is called by:
 10737 ;;		_I2C1_MasterFsm
 10738 ;;		_I2C1_DO_TX
 10739 ;; This function uses a non-reentrant model
 10740 ;;
 10741                           
 10742                           	psect	text88
 10743   003902                     __ptext88:
 10744                           	callstack 0
 10745   003902                     _I2C1_MasterIsNack:
 10746                           	callstack 18
 10747   003902                     
 10748                           ;mcc_generated_files/i2c1_master.c: 601:     return SSP1CON2bits.ACKSTAT;
 10749   003902  BC97               	btfsc	151,6,c	;volatile
 10750   003904  EF86  F01C         	goto	i2u229_41
 10751   003908  EF89  F01C         	goto	i2u229_40
 10752   00390C                     i2u229_41:
 10753   00390C  0E01               	movlw	1
 10754   00390E  EF8A  F01C         	goto	i2u229_46
 10755   003912                     i2u229_40:
 10756   003912  0E00               	movlw	0
 10757   003914                     i2u229_46:
 10758   003914  0012               	return		;funcret
 10759   003916                     __end_of_I2C1_MasterIsNack:
 10760                           	callstack 0
 10761                           
 10762 ;; *************** function _I2C1_MasterSendTxData *****************
 10763 ;; Defined at:
 10764 ;;		line 569 in file "mcc_generated_files/i2c1_master.c"
 10765 ;; Parameters:    Size  Location     Type
 10766 ;;  data            1    wreg     unsigned char 
 10767 ;; Auto vars:     Size  Location     Type
 10768 ;;  data            1    0[COMRAM] unsigned char 
 10769 ;; Return value:  Size  Location     Type
 10770 ;;                  1    wreg      void 
 10771 ;; Registers used:
 10772 ;;		wreg
 10773 ;; Tracked objects:
 10774 ;;		On entry : 0/0
 10775 ;;		On exit  : 0/0
 10776 ;;		Unchanged: 0/0
 10777 ;; Data sizes:     COMRAM   BANK0   BANK1   BANK2   BANK3   BANK4   BANK5   BANK6   BANK7   BANK8   BANK9  BANK10  BANK1
      +1  BANK12  BANK13  BANK14
 10778 ;;      Params:         0       0       0       0       0       0       0       0       0       0       0       0       
      +0       0       0       0
 10779 ;;      Locals:         1       0       0       0       0       0       0       0       0       0       0       0       
      +0       0       0       0
 10780 ;;      Temps:          0       0       0       0       0       0       0       0       0       0       0       0       
      +0       0       0       0
 10781 ;;      Totals:         1       0       0       0       0       0       0       0       0       0       0       0       
      +0       0       0       0
 10782 ;;Total ram usage:        1 bytes
 10783 ;; Hardware stack levels used: 1
 10784 ;; This function calls:
 10785 ;;		Nothing
 10786 ;; This function is called by:
 10787 ;;		_I2C1_DO_SEND_ADR_READ
 10788 ;;		_I2C1_DO_SEND_ADR_WRITE
 10789 ;;		_I2C1_DO_TX
 10790 ;; This function uses a non-reentrant model
 10791 ;;
 10792                           
 10793                           	psect	text89
 10794   0039EE                     __ptext89:
 10795                           	callstack 0
 10796   0039EE                     _I2C1_MasterSendTxData:
 10797                           	callstack 17
 10798                           
 10799                           ;incstack = 0
 10800                           ;I2C1_MasterSendTxData@data stored from wreg
 10801   0039EE  6E01               	movwf	I2C1_MasterSendTxData@data^0,c
 10802   0039F0                     
 10803                           ;mcc_generated_files/i2c1_master.c: 569: static __attribute__((inline)) void I2C1_Master
      +                          SendTxData(uint8_t data);mcc_generated_files/i2c1_master.c: 570: {;mcc_generated_files/i
      +                          2c1_master.c: 571:     SSP1BUF = data;
 10804   0039F0  C001  FF92         	movff	I2C1_MasterSendTxData@data,3986	;volatile
 10805   0039F4  0012               	return		;funcret
 10806   0039F6                     __end_of_I2C1_MasterSendTxData:
 10807                           	callstack 0
 10808                           
 10809 ;; *************** function _I2C1_MasterSendAck *****************
 10810 ;; Defined at:
 10811 ;;		line 604 in file "mcc_generated_files/i2c1_master.c"
 10812 ;; Parameters:    Size  Location     Type
 10813 ;;		None
 10814 ;; Auto vars:     Size  Location     Type
 10815 ;;		None
 10816 ;; Return value:  Size  Location     Type
 10817 ;;                  1    wreg      void 
 10818 ;; Registers used:
 10819 ;;		None
 10820 ;; Tracked objects:
 10821 ;;		On entry : 0/0
 10822 ;;		On exit  : 0/0
 10823 ;;		Unchanged: 0/0
 10824 ;; Data sizes:     COMRAM   BANK0   BANK1   BANK2   BANK3   BANK4   BANK5   BANK6   BANK7   BANK8   BANK9  BANK10  BANK1
      +1  BANK12  BANK13  BANK14
 10825 ;;      Params:         0       0       0       0       0       0       0       0       0       0       0       0       
      +0       0       0       0
 10826 ;;      Locals:         0       0       0       0       0       0       0       0       0       0       0       0       
      +0       0       0       0
 10827 ;;      Temps:          0       0       0       0       0       0       0       0       0       0       0       0       
      +0       0       0       0
 10828 ;;      Totals:         0       0       0       0       0       0       0       0       0       0       0       0       
      +0       0       0       0
 10829 ;;Total ram usage:        0 bytes
 10830 ;; Hardware stack levels used: 1
 10831 ;; This function calls:
 10832 ;;		Nothing
 10833 ;; This function is called by:
 10834 ;;		_I2C1_DO_RX
 10835 ;;		_I2C1_DO_RX_ACK
 10836 ;; This function uses a non-reentrant model
 10837 ;;
 10838                           
 10839                           	psect	text90
 10840   003A26                     __ptext90:
 10841                           	callstack 0
 10842   003A26                     _I2C1_MasterSendAck:
 10843                           	callstack 17
 10844   003A26                     
 10845                           ;mcc_generated_files/i2c1_master.c: 606:     SSP1CON2bits.ACKDT = 0;
 10846   003A26  9A97               	bcf	151,5,c	;volatile
 10847                           
 10848                           ;mcc_generated_files/i2c1_master.c: 607:     SSP1CON2bits.ACKEN = 1;
 10849   003A28  8897               	bsf	151,4,c	;volatile
 10850   003A2A  0012               	return		;funcret
 10851   003A2C                     __end_of_I2C1_MasterSendAck:
 10852                           	callstack 0
 10853                           
 10854 ;; *************** function _I2C1_MasterGetRxData *****************
 10855 ;; Defined at:
 10856 ;;		line 564 in file "mcc_generated_files/i2c1_master.c"
 10857 ;; Parameters:    Size  Location     Type
 10858 ;;		None
 10859 ;; Auto vars:     Size  Location     Type
 10860 ;;		None
 10861 ;; Return value:  Size  Location     Type
 10862 ;;                  1    wreg      unsigned char 
 10863 ;; Registers used:
 10864 ;;		wreg, status,2
 10865 ;; Tracked objects:
 10866 ;;		On entry : 0/0
 10867 ;;		On exit  : 0/0
 10868 ;;		Unchanged: 0/0
 10869 ;; Data sizes:     COMRAM   BANK0   BANK1   BANK2   BANK3   BANK4   BANK5   BANK6   BANK7   BANK8   BANK9  BANK10  BANK1
      +1  BANK12  BANK13  BANK14
 10870 ;;      Params:         0       0       0       0       0       0       0       0       0       0       0       0       
      +0       0       0       0
 10871 ;;      Locals:         0       0       0       0       0       0       0       0       0       0       0       0       
      +0       0       0       0
 10872 ;;      Temps:          0       0       0       0       0       0       0       0       0       0       0       0       
      +0       0       0       0
 10873 ;;      Totals:         0       0       0       0       0       0       0       0       0       0       0       0       
      +0       0       0       0
 10874 ;;Total ram usage:        0 bytes
 10875 ;; Hardware stack levels used: 1
 10876 ;; This function calls:
 10877 ;;		Nothing
 10878 ;; This function is called by:
 10879 ;;		_I2C1_DO_RX
 10880 ;; This function uses a non-reentrant model
 10881 ;;
 10882                           
 10883                           	psect	text91
 10884   003A42                     __ptext91:
 10885                           	callstack 0
 10886   003A42                     _I2C1_MasterGetRxData:
 10887                           	callstack 17
 10888   003A42                     
 10889                           ;mcc_generated_files/i2c1_master.c: 566:     return SSP1BUF;
 10890   003A42  5092               	movf	146,w,c	;volatile
 10891   003A44  0012               	return		;funcret
 10892   003A46                     __end_of_I2C1_MasterGetRxData:
 10893                           	callstack 0
 10894                           
 10895 ;; *************** function _I2C1_MasterSendNack *****************
 10896 ;; Defined at:
 10897 ;;		line 610 in file "mcc_generated_files/i2c1_master.c"
 10898 ;; Parameters:    Size  Location     Type
 10899 ;;		None
 10900 ;; Auto vars:     Size  Location     Type
 10901 ;;		None
 10902 ;; Return value:  Size  Location     Type
 10903 ;;                  1    wreg      void 
 10904 ;; Registers used:
 10905 ;;		None
 10906 ;; Tracked objects:
 10907 ;;		On entry : 0/0
 10908 ;;		On exit  : 0/0
 10909 ;;		Unchanged: 0/0
 10910 ;; Data sizes:     COMRAM   BANK0   BANK1   BANK2   BANK3   BANK4   BANK5   BANK6   BANK7   BANK8   BANK9  BANK10  BANK1
      +1  BANK12  BANK13  BANK14
 10911 ;;      Params:         0       0       0       0       0       0       0       0       0       0       0       0       
      +0       0       0       0
 10912 ;;      Locals:         0       0       0       0       0       0       0       0       0       0       0       0       
      +0       0       0       0
 10913 ;;      Temps:          0       0       0       0       0       0       0       0       0       0       0       0       
      +0       0       0       0
 10914 ;;      Totals:         0       0       0       0       0       0       0       0       0       0       0       0       
      +0       0       0       0
 10915 ;;Total ram usage:        0 bytes
 10916 ;; Hardware stack levels used: 1
 10917 ;; This function calls:
 10918 ;;		Nothing
 10919 ;; This function is called by:
 10920 ;;		_I2C1_DO_RX_NACK_STOP
 10921 ;;		_I2C1_DO_RX_NACK_RESTART
 10922 ;; This function uses a non-reentrant model
 10923 ;;
 10924                           
 10925                           	psect	text92
 10926   003A2C                     __ptext92:
 10927                           	callstack 0
 10928   003A2C                     _I2C1_MasterSendNack:
 10929                           	callstack 17
 10930   003A2C                     
 10931                           ;mcc_generated_files/i2c1_master.c: 612:     SSP1CON2bits.ACKDT = 1;
 10932   003A2C  8A97               	bsf	151,5,c	;volatile
 10933                           
 10934                           ;mcc_generated_files/i2c1_master.c: 613:     SSP1CON2bits.ACKEN = 1;
 10935   003A2E  8897               	bsf	151,4,c	;volatile
 10936   003A30  0012               	return		;funcret
 10937   003A32                     __end_of_I2C1_MasterSendNack:
 10938                           	callstack 0
 10939                           
 10940 ;; *************** function _I2C1_MasterStartRx *****************
 10941 ;; Defined at:
 10942 ;;		line 584 in file "mcc_generated_files/i2c1_master.c"
 10943 ;; Parameters:    Size  Location     Type
 10944 ;;		None
 10945 ;; Auto vars:     Size  Location     Type
 10946 ;;		None
 10947 ;; Return value:  Size  Location     Type
 10948 ;;                  1    wreg      void 
 10949 ;; Registers used:
 10950 ;;		None
 10951 ;; Tracked objects:
 10952 ;;		On entry : 0/0
 10953 ;;		On exit  : 0/0
 10954 ;;		Unchanged: 0/0
 10955 ;; Data sizes:     COMRAM   BANK0   BANK1   BANK2   BANK3   BANK4   BANK5   BANK6   BANK7   BANK8   BANK9  BANK10  BANK1
      +1  BANK12  BANK13  BANK14
 10956 ;;      Params:         0       0       0       0       0       0       0       0       0       0       0       0       
      +0       0       0       0
 10957 ;;      Locals:         0       0       0       0       0       0       0       0       0       0       0       0       
      +0       0       0       0
 10958 ;;      Temps:          0       0       0       0       0       0       0       0       0       0       0       0       
      +0       0       0       0
 10959 ;;      Totals:         0       0       0       0       0       0       0       0       0       0       0       0       
      +0       0       0       0
 10960 ;;Total ram usage:        0 bytes
 10961 ;; Hardware stack levels used: 1
 10962 ;; This function calls:
 10963 ;;		Nothing
 10964 ;; This function is called by:
 10965 ;;		_I2C1_DO_RCEN
 10966 ;; This function uses a non-reentrant model
 10967 ;;
 10968                           
 10969                           	psect	text93
 10970   003A46                     __ptext93:
 10971                           	callstack 0
 10972   003A46                     _I2C1_MasterStartRx:
 10973                           	callstack 17
 10974   003A46                     
 10975                           ;mcc_generated_files/i2c1_master.c: 586:     SSP1CON2bits.RCEN = 1;
 10976   003A46  8697               	bsf	151,3,c	;volatile
 10977   003A48  0012               	return		;funcret
 10978   003A4A                     __end_of_I2C1_MasterStartRx:
 10979                           	callstack 0
 10980                           
 10981 ;; *************** function _I2C1_CallbackReturnReset *****************
 10982 ;; Defined at:
 10983 ;;		line 526 in file "mcc_generated_files/i2c1_master.c"
 10984 ;; Parameters:    Size  Location     Type
 10985 ;;  funPtr          2    9[COMRAM] PTR void 
 10986 ;;		 -> I2C1_ReadDataBlock@bufferBlock(4), I2C1_Write2ByteRegister@data(2), I2C1_Write1ByteRegister@data(1), I2C1_Read2B
      +yteRegister@returnValue(2), 
 10987 ;;		 -> NULL(0), I2C1_Read1ByteRegister@returnValue(1), 
 10988 ;; Auto vars:     Size  Location     Type
 10989 ;;		None
 10990 ;; Return value:  Size  Location     Type
 10991 ;;                  1    wreg      enum E360
 10992 ;; Registers used:
 10993 ;;		wreg
 10994 ;; Tracked objects:
 10995 ;;		On entry : 0/0
 10996 ;;		On exit  : 0/0
 10997 ;;		Unchanged: 0/0
 10998 ;; Data sizes:     COMRAM   BANK0   BANK1   BANK2   BANK3   BANK4   BANK5   BANK6   BANK7   BANK8   BANK9  BANK10  BANK1
      +1  BANK12  BANK13  BANK14
 10999 ;;      Params:         2       0       0       0       0       0       0       0       0       0       0       0       
      +0       0       0       0
 11000 ;;      Locals:         0       0       0       0       0       0       0       0       0       0       0       0       
      +0       0       0       0
 11001 ;;      Temps:          0       0       0       0       0       0       0       0       0       0       0       0       
      +0       0       0       0
 11002 ;;      Totals:         2       0       0       0       0       0       0       0       0       0       0       0       
      +0       0       0       0
 11003 ;;Total ram usage:        2 bytes
 11004 ;; Hardware stack levels used: 1
 11005 ;; This function calls:
 11006 ;;		Nothing
 11007 ;; This function is called by:
 11008 ;;		_I2C1_Open
 11009 ;;		_I2C1_DO_TX
 11010 ;;		_I2C1_DO_RX
 11011 ;;		_I2C1_DO_TX_EMPTY
 11012 ;;		_I2C1_DO_ADDRESS_NACK
 11013 ;;		_I2C1_DO_RX_EMPTY
 11014 ;; This function uses a non-reentrant model
 11015 ;;
 11016                           
 11017                           	psect	text94
 11018   003A4A                     __ptext94:
 11019                           	callstack 0
 11020   003A4A                     _I2C1_CallbackReturnReset:
 11021                           	callstack 17
 11022   003A4A                     
 11023                           ;mcc_generated_files/i2c1_master.c: 526: i2c1_operations_t I2C1_CallbackReturnReset(void
      +                           *funPtr);mcc_generated_files/i2c1_master.c: 527: {;mcc_generated_files/i2c1_master.c: 5
      +                          28:     return I2C1_RESET_LINK;
 11024   003A4A  0E05               	movlw	5
 11025   003A4C  0012               	return		;funcret
 11026   003A4E                     __end_of_I2C1_CallbackReturnReset:
 11027                           	callstack 0
 11028                           
 11029 ;; *************** function _I2C1_CallbackReturnStop *****************
 11030 ;; Defined at:
 11031 ;;		line 521 in file "mcc_generated_files/i2c1_master.c"
 11032 ;; Parameters:    Size  Location     Type
 11033 ;;  funPtr          2    9[COMRAM] PTR void 
 11034 ;;		 -> I2C1_ReadDataBlock@bufferBlock(4), I2C1_Write2ByteRegister@data(2), I2C1_Write1ByteRegister@data(1), I2C1_Read2B
      +yteRegister@returnValue(2), 
 11035 ;;		 -> NULL(0), I2C1_Read1ByteRegister@returnValue(1), 
 11036 ;; Auto vars:     Size  Location     Type
 11037 ;;		None
 11038 ;; Return value:  Size  Location     Type
 11039 ;;                  1    wreg      enum E360
 11040 ;; Registers used:
 11041 ;;		wreg
 11042 ;; Tracked objects:
 11043 ;;		On entry : 0/0
 11044 ;;		On exit  : 0/0
 11045 ;;		Unchanged: 0/0
 11046 ;; Data sizes:     COMRAM   BANK0   BANK1   BANK2   BANK3   BANK4   BANK5   BANK6   BANK7   BANK8   BANK9  BANK10  BANK1
      +1  BANK12  BANK13  BANK14
 11047 ;;      Params:         2       0       0       0       0       0       0       0       0       0       0       0       
      +0       0       0       0
 11048 ;;      Locals:         0       0       0       0       0       0       0       0       0       0       0       0       
      +0       0       0       0
 11049 ;;      Temps:          0       0       0       0       0       0       0       0       0       0       0       0       
      +0       0       0       0
 11050 ;;      Totals:         2       0       0       0       0       0       0       0       0       0       0       0       
      +0       0       0       0
 11051 ;;Total ram usage:        2 bytes
 11052 ;; Hardware stack levels used: 1
 11053 ;; This function calls:
 11054 ;;		Nothing
 11055 ;; This function is called by:
 11056 ;;		_I2C1_Open
 11057 ;;		_I2C1_SetCallback
 11058 ;;		i2_I2C1_SetCallback
 11059 ;;		_I2C1_DO_TX
 11060 ;;		_I2C1_DO_RX
 11061 ;;		_I2C1_DO_TX_EMPTY
 11062 ;;		_I2C1_DO_ADDRESS_NACK
 11063 ;;		_I2C1_DO_RX_EMPTY
 11064 ;; This function uses a non-reentrant model
 11065 ;;
 11066                           
 11067                           	psect	text95
 11068   003A4E                     __ptext95:
 11069                           	callstack 0
 11070   003A4E                     _I2C1_CallbackReturnStop:
 11071                           	callstack 17
 11072   003A4E                     
 11073                           ;mcc_generated_files/i2c1_master.c: 521: i2c1_operations_t I2C1_CallbackReturnStop(void 
      +                          *funPtr);mcc_generated_files/i2c1_master.c: 522: {;mcc_generated_files/i2c1_master.c: 52
      +                          3:     return I2C1_STOP;
 11074   003A4E  0E01               	movlw	1
 11075   003A50  0012               	return		;funcret
 11076   003A52                     __end_of_I2C1_CallbackReturnStop:
 11077                           	callstack 0
 11078                           
 11079 ;; *************** function _rdBlkRegCompleteHandler *****************
 11080 ;; Defined at:
 11081 ;;		line 170 in file "mcc_generated_files/examples/i2c1_master_example.c"
 11082 ;; Parameters:    Size  Location     Type
 11083 ;;  ptr             2    9[COMRAM] PTR void 
 11084 ;;		 -> I2C1_ReadDataBlock@bufferBlock(4), I2C1_Write2ByteRegister@data(2), I2C1_Write1ByteRegister@data(1), I2C1_Read2B
      +yteRegister@returnValue(2), 
 11085 ;;		 -> NULL(0), I2C1_Read1ByteRegister@returnValue(1), 
 11086 ;; Auto vars:     Size  Location     Type
 11087 ;;		None
 11088 ;; Return value:  Size  Location     Type
 11089 ;;                  1    wreg      enum E360
 11090 ;; Registers used:
 11091 ;;		wreg, fsr2l, fsr2h, status,2, status,0, prodl, prodh, cstack
 11092 ;; Tracked objects:
 11093 ;;		On entry : 0/0
 11094 ;;		On exit  : 0/0
 11095 ;;		Unchanged: 0/0
 11096 ;; Data sizes:     COMRAM   BANK0   BANK1   BANK2   BANK3   BANK4   BANK5   BANK6   BANK7   BANK8   BANK9  BANK10  BANK1
      +1  BANK12  BANK13  BANK14
 11097 ;;      Params:         2       0       0       0       0       0       0       0       0       0       0       0       
      +0       0       0       0
 11098 ;;      Locals:         0       0       0       0       0       0       0       0       0       0       0       0       
      +0       0       0       0
 11099 ;;      Temps:          0       0       0       0       0       0       0       0       0       0       0       0       
      +0       0       0       0
 11100 ;;      Totals:         2       0       0       0       0       0       0       0       0       0       0       0       
      +0       0       0       0
 11101 ;;Total ram usage:        2 bytes
 11102 ;; Hardware stack levels used: 1
 11103 ;; Hardware stack levels required when called: 2
 11104 ;; This function calls:
 11105 ;;		i2_I2C1_SetBuffer
 11106 ;;		i2_I2C1_SetDataCompleteCallback
 11107 ;; This function is called by:
 11108 ;;		_I2C1_ReadDataBlock
 11109 ;;		_I2C1_DO_TX
 11110 ;;		_I2C1_DO_RX
 11111 ;;		_I2C1_DO_TX_EMPTY
 11112 ;;		_I2C1_DO_ADDRESS_NACK
 11113 ;;		_I2C1_DO_RX_EMPTY
 11114 ;; This function uses a non-reentrant model
 11115 ;;
 11116                           
 11117                           	psect	text96
 11118   0034F4                     __ptext96:
 11119                           	callstack 0
 11120   0034F4                     _rdBlkRegCompleteHandler:
 11121                           	callstack 15
 11122   0034F4                     
 11123                           ;mcc_generated_files/examples/i2c1_master_example.c: 170: static i2c1_operations_t rdBlk
      +                          RegCompleteHandler(void *ptr);mcc_generated_files/examples/i2c1_master_example.c: 171: {
      +                          ;mcc_generated_files/examples/i2c1_master_example.c: 172:     I2C1_SetBuffer(((i2c1_buff
      +                          er_t *)ptr)->data,((i2c1_buffer_t*)ptr)->len);
 11124   0034F4  EE20 F002          	lfsr	2,2
 11125   0034F8  500A               	movf	rdBlkRegCompleteHandler@ptr^0,w,c
 11126   0034FA  26D9               	addwf	fsr2l,f,c
 11127   0034FC  500B               	movf	(rdBlkRegCompleteHandler@ptr+1)^0,w,c
 11128   0034FE  22DA               	addwfc	fsr2h,f,c
 11129   003500  CFDE F001          	movff	postinc2,i2I2C1_SetBuffer@buffer
 11130   003504  CFDD F002          	movff	postdec2,i2I2C1_SetBuffer@buffer+1
 11131   003508  C00A  FFD9         	movff	rdBlkRegCompleteHandler@ptr,fsr2l
 11132   00350C  C00B  FFDA         	movff	rdBlkRegCompleteHandler@ptr+1,fsr2h
 11133   003510  CFDE F003          	movff	postinc2,i2I2C1_SetBuffer@bufferSize
 11134   003514  CFDD F004          	movff	postdec2,i2I2C1_SetBuffer@bufferSize+1
 11135   003518  ECCD  F01B         	call	i2_I2C1_SetBuffer	;wreg free
 11136   00351C                     
 11137                           ;mcc_generated_files/examples/i2c1_master_example.c: 173:     I2C1_SetDataCompleteCallba
      +                          ck(((void*)0),((void*)0));
 11138   00351C  0E00               	movlw	0
 11139   00351E  6E06               	movwf	i2I2C1_SetDataCompleteCallback@cb^0,c
 11140   003520  0E00               	movlw	0
 11141   003522  6E07               	movwf	(i2I2C1_SetDataCompleteCallback@cb+1)^0,c
 11142   003524  0E00               	movlw	0
 11143   003526  6E08               	movwf	i2I2C1_SetDataCompleteCallback@ptr^0,c
 11144   003528  0E00               	movlw	0
 11145   00352A  6E09               	movwf	(i2I2C1_SetDataCompleteCallback@ptr+1)^0,c
 11146   00352C  EC6B  F01C         	call	i2_I2C1_SetDataCompleteCallback	;wreg free
 11147   003530                     
 11148                           ;mcc_generated_files/examples/i2c1_master_example.c: 174:     return I2C1_RESTART_READ;
 11149   003530  0E02               	movlw	2
 11150   003532  0012               	return		;funcret
 11151   003534                     __end_of_rdBlkRegCompleteHandler:
 11152                           	callstack 0
 11153                           
 11154 ;; *************** function _wr1RegCompleteHandler *****************
 11155 ;; Defined at:
 11156 ;;		line 156 in file "mcc_generated_files/examples/i2c1_master_example.c"
 11157 ;; Parameters:    Size  Location     Type
 11158 ;;  ptr             2    9[COMRAM] PTR void 
 11159 ;;		 -> I2C1_ReadDataBlock@bufferBlock(4), I2C1_Write2ByteRegister@data(2), I2C1_Write1ByteRegister@data(1), I2C1_Read2B
      +yteRegister@returnValue(2), 
 11160 ;;		 -> NULL(0), I2C1_Read1ByteRegister@returnValue(1), 
 11161 ;; Auto vars:     Size  Location     Type
 11162 ;;		None
 11163 ;; Return value:  Size  Location     Type
 11164 ;;                  1    wreg      enum E360
 11165 ;; Registers used:
 11166 ;;		wreg, fsr2l, fsr2h, status,2, status,0, prodl, prodh, cstack
 11167 ;; Tracked objects:
 11168 ;;		On entry : 0/0
 11169 ;;		On exit  : 0/0
 11170 ;;		Unchanged: 0/0
 11171 ;; Data sizes:     COMRAM   BANK0   BANK1   BANK2   BANK3   BANK4   BANK5   BANK6   BANK7   BANK8   BANK9  BANK10  BANK1
      +1  BANK12  BANK13  BANK14
 11172 ;;      Params:         2       0       0       0       0       0       0       0       0       0       0       0       
      +0       0       0       0
 11173 ;;      Locals:         0       0       0       0       0       0       0       0       0       0       0       0       
      +0       0       0       0
 11174 ;;      Temps:          0       0       0       0       0       0       0       0       0       0       0       0       
      +0       0       0       0
 11175 ;;      Totals:         2       0       0       0       0       0       0       0       0       0       0       0       
      +0       0       0       0
 11176 ;;Total ram usage:        2 bytes
 11177 ;; Hardware stack levels used: 1
 11178 ;; Hardware stack levels required when called: 2
 11179 ;; This function calls:
 11180 ;;		i2_I2C1_SetBuffer
 11181 ;;		i2_I2C1_SetDataCompleteCallback
 11182 ;; This function is called by:
 11183 ;;		_I2C1_Write1ByteRegister
 11184 ;;		_I2C1_DO_TX
 11185 ;;		_I2C1_DO_RX
 11186 ;;		_I2C1_DO_TX_EMPTY
 11187 ;;		_I2C1_DO_ADDRESS_NACK
 11188 ;;		_I2C1_DO_RX_EMPTY
 11189 ;; This function uses a non-reentrant model
 11190 ;;
 11191                           
 11192                           	psect	text97
 11193   0035FA                     __ptext97:
 11194                           	callstack 0
 11195   0035FA                     _wr1RegCompleteHandler:
 11196                           	callstack 15
 11197   0035FA                     
 11198                           ;mcc_generated_files/examples/i2c1_master_example.c: 156: static i2c1_operations_t wr1Re
      +                          gCompleteHandler(void *ptr);mcc_generated_files/examples/i2c1_master_example.c: 157: {;m
      +                          cc_generated_files/examples/i2c1_master_example.c: 158:     I2C1_SetBuffer(ptr,1);
 11199   0035FA  C00A  F001         	movff	wr1RegCompleteHandler@ptr,i2I2C1_SetBuffer@buffer
 11200   0035FE  C00B  F002         	movff	wr1RegCompleteHandler@ptr+1,i2I2C1_SetBuffer@buffer+1
 11201   003602  0E00               	movlw	0
 11202   003604  6E04               	movwf	(i2I2C1_SetBuffer@bufferSize+1)^0,c
 11203   003606  0E01               	movlw	1
 11204   003608  6E03               	movwf	i2I2C1_SetBuffer@bufferSize^0,c
 11205   00360A  ECCD  F01B         	call	i2_I2C1_SetBuffer	;wreg free
 11206   00360E                     
 11207                           ;mcc_generated_files/examples/i2c1_master_example.c: 159:     I2C1_SetDataCompleteCallba
      +                          ck(((void*)0),((void*)0));
 11208   00360E  0E00               	movlw	0
 11209   003610  6E06               	movwf	i2I2C1_SetDataCompleteCallback@cb^0,c
 11210   003612  0E00               	movlw	0
 11211   003614  6E07               	movwf	(i2I2C1_SetDataCompleteCallback@cb+1)^0,c
 11212   003616  0E00               	movlw	0
 11213   003618  6E08               	movwf	i2I2C1_SetDataCompleteCallback@ptr^0,c
 11214   00361A  0E00               	movlw	0
 11215   00361C  6E09               	movwf	(i2I2C1_SetDataCompleteCallback@ptr+1)^0,c
 11216   00361E  EC6B  F01C         	call	i2_I2C1_SetDataCompleteCallback	;wreg free
 11217   003622                     
 11218                           ;mcc_generated_files/examples/i2c1_master_example.c: 160:     return I2C1_CONTINUE;
 11219   003622  0E04               	movlw	4
 11220   003624  0012               	return		;funcret
 11221   003626                     __end_of_wr1RegCompleteHandler:
 11222                           	callstack 0
 11223                           
 11224 ;; *************** function _rd2RegCompleteHandler *****************
 11225 ;; Defined at:
 11226 ;;		line 149 in file "mcc_generated_files/examples/i2c1_master_example.c"
 11227 ;; Parameters:    Size  Location     Type
 11228 ;;  ptr             2    9[COMRAM] PTR void 
 11229 ;;		 -> I2C1_ReadDataBlock@bufferBlock(4), I2C1_Write2ByteRegister@data(2), I2C1_Write1ByteRegister@data(1), I2C1_Read2B
      +yteRegister@returnValue(2), 
 11230 ;;		 -> NULL(0), I2C1_Read1ByteRegister@returnValue(1), 
 11231 ;; Auto vars:     Size  Location     Type
 11232 ;;		None
 11233 ;; Return value:  Size  Location     Type
 11234 ;;                  1    wreg      enum E360
 11235 ;; Registers used:
 11236 ;;		wreg, fsr2l, fsr2h, status,2, status,0, prodl, prodh, cstack
 11237 ;; Tracked objects:
 11238 ;;		On entry : 0/0
 11239 ;;		On exit  : 0/0
 11240 ;;		Unchanged: 0/0
 11241 ;; Data sizes:     COMRAM   BANK0   BANK1   BANK2   BANK3   BANK4   BANK5   BANK6   BANK7   BANK8   BANK9  BANK10  BANK1
      +1  BANK12  BANK13  BANK14
 11242 ;;      Params:         2       0       0       0       0       0       0       0       0       0       0       0       
      +0       0       0       0
 11243 ;;      Locals:         0       0       0       0       0       0       0       0       0       0       0       0       
      +0       0       0       0
 11244 ;;      Temps:          0       0       0       0       0       0       0       0       0       0       0       0       
      +0       0       0       0
 11245 ;;      Totals:         2       0       0       0       0       0       0       0       0       0       0       0       
      +0       0       0       0
 11246 ;;Total ram usage:        2 bytes
 11247 ;; Hardware stack levels used: 1
 11248 ;; Hardware stack levels required when called: 2
 11249 ;; This function calls:
 11250 ;;		i2_I2C1_SetBuffer
 11251 ;;		i2_I2C1_SetDataCompleteCallback
 11252 ;; This function is called by:
 11253 ;;		_I2C1_Read2ByteRegister
 11254 ;;		_I2C1_DO_TX
 11255 ;;		_I2C1_DO_RX
 11256 ;;		_I2C1_DO_TX_EMPTY
 11257 ;;		_I2C1_DO_ADDRESS_NACK
 11258 ;;		_I2C1_DO_RX_EMPTY
 11259 ;; This function uses a non-reentrant model
 11260 ;;
 11261                           
 11262                           	psect	text98
 11263   003626                     __ptext98:
 11264                           	callstack 0
 11265   003626                     _rd2RegCompleteHandler:
 11266                           	callstack 15
 11267   003626                     
 11268                           ;mcc_generated_files/examples/i2c1_master_example.c: 149: static i2c1_operations_t rd2Re
      +                          gCompleteHandler(void *ptr);mcc_generated_files/examples/i2c1_master_example.c: 150: {;m
      +                          cc_generated_files/examples/i2c1_master_example.c: 151:     I2C1_SetBuffer(ptr,2);
 11269   003626  C00A  F001         	movff	rd2RegCompleteHandler@ptr,i2I2C1_SetBuffer@buffer
 11270   00362A  C00B  F002         	movff	rd2RegCompleteHandler@ptr+1,i2I2C1_SetBuffer@buffer+1
 11271   00362E  0E00               	movlw	0
 11272   003630  6E04               	movwf	(i2I2C1_SetBuffer@bufferSize+1)^0,c
 11273   003632  0E02               	movlw	2
 11274   003634  6E03               	movwf	i2I2C1_SetBuffer@bufferSize^0,c
 11275   003636  ECCD  F01B         	call	i2_I2C1_SetBuffer	;wreg free
 11276   00363A                     
 11277                           ;mcc_generated_files/examples/i2c1_master_example.c: 152:     I2C1_SetDataCompleteCallba
      +                          ck(((void*)0),((void*)0));
 11278   00363A  0E00               	movlw	0
 11279   00363C  6E06               	movwf	i2I2C1_SetDataCompleteCallback@cb^0,c
 11280   00363E  0E00               	movlw	0
 11281   003640  6E07               	movwf	(i2I2C1_SetDataCompleteCallback@cb+1)^0,c
 11282   003642  0E00               	movlw	0
 11283   003644  6E08               	movwf	i2I2C1_SetDataCompleteCallback@ptr^0,c
 11284   003646  0E00               	movlw	0
 11285   003648  6E09               	movwf	(i2I2C1_SetDataCompleteCallback@ptr+1)^0,c
 11286   00364A  EC6B  F01C         	call	i2_I2C1_SetDataCompleteCallback	;wreg free
 11287   00364E                     
 11288                           ;mcc_generated_files/examples/i2c1_master_example.c: 153:     return I2C1_RESTART_READ;
 11289   00364E  0E02               	movlw	2
 11290   003650  0012               	return		;funcret
 11291   003652                     __end_of_rd2RegCompleteHandler:
 11292                           	callstack 0
 11293                           
 11294 ;; *************** function _rd1RegCompleteHandler *****************
 11295 ;; Defined at:
 11296 ;;		line 142 in file "mcc_generated_files/examples/i2c1_master_example.c"
 11297 ;; Parameters:    Size  Location     Type
 11298 ;;  ptr             2    9[COMRAM] PTR void 
 11299 ;;		 -> I2C1_ReadDataBlock@bufferBlock(4), I2C1_Write2ByteRegister@data(2), I2C1_Write1ByteRegister@data(1), I2C1_Read2B
      +yteRegister@returnValue(2), 
 11300 ;;		 -> NULL(0), I2C1_Read1ByteRegister@returnValue(1), 
 11301 ;; Auto vars:     Size  Location     Type
 11302 ;;		None
 11303 ;; Return value:  Size  Location     Type
 11304 ;;                  1    wreg      enum E360
 11305 ;; Registers used:
 11306 ;;		wreg, fsr2l, fsr2h, status,2, status,0, prodl, prodh, cstack
 11307 ;; Tracked objects:
 11308 ;;		On entry : 0/0
 11309 ;;		On exit  : 0/0
 11310 ;;		Unchanged: 0/0
 11311 ;; Data sizes:     COMRAM   BANK0   BANK1   BANK2   BANK3   BANK4   BANK5   BANK6   BANK7   BANK8   BANK9  BANK10  BANK1
      +1  BANK12  BANK13  BANK14
 11312 ;;      Params:         2       0       0       0       0       0       0       0       0       0       0       0       
      +0       0       0       0
 11313 ;;      Locals:         0       0       0       0       0       0       0       0       0       0       0       0       
      +0       0       0       0
 11314 ;;      Temps:          0       0       0       0       0       0       0       0       0       0       0       0       
      +0       0       0       0
 11315 ;;      Totals:         2       0       0       0       0       0       0       0       0       0       0       0       
      +0       0       0       0
 11316 ;;Total ram usage:        2 bytes
 11317 ;; Hardware stack levels used: 1
 11318 ;; Hardware stack levels required when called: 2
 11319 ;; This function calls:
 11320 ;;		i2_I2C1_SetBuffer
 11321 ;;		i2_I2C1_SetDataCompleteCallback
 11322 ;; This function is called by:
 11323 ;;		_I2C1_Read1ByteRegister
 11324 ;;		_I2C1_DO_TX
 11325 ;;		_I2C1_DO_RX
 11326 ;;		_I2C1_DO_TX_EMPTY
 11327 ;;		_I2C1_DO_ADDRESS_NACK
 11328 ;;		_I2C1_DO_RX_EMPTY
 11329 ;; This function uses a non-reentrant model
 11330 ;;
 11331                           
 11332                           	psect	text99
 11333   003652                     __ptext99:
 11334                           	callstack 0
 11335   003652                     _rd1RegCompleteHandler:
 11336                           	callstack 15
 11337   003652                     
 11338                           ;mcc_generated_files/examples/i2c1_master_example.c: 142: static i2c1_operations_t rd1Re
      +                          gCompleteHandler(void *ptr);mcc_generated_files/examples/i2c1_master_example.c: 143: {;m
      +                          cc_generated_files/examples/i2c1_master_example.c: 144:     I2C1_SetBuffer(ptr,1);
 11339   003652  C00A  F001         	movff	rd1RegCompleteHandler@ptr,i2I2C1_SetBuffer@buffer
 11340   003656  C00B  F002         	movff	rd1RegCompleteHandler@ptr+1,i2I2C1_SetBuffer@buffer+1
 11341   00365A  0E00               	movlw	0
 11342   00365C  6E04               	movwf	(i2I2C1_SetBuffer@bufferSize+1)^0,c
 11343   00365E  0E01               	movlw	1
 11344   003660  6E03               	movwf	i2I2C1_SetBuffer@bufferSize^0,c
 11345   003662  ECCD  F01B         	call	i2_I2C1_SetBuffer	;wreg free
 11346   003666                     
 11347                           ;mcc_generated_files/examples/i2c1_master_example.c: 145:     I2C1_SetDataCompleteCallba
      +                          ck(((void*)0),((void*)0));
 11348   003666  0E00               	movlw	0
 11349   003668  6E06               	movwf	i2I2C1_SetDataCompleteCallback@cb^0,c
 11350   00366A  0E00               	movlw	0
 11351   00366C  6E07               	movwf	(i2I2C1_SetDataCompleteCallback@cb+1)^0,c
 11352   00366E  0E00               	movlw	0
 11353   003670  6E08               	movwf	i2I2C1_SetDataCompleteCallback@ptr^0,c
 11354   003672  0E00               	movlw	0
 11355   003674  6E09               	movwf	(i2I2C1_SetDataCompleteCallback@ptr+1)^0,c
 11356   003676  EC6B  F01C         	call	i2_I2C1_SetDataCompleteCallback	;wreg free
 11357   00367A                     
 11358                           ;mcc_generated_files/examples/i2c1_master_example.c: 146:     return I2C1_RESTART_READ;
 11359   00367A  0E02               	movlw	2
 11360   00367C  0012               	return		;funcret
 11361   00367E                     __end_of_rd1RegCompleteHandler:
 11362                           	callstack 0
 11363                           
 11364 ;; *************** function _wr2RegCompleteHandler *****************
 11365 ;; Defined at:
 11366 ;;		line 163 in file "mcc_generated_files/examples/i2c1_master_example.c"
 11367 ;; Parameters:    Size  Location     Type
 11368 ;;  ptr             2    9[COMRAM] PTR void 
 11369 ;;		 -> I2C1_ReadDataBlock@bufferBlock(4), I2C1_Write2ByteRegister@data(2), I2C1_Write1ByteRegister@data(1), I2C1_Read2B
      +yteRegister@returnValue(2), 
 11370 ;;		 -> NULL(0), I2C1_Read1ByteRegister@returnValue(1), 
 11371 ;; Auto vars:     Size  Location     Type
 11372 ;;		None
 11373 ;; Return value:  Size  Location     Type
 11374 ;;                  1    wreg      enum E360
 11375 ;; Registers used:
 11376 ;;		wreg, fsr2l, fsr2h, status,2, status,0, prodl, prodh, cstack
 11377 ;; Tracked objects:
 11378 ;;		On entry : 0/0
 11379 ;;		On exit  : 0/0
 11380 ;;		Unchanged: 0/0
 11381 ;; Data sizes:     COMRAM   BANK0   BANK1   BANK2   BANK3   BANK4   BANK5   BANK6   BANK7   BANK8   BANK9  BANK10  BANK1
      +1  BANK12  BANK13  BANK14
 11382 ;;      Params:         2       0       0       0       0       0       0       0       0       0       0       0       
      +0       0       0       0
 11383 ;;      Locals:         0       0       0       0       0       0       0       0       0       0       0       0       
      +0       0       0       0
 11384 ;;      Temps:          0       0       0       0       0       0       0       0       0       0       0       0       
      +0       0       0       0
 11385 ;;      Totals:         2       0       0       0       0       0       0       0       0       0       0       0       
      +0       0       0       0
 11386 ;;Total ram usage:        2 bytes
 11387 ;; Hardware stack levels used: 1
 11388 ;; Hardware stack levels required when called: 2
 11389 ;; This function calls:
 11390 ;;		i2_I2C1_SetBuffer
 11391 ;;		i2_I2C1_SetDataCompleteCallback
 11392 ;; This function is called by:
 11393 ;;		_I2C1_Write2ByteRegister
 11394 ;;		_I2C1_DO_TX
 11395 ;;		_I2C1_DO_RX
 11396 ;;		_I2C1_DO_TX_EMPTY
 11397 ;;		_I2C1_DO_ADDRESS_NACK
 11398 ;;		_I2C1_DO_RX_EMPTY
 11399 ;; This function uses a non-reentrant model
 11400 ;;
 11401                           
 11402                           	psect	text100
 11403   00367E                     __ptext100:
 11404                           	callstack 0
 11405   00367E                     _wr2RegCompleteHandler:
 11406                           	callstack 15
 11407   00367E                     
 11408                           ;mcc_generated_files/examples/i2c1_master_example.c: 163: static i2c1_operations_t wr2Re
      +                          gCompleteHandler(void *ptr);mcc_generated_files/examples/i2c1_master_example.c: 164: {;m
      +                          cc_generated_files/examples/i2c1_master_example.c: 165:     I2C1_SetBuffer(ptr,2);
 11409   00367E  C00A  F001         	movff	wr2RegCompleteHandler@ptr,i2I2C1_SetBuffer@buffer
 11410   003682  C00B  F002         	movff	wr2RegCompleteHandler@ptr+1,i2I2C1_SetBuffer@buffer+1
 11411   003686  0E00               	movlw	0
 11412   003688  6E04               	movwf	(i2I2C1_SetBuffer@bufferSize+1)^0,c
 11413   00368A  0E02               	movlw	2
 11414   00368C  6E03               	movwf	i2I2C1_SetBuffer@bufferSize^0,c
 11415   00368E  ECCD  F01B         	call	i2_I2C1_SetBuffer	;wreg free
 11416   003692                     
 11417                           ;mcc_generated_files/examples/i2c1_master_example.c: 166:     I2C1_SetDataCompleteCallba
      +                          ck(((void*)0),((void*)0));
 11418   003692  0E00               	movlw	0
 11419   003694  6E06               	movwf	i2I2C1_SetDataCompleteCallback@cb^0,c
 11420   003696  0E00               	movlw	0
 11421   003698  6E07               	movwf	(i2I2C1_SetDataCompleteCallback@cb+1)^0,c
 11422   00369A  0E00               	movlw	0
 11423   00369C  6E08               	movwf	i2I2C1_SetDataCompleteCallback@ptr^0,c
 11424   00369E  0E00               	movlw	0
 11425   0036A0  6E09               	movwf	(i2I2C1_SetDataCompleteCallback@ptr+1)^0,c
 11426   0036A2  EC6B  F01C         	call	i2_I2C1_SetDataCompleteCallback	;wreg free
 11427   0036A6                     
 11428                           ;mcc_generated_files/examples/i2c1_master_example.c: 167:     return I2C1_CONTINUE;
 11429   0036A6  0E04               	movlw	4
 11430   0036A8  0012               	return		;funcret
 11431   0036AA                     __end_of_wr2RegCompleteHandler:
 11432                           	callstack 0
 11433                           
 11434 ;; *************** function i2_I2C1_SetDataCompleteCallback *****************
 11435 ;; Defined at:
 11436 ;;		line 274 in file "mcc_generated_files/i2c1_master.c"
 11437 ;; Parameters:    Size  Location     Type
 11438 ;;  cb              2    5[COMRAM] PTR FTN(PTR void ,)enum 
 11439 ;;		 -> Absolute function(1), rdBlkRegCompleteHandler(1), wr2RegCompleteHandler(1), wr1RegCompleteHandler(1), 
 11440 ;;		 -> rd2RegCompleteHandler(1), rd1RegCompleteHandler(1), 
 11441 ;;  ptr             2    7[COMRAM] PTR void 
 11442 ;;		 -> I2C1_ReadDataBlock@bufferBlock(4), I2C1_Write2ByteRegister@data(2), I2C1_Write1ByteRegister@data(1), I2C1_Read2B
      +yteRegister@returnValue(2), 
 11443 ;;		 -> NULL(0), I2C1_Read1ByteRegister@returnValue(1), 
 11444 ;; Auto vars:     Size  Location     Type
 11445 ;;		None
 11446 ;; Return value:  Size  Location     Type
 11447 ;;                  1    wreg      void 
 11448 ;; Registers used:
 11449 ;;		wreg, fsr2l, fsr2h, status,2, status,0, prodl, prodh, cstack
 11450 ;; Tracked objects:
 11451 ;;		On entry : 0/0
 11452 ;;		On exit  : 0/0
 11453 ;;		Unchanged: 0/0
 11454 ;; Data sizes:     COMRAM   BANK0   BANK1   BANK2   BANK3   BANK4   BANK5   BANK6   BANK7   BANK8   BANK9  BANK10  BANK1
      +1  BANK12  BANK13  BANK14
 11455 ;;      Params:         4       0       0       0       0       0       0       0       0       0       0       0       
      +0       0       0       0
 11456 ;;      Locals:         0       0       0       0       0       0       0       0       0       0       0       0       
      +0       0       0       0
 11457 ;;      Temps:          0       0       0       0       0       0       0       0       0       0       0       0       
      +0       0       0       0
 11458 ;;      Totals:         4       0       0       0       0       0       0       0       0       0       0       0       
      +0       0       0       0
 11459 ;;Total ram usage:        4 bytes
 11460 ;; Hardware stack levels used: 1
 11461 ;; Hardware stack levels required when called: 1
 11462 ;; This function calls:
 11463 ;;		i2_I2C1_SetCallback
 11464 ;; This function is called by:
 11465 ;;		_rd1RegCompleteHandler
 11466 ;;		_rd2RegCompleteHandler
 11467 ;;		_wr1RegCompleteHandler
 11468 ;;		_wr2RegCompleteHandler
 11469 ;;		_rdBlkRegCompleteHandler
 11470 ;; This function uses a non-reentrant model
 11471 ;;
 11472                           
 11473                           	psect	text101
 11474   0038D6                     __ptext101:
 11475                           	callstack 0
 11476   0038D6                     i2_I2C1_SetDataCompleteCallback:
 11477                           	callstack 15
 11478   0038D6                     
 11479                           ;mcc_generated_files/i2c1_master.c: 274: void I2C1_SetDataCompleteCallback(i2c1_callback
      +                          _t cb, void *ptr);mcc_generated_files/i2c1_master.c: 275: {;mcc_generated_files/i2c1_mas
      +                          ter.c: 276:     I2C1_SetCallback(I2C1_DATA_COMPLETE, cb, ptr);
 11480   0038D6  C006  F001         	movff	i2I2C1_SetDataCompleteCallback@cb,i2I2C1_SetCallback@cb
 11481   0038DA  C007  F002         	movff	i2I2C1_SetDataCompleteCallback@cb+1,i2I2C1_SetCallback@cb+1
 11482   0038DE  C008  F003         	movff	i2I2C1_SetDataCompleteCallback@ptr,i2I2C1_SetCallback@ptr
 11483   0038E2  C009  F004         	movff	i2I2C1_SetDataCompleteCallback@ptr+1,i2I2C1_SetCallback@ptr+1
 11484   0038E6  0E00               	movlw	0
 11485   0038E8  ECD7  F017         	call	i2_I2C1_SetCallback
 11486   0038EC  0012               	return		;funcret
 11487   0038EE                     __end_ofi2_I2C1_SetDataCompleteCallback:
 11488                           	callstack 0
 11489                           
 11490 ;; *************** function i2_I2C1_SetCallback *****************
 11491 ;; Defined at:
 11492 ;;		line 304 in file "mcc_generated_files/i2c1_master.c"
 11493 ;; Parameters:    Size  Location     Type
 11494 ;;  idx             1    wreg     enum E10047
 11495 ;;  cb              2    0[COMRAM] PTR FTN(PTR void ,)enum 
 11496 ;;		 -> Absolute function(1), rdBlkRegCompleteHandler(1), wr2RegCompleteHandler(1), wr1RegCompleteHandler(1), 
 11497 ;;		 -> rd2RegCompleteHandler(1), rd1RegCompleteHandler(1), 
 11498 ;;  ptr             2    2[COMRAM] PTR void 
 11499 ;;		 -> I2C1_ReadDataBlock@bufferBlock(4), I2C1_Write2ByteRegister@data(2), I2C1_Write1ByteRegister@data(1), I2C1_Read2B
      +yteRegister@returnValue(2), 
 11500 ;;		 -> NULL(0), I2C1_Read1ByteRegister@returnValue(1), 
 11501 ;; Auto vars:     Size  Location     Type
 11502 ;;  idx             1    4[COMRAM] enum E10047
 11503 ;; Return value:  Size  Location     Type
 11504 ;;                  1    wreg      void 
 11505 ;; Registers used:
 11506 ;;		wreg, fsr2l, fsr2h, status,2, status,0, prodl, prodh
 11507 ;; Tracked objects:
 11508 ;;		On entry : 0/0
 11509 ;;		On exit  : 0/0
 11510 ;;		Unchanged: 0/0
 11511 ;; Data sizes:     COMRAM   BANK0   BANK1   BANK2   BANK3   BANK4   BANK5   BANK6   BANK7   BANK8   BANK9  BANK10  BANK1
      +1  BANK12  BANK13  BANK14
 11512 ;;      Params:         4       0       0       0       0       0       0       0       0       0       0       0       
      +0       0       0       0
 11513 ;;      Locals:         1       0       0       0       0       0       0       0       0       0       0       0       
      +0       0       0       0
 11514 ;;      Temps:          0       0       0       0       0       0       0       0       0       0       0       0       
      +0       0       0       0
 11515 ;;      Totals:         5       0       0       0       0       0       0       0       0       0       0       0       
      +0       0       0       0
 11516 ;;Total ram usage:        5 bytes
 11517 ;; Hardware stack levels used: 1
 11518 ;; This function calls:
 11519 ;;		Nothing
 11520 ;; This function is called by:
 11521 ;;		i2_I2C1_SetDataCompleteCallback
 11522 ;; This function uses a non-reentrant model
 11523 ;;
 11524                           
 11525                           	psect	text102
 11526   002FAE                     __ptext102:
 11527                           	callstack 0
 11528   002FAE                     i2_I2C1_SetCallback:
 11529                           	callstack 15
 11530                           
 11531                           ;incstack = 0
 11532                           ;i2I2C1_SetCallback@idx stored from wreg
 11533   002FAE  6E05               	movwf	i2I2C1_SetCallback@idx^0,c
 11534   002FB0                     
 11535                           ;mcc_generated_files/i2c1_master.c: 304: static void I2C1_SetCallback(i2c1_callbackIndex
      +                          _t idx, i2c1_callback_t cb, void *ptr);mcc_generated_files/i2c1_master.c: 305: {;mcc_gen
      +                          erated_files/i2c1_master.c: 306:     if(cb)
 11536   002FB0  5001               	movf	i2I2C1_SetCallback@cb^0,w,c
 11537   002FB2  1002               	iorwf	(i2I2C1_SetCallback@cb+1)^0,w,c
 11538   002FB4  B4D8               	btfsc	status,2,c
 11539   002FB6  EFDF  F017         	goto	i2u193_41
 11540   002FBA  EFE1  F017         	goto	i2u193_40
 11541   002FBE                     i2u193_41:
 11542   002FBE  EFFB  F017         	goto	i2l3460
 11543   002FC2                     i2u193_40:
 11544   002FC2                     
 11545                           ;mcc_generated_files/i2c1_master.c: 307:     {;mcc_generated_files/i2c1_master.c: 308:  
      +                                 I2C1_Status.callbackTable[idx] = cb;
 11546   002FC2  5005               	movf	i2I2C1_SetCallback@idx^0,w,c
 11547   002FC4  0D02               	mullw	2
 11548   002FC6  0EBC               	movlw	low _I2C1_Status
 11549   002FC8  24F3               	addwf	243,w,c
 11550   002FCA  6ED9               	movwf	fsr2l,c
 11551   002FCC  0E00               	movlw	high _I2C1_Status
 11552   002FCE  20F4               	addwfc	prodh,w,c
 11553   002FD0  6EDA               	movwf	fsr2h,c
 11554   002FD2  C001  FFDE         	movff	i2I2C1_SetCallback@cb,postinc2
 11555   002FD6  C002  FFDD         	movff	i2I2C1_SetCallback@cb+1,postdec2
 11556                           
 11557                           ;mcc_generated_files/i2c1_master.c: 309:         I2C1_Status.callbackPayload[idx] = ptr;
 11558   002FDA  5005               	movf	i2I2C1_SetCallback@idx^0,w,c
 11559   002FDC  0D02               	mullw	2
 11560   002FDE  0EC8               	movlw	low (_I2C1_Status+12)
 11561   002FE0  24F3               	addwf	243,w,c
 11562   002FE2  6ED9               	movwf	fsr2l,c
 11563   002FE4  0E00               	movlw	high (_I2C1_Status+12)
 11564   002FE6  20F4               	addwfc	prodh,w,c
 11565   002FE8  6EDA               	movwf	fsr2h,c
 11566   002FEA  C003  FFDE         	movff	i2I2C1_SetCallback@ptr,postinc2
 11567   002FEE  C004  FFDD         	movff	i2I2C1_SetCallback@ptr+1,postdec2
 11568                           
 11569                           ;mcc_generated_files/i2c1_master.c: 310:     }
 11570   002FF2  EF13  F018         	goto	i2l403
 11571   002FF6                     i2l3460:
 11572                           
 11573                           ;mcc_generated_files/i2c1_master.c: 312:     {;mcc_generated_files/i2c1_master.c: 313:  
      +                                 I2C1_Status.callbackTable[idx] = I2C1_CallbackReturnStop;
 11574   002FF6  5005               	movf	i2I2C1_SetCallback@idx^0,w,c
 11575   002FF8  0D02               	mullw	2
 11576   002FFA  0EBC               	movlw	low _I2C1_Status
 11577   002FFC  24F3               	addwf	243,w,c
 11578   002FFE  6ED9               	movwf	fsr2l,c
 11579   003000  0E00               	movlw	high _I2C1_Status
 11580   003002  20F4               	addwfc	prodh,w,c
 11581   003004  6EDA               	movwf	fsr2h,c
 11582   003006  0E4E               	movlw	low _I2C1_CallbackReturnStop
 11583   003008  6EDE               	movwf	postinc2,c
 11584   00300A  0E3A               	movlw	high _I2C1_CallbackReturnStop
 11585   00300C  6EDD               	movwf	postdec2,c
 11586                           
 11587                           ;mcc_generated_files/i2c1_master.c: 314:         I2C1_Status.callbackPayload[idx] = ((vo
      +                          id*)0);
 11588   00300E  5005               	movf	i2I2C1_SetCallback@idx^0,w,c
 11589   003010  0D02               	mullw	2
 11590   003012  0EC8               	movlw	low (_I2C1_Status+12)
 11591   003014  24F3               	addwf	243,w,c
 11592   003016  6ED9               	movwf	fsr2l,c
 11593   003018  0E00               	movlw	high (_I2C1_Status+12)
 11594   00301A  20F4               	addwfc	prodh,w,c
 11595   00301C  6EDA               	movwf	fsr2h,c
 11596   00301E  0E00               	movlw	0
 11597   003020  6EDE               	movwf	postinc2,c
 11598   003022  0E00               	movlw	0
 11599   003024  6EDD               	movwf	postdec2,c
 11600   003026                     i2l403:
 11601   003026  0012               	return		;funcret
 11602   003028                     __end_ofi2_I2C1_SetCallback:
 11603                           	callstack 0
 11604                           
 11605 ;; *************** function i2_I2C1_SetBuffer *****************
 11606 ;; Defined at:
 11607 ;;		line 264 in file "mcc_generated_files/i2c1_master.c"
 11608 ;; Parameters:    Size  Location     Type
 11609 ;;  buffer          2    0[COMRAM] PTR void 
 11610 ;;		 -> I2C1_Read1ByteRegister@returnValue.data(3), I2C1_Read2ByteRegister@returnValue.data(3), I2C1_Write1ByteRegister@
      +data.data(3), I2C1_Write2ByteRegister@data.data(3), 
 11611 ;;		 -> I2C1_ReadDataBlock@reg(1), I2C1_ReadDataBlock@bufferBlock(4), bufferBlock.data(3), I2C1_Write2ByteRegister@reg(1
      +), 
 11612 ;;		 -> I2C1_Write2ByteRegister@data(2), I2C1_Write1ByteRegister@reg(1), I2C1_Write1ByteRegister@data(1), I2C1_Read2Byte
      +Register@reg(1), 
 11613 ;;		 -> I2C1_Read2ByteRegister@returnValue(2), NULL(0), I2C1_Read1ByteRegister@reg(1), I2C1_Read1ByteRegister@returnValu
      +e(1), 
 11614 ;;  bufferSize      2    2[COMRAM] unsigned int 
 11615 ;; Auto vars:     Size  Location     Type
 11616 ;;		None
 11617 ;; Return value:  Size  Location     Type
 11618 ;;                  1    wreg      void 
 11619 ;; Registers used:
 11620 ;;		wreg, status,2, status,0
 11621 ;; Tracked objects:
 11622 ;;		On entry : 0/0
 11623 ;;		On exit  : 0/0
 11624 ;;		Unchanged: 0/0
 11625 ;; Data sizes:     COMRAM   BANK0   BANK1   BANK2   BANK3   BANK4   BANK5   BANK6   BANK7   BANK8   BANK9  BANK10  BANK1
      +1  BANK12  BANK13  BANK14
 11626 ;;      Params:         4       0       0       0       0       0       0       0       0       0       0       0       
      +0       0       0       0
 11627 ;;      Locals:         0       0       0       0       0       0       0       0       0       0       0       0       
      +0       0       0       0
 11628 ;;      Temps:          0       0       0       0       0       0       0       0       0       0       0       0       
      +0       0       0       0
 11629 ;;      Totals:         4       0       0       0       0       0       0       0       0       0       0       0       
      +0       0       0       0
 11630 ;;Total ram usage:        4 bytes
 11631 ;; Hardware stack levels used: 1
 11632 ;; This function calls:
 11633 ;;		Nothing
 11634 ;; This function is called by:
 11635 ;;		_rd1RegCompleteHandler
 11636 ;;		_rd2RegCompleteHandler
 11637 ;;		_wr1RegCompleteHandler
 11638 ;;		_wr2RegCompleteHandler
 11639 ;;		_rdBlkRegCompleteHandler
 11640 ;; This function uses a non-reentrant model
 11641 ;;
 11642                           
 11643                           	psect	text103
 11644   00379A                     __ptext103:
 11645                           	callstack 0
 11646   00379A                     i2_I2C1_SetBuffer:
 11647                           	callstack 16
 11648   00379A                     
 11649                           ;mcc_generated_files/i2c1_master.c: 264: void I2C1_SetBuffer(void *buffer, size_t buffer
      +                          Size);mcc_generated_files/i2c1_master.c: 265: {;mcc_generated_files/i2c1_master.c: 266: 
      +                              if(I2C1_Status.bufferFree)
 11650   00379A  0100               	movlb	0	; () banked
 11651   00379C  A7DF               	btfss	(_I2C1_Status+35)& (0+255),3,b
 11652   00379E  EFD3  F01B         	goto	i2u226_41
 11653   0037A2  EFD5  F01B         	goto	i2u226_40
 11654   0037A6                     i2u226_41:
 11655   0037A6  EFDE  F01B         	goto	i2l380
 11656   0037AA                     i2u226_40:
 11657   0037AA                     
 11658                           ; BSR set to: 0
 11659                           ;mcc_generated_files/i2c1_master.c: 267:     {;mcc_generated_files/i2c1_master.c: 268:  
      +                                 I2C1_Status.data_ptr = buffer;
 11660   0037AA  C001  F0D9         	movff	i2I2C1_SetBuffer@buffer,_I2C1_Status+29
 11661   0037AE  C002  F0DA         	movff	i2I2C1_SetBuffer@buffer+1,_I2C1_Status+30
 11662   0037B2                     
 11663                           ; BSR set to: 0
 11664                           ;mcc_generated_files/i2c1_master.c: 269:         I2C1_Status.data_length = bufferSize;
 11665   0037B2  C003  F0DB         	movff	i2I2C1_SetBuffer@bufferSize,_I2C1_Status+31
 11666   0037B6  C004  F0DC         	movff	i2I2C1_SetBuffer@bufferSize+1,_I2C1_Status+32
 11667   0037BA                     
 11668                           ; BSR set to: 0
 11669                           ;mcc_generated_files/i2c1_master.c: 270:         I2C1_Status.bufferFree = 0;
 11670   0037BA  97DF               	bcf	(_I2C1_Status+35)& (0+255),3,b
 11671   0037BC                     i2l380:
 11672                           
 11673                           ; BSR set to: 0
 11674   0037BC  0012               	return		;funcret
 11675   0037BE                     __end_ofi2_I2C1_SetBuffer:
 11676                           	callstack 0
 11677                           
 11678 ;; *************** function _I2C1_MasterStop *****************
 11679 ;; Defined at:
 11680 ;;		line 594 in file "mcc_generated_files/i2c1_master.c"
 11681 ;; Parameters:    Size  Location     Type
 11682 ;;		None
 11683 ;; Auto vars:     Size  Location     Type
 11684 ;;		None
 11685 ;; Return value:  Size  Location     Type
 11686 ;;                  1    wreg      void 
 11687 ;; Registers used:
 11688 ;;		None
 11689 ;; Tracked objects:
 11690 ;;		On entry : 0/0
 11691 ;;		On exit  : 0/0
 11692 ;;		Unchanged: 0/0
 11693 ;; Data sizes:     COMRAM   BANK0   BANK1   BANK2   BANK3   BANK4   BANK5   BANK6   BANK7   BANK8   BANK9  BANK10  BANK1
      +1  BANK12  BANK13  BANK14
 11694 ;;      Params:         0       0       0       0       0       0       0       0       0       0       0       0       
      +0       0       0       0
 11695 ;;      Locals:         0       0       0       0       0       0       0       0       0       0       0       0       
      +0       0       0       0
 11696 ;;      Temps:          0       0       0       0       0       0       0       0       0       0       0       0       
      +0       0       0       0
 11697 ;;      Totals:         0       0       0       0       0       0       0       0       0       0       0       0       
      +0       0       0       0
 11698 ;;Total ram usage:        0 bytes
 11699 ;; Hardware stack levels used: 1
 11700 ;; This function calls:
 11701 ;;		Nothing
 11702 ;; This function is called by:
 11703 ;;		_I2C1_DO_SEND_STOP
 11704 ;; This function uses a non-reentrant model
 11705 ;;
 11706                           
 11707                           	psect	text104
 11708   003A52                     __ptext104:
 11709                           	callstack 0
 11710   003A52                     _I2C1_MasterStop:
 11711                           	callstack 16
 11712   003A52                     
 11713                           ;mcc_generated_files/i2c1_master.c: 596:     SSP1CON2bits.PEN = 1;
 11714   003A52  8497               	bsf	151,2,c	;volatile
 11715   003A54  0012               	return		;funcret
 11716   003A56                     __end_of_I2C1_MasterStop:
 11717                           	callstack 0
 11718                           
 11719 ;; *************** function _I2C1_MasterEnableRestart *****************
 11720 ;; Defined at:
 11721 ;;		line 574 in file "mcc_generated_files/i2c1_master.c"
 11722 ;; Parameters:    Size  Location     Type
 11723 ;;		None
 11724 ;; Auto vars:     Size  Location     Type
 11725 ;;		None
 11726 ;; Return value:  Size  Location     Type
 11727 ;;                  1    wreg      void 
 11728 ;; Registers used:
 11729 ;;		None
 11730 ;; Tracked objects:
 11731 ;;		On entry : 0/0
 11732 ;;		On exit  : 0/0
 11733 ;;		Unchanged: 0/0
 11734 ;; Data sizes:     COMRAM   BANK0   BANK1   BANK2   BANK3   BANK4   BANK5   BANK6   BANK7   BANK8   BANK9  BANK10  BANK1
      +1  BANK12  BANK13  BANK14
 11735 ;;      Params:         0       0       0       0       0       0       0       0       0       0       0       0       
      +0       0       0       0
 11736 ;;      Locals:         0       0       0       0       0       0       0       0       0       0       0       0       
      +0       0       0       0
 11737 ;;      Temps:          0       0       0       0       0       0       0       0       0       0       0       0       
      +0       0       0       0
 11738 ;;      Totals:         0       0       0       0       0       0       0       0       0       0       0       0       
      +0       0       0       0
 11739 ;;Total ram usage:        0 bytes
 11740 ;; Hardware stack levels used: 1
 11741 ;; This function calls:
 11742 ;;		Nothing
 11743 ;; This function is called by:
 11744 ;;		_I2C1_DO_SEND_RESTART_READ
 11745 ;;		_I2C1_DO_SEND_RESTART_WRITE
 11746 ;;		_I2C1_DO_SEND_RESTART
 11747 ;;		_I2C1_DO_RX_EMPTY
 11748 ;; This function uses a non-reentrant model
 11749 ;;
 11750                           
 11751                           	psect	text105
 11752   003A56                     __ptext105:
 11753                           	callstack 0
 11754   003A56                     _I2C1_MasterEnableRestart:
 11755                           	callstack 16
 11756   003A56                     
 11757                           ;mcc_generated_files/i2c1_master.c: 576:     SSP1CON2bits.RSEN = 1;
 11758   003A56  8297               	bsf	151,1,c	;volatile
 11759   003A58  0012               	return		;funcret
 11760   003A5A                     __end_of_I2C1_MasterEnableRestart:
 11761                           	callstack 0
 11762                           
 11763                           	psect	text106
 11764   000000                     __ptext106:
 11765                           	callstack 0
 11766   000000                     
 11767                           	psect	rparam
 11768   000000                     
 11769                           	psect	temp
 11770   000046                     btemp:
 11771                           	callstack 0
 11772   000046                     	ds	1
 11773   000000                     int$flags	set	btemp
 11774   000000                     wtemp8	set	btemp+1
 11775   000000                     ttemp5	set	btemp+1
 11776   000000                     ttemp6	set	btemp+4
 11777   000000                     ttemp7	set	btemp+8
 11778                           
 11779                           	psect	idloc
 11780                           
 11781                           ;Config register IDLOC0 @ 0x200000
 11782                           ;	unspecified, using default values
 11783   200000                     	org	2097152
 11784   200000  FFFF               	dw	65535
 11785                           
 11786                           ;Config register IDLOC1 @ 0x200002
 11787                           ;	unspecified, using default values
 11788   200002                     	org	2097154
 11789   200002  FFFF               	dw	65535
 11790                           
 11791                           ;Config register IDLOC2 @ 0x200004
 11792                           ;	unspecified, using default values
 11793   200004                     	org	2097156
 11794   200004  FFFF               	dw	65535
 11795                           
 11796                           ;Config register IDLOC3 @ 0x200006
 11797                           ;	unspecified, using default values
 11798   200006                     	org	2097158
 11799   200006  FFFF               	dw	65535
 11800                           
 11801                           ;Config register IDLOC4 @ 0x200008
 11802                           ;	unspecified, using default values
 11803   200008                     	org	2097160
 11804   200008  FFFF               	dw	65535
 11805                           
 11806                           ;Config register IDLOC5 @ 0x20000A
 11807                           ;	unspecified, using default values
 11808   20000A                     	org	2097162
 11809   20000A  FFFF               	dw	65535
 11810                           
 11811                           ;Config register IDLOC6 @ 0x20000C
 11812                           ;	unspecified, using default values
 11813   20000C                     	org	2097164
 11814   20000C  FFFF               	dw	65535
 11815                           
 11816                           ;Config register IDLOC7 @ 0x20000E
 11817                           ;	unspecified, using default values
 11818   20000E                     	org	2097166
 11819   20000E  FFFF               	dw	65535
 11820                           
 11821                           	psect	config
 11822                           
 11823                           ;Config register CONFIG1L @ 0x300000
 11824                           ;	External Oscillator mode Selection bits
 11825                           ;	FEXTOSC = OFF, Oscillator not enabled
 11826                           ;	Power-up default value for COSC bits
 11827                           ;	RSTOSC = HFINTOSC_1MHZ, HFINTOSC with HFFRQ = 4 MHz and CDIV = 4:1
 11828   300000                     	org	3145728
 11829   300000  EC                 	db	236
 11830                           
 11831                           ;Config register CONFIG1H @ 0x300001
 11832                           ;	Clock Out Enable bit
 11833                           ;	CLKOUTEN = OFF, CLKOUT function is disabled
 11834                           ;	Clock Switch Enable bit
 11835                           ;	CSWEN = ON, Writing to NOSC and NDIV is allowed
 11836                           ;	Fail-Safe Clock Monitor Enable bit
 11837                           ;	FCMEN = ON, Fail-Safe Clock Monitor enabled
 11838   300001                     	org	3145729
 11839   300001  FF                 	db	255
 11840                           
 11841                           ;Config register CONFIG2L @ 0x300002
 11842                           ;	Master Clear Enable bit
 11843                           ;	MCLRE = EXTMCLR, If LVP = 0, MCLR pin is MCLR; If LVP = 1, RE3 pin function is MCLR
 11844                           ;	Power-up Timer Enable bit
 11845                           ;	PWRTE = OFF, Power up timer disabled
 11846                           ;	Low-power BOR enable bit
 11847                           ;	LPBOREN = OFF, ULPBOR disabled
 11848                           ;	Brown-out Reset Enable bits
 11849                           ;	BOREN = SBORDIS, Brown-out Reset enabled , SBOREN bit is ignored
 11850   300002                     	org	3145730
 11851   300002  FF                 	db	255
 11852                           
 11853                           ;Config register CONFIG2H @ 0x300003
 11854                           ;	Brown Out Reset Voltage selection bits
 11855                           ;	BORV = VBOR_190, Brown-out Reset Voltage (VBOR) set to 1.90V
 11856                           ;	ZCD Disable bit
 11857                           ;	ZCD = OFF, ZCD disabled. ZCD can be enabled by setting the ZCDSEN bit of ZCDCON
 11858                           ;	PPSLOCK bit One-Way Set Enable bit
 11859                           ;	PPS1WAY = ON, PPSLOCK bit can be cleared and set only once; PPS registers remain locke
      +                          d after one clear/set cycle
 11860                           ;	Stack Full/Underflow Reset Enable bit
 11861                           ;	STVREN = ON, Stack full/underflow will cause Reset
 11862                           ;	Debugger Enable bit
 11863                           ;	DEBUG = OFF, Background debugger disabled
 11864                           ;	Extended Instruction Set Enable bit
 11865                           ;	XINST = OFF, Extended Instruction Set and Indexed Addressing Mode disabled
 11866   300003                     	org	3145731
 11867   300003  FF                 	db	255
 11868                           
 11869                           ;Config register CONFIG3L @ 0x300004
 11870                           ;	WDT Period Select bits
 11871                           ;	WDTCPS = WDTCPS_31, Divider ratio 1:65536; software control of WDTPS
 11872                           ;	WDT operating mode
 11873                           ;	WDTE = OFF, WDT Disabled
 11874   300004                     	org	3145732
 11875   300004  9F                 	db	159
 11876                           
 11877                           ;Config register CONFIG3H @ 0x300005
 11878                           ;	WDT Window Select bits
 11879                           ;	WDTCWS = WDTCWS_7, window always open (100%); software control; keyed access not requi
      +                          red
 11880                           ;	WDT input clock selector
 11881                           ;	WDTCCS = SC, Software Control
 11882   300005                     	org	3145733
 11883   300005  FF                 	db	255
 11884                           
 11885                           ;Config register CONFIG4L @ 0x300006
 11886                           ;	Write Protection Block 0
 11887                           ;	WRT0 = OFF, Block 0 (000800-003FFFh) not write-protected
 11888                           ;	Write Protection Block 1
 11889                           ;	WRT1 = OFF, Block 1 (004000-007FFFh) not write-protected
 11890                           ;	Write Protection Block 2
 11891                           ;	WRT2 = OFF, Block 2 (008000-00BFFFh) not write-protected
 11892                           ;	Write Protection Block 3
 11893                           ;	WRT3 = OFF, Block 3 (00C000-00FFFFh) not write-protected
 11894   300006                     	org	3145734
 11895   300006  FF                 	db	255
 11896                           
 11897                           ;Config register CONFIG4H @ 0x300007
 11898                           ;	Configuration Register Write Protection bit
 11899                           ;	WRTC = OFF, Configuration registers (300000-30000Bh) not write-protected
 11900                           ;	Boot Block Write Protection bit
 11901                           ;	WRTB = OFF, Boot Block (000000-0007FFh) not write-protected
 11902                           ;	Data EEPROM Write Protection bit
 11903                           ;	WRTD = OFF, Data EEPROM not write-protected
 11904                           ;	Scanner Enable bit
 11905                           ;	SCANE = ON, Scanner module is available for use, SCANMD bit can control the module
 11906                           ;	Low Voltage Programming Enable bit
 11907                           ;	LVP = ON, Low voltage programming enabled. MCLR/VPP pin function is MCLR. MCLRE config
      +                          uration bit is ignored
 11908   300007                     	org	3145735
 11909   300007  FF                 	db	255
 11910                           
 11911                           ;Config register CONFIG5L @ 0x300008
 11912                           ;	UserNVM Program Memory Code Protection bit
 11913                           ;	CP = OFF, UserNVM code protection disabled
 11914                           ;	DataNVM Memory Code Protection bit
 11915                           ;	CPD = OFF, DataNVM code protection disabled
 11916   300008                     	org	3145736
 11917   300008  FF                 	db	255
 11918                           
 11919                           ;Config register CONFIG5H @ 0x300009
 11920                           ;	unspecified, using default values
 11921   300009                     	org	3145737
 11922   300009  FF                 	db	255
 11923                           
 11924                           ;Config register CONFIG6L @ 0x30000A
 11925                           ;	Table Read Protection Block 0
 11926                           ;	EBTR0 = OFF, Block 0 (000800-003FFFh) not protected from table reads executed in other
      +                           blocks
 11927                           ;	Table Read Protection Block 1
 11928                           ;	EBTR1 = OFF, Block 1 (004000-007FFFh) not protected from table reads executed in other
      +                           blocks
 11929                           ;	Table Read Protection Block 2
 11930                           ;	EBTR2 = OFF, Block 2 (008000-00BFFFh) not protected from table reads executed in other
      +                           blocks
 11931                           ;	Table Read Protection Block 3
 11932                           ;	EBTR3 = OFF, Block 3 (00C000-00FFFFh) not protected from table reads executed in other
      +                           blocks
 11933   30000A                     	org	3145738
 11934   30000A  FF                 	db	255
 11935                           
 11936                           ;Config register CONFIG6H @ 0x30000B
 11937                           ;	Boot Block Table Read Protection bit
 11938                           ;	EBTRB = OFF, Boot Block (000000-0007FFh) not protected from table reads executed in ot
      +                          her blocks
 11939   30000B                     	org	3145739
 11940   30000B  FF                 	db	255
 11941                           tosu	equ	0xFFF
 11942                           tosh	equ	0xFFE
 11943                           tosl	equ	0xFFD
 11944                           stkptr	equ	0xFFC
 11945                           pclatu	equ	0xFFB
 11946                           pclath	equ	0xFFA
 11947                           pcl	equ	0xFF9
 11948                           tblptru	equ	0xFF8
 11949                           tblptrh	equ	0xFF7
 11950                           tblptrl	equ	0xFF6
 11951                           tablat	equ	0xFF5
 11952                           prodh	equ	0xFF4
 11953                           prodl	equ	0xFF3
 11954                           indf0	equ	0xFEF
 11955                           postinc0	equ	0xFEE
 11956                           postdec0	equ	0xFED
 11957                           preinc0	equ	0xFEC
 11958                           plusw0	equ	0xFEB
 11959                           fsr0h	equ	0xFEA
 11960                           fsr0l	equ	0xFE9
 11961                           wreg	equ	0xFE8
 11962                           indf1	equ	0xFE7
 11963                           postinc1	equ	0xFE6
 11964                           postdec1	equ	0xFE5
 11965                           preinc1	equ	0xFE4
 11966                           plusw1	equ	0xFE3
 11967                           fsr1h	equ	0xFE2
 11968                           fsr1l	equ	0xFE1
 11969                           bsr	equ	0xFE0
 11970                           indf2	equ	0xFDF
 11971                           postinc2	equ	0xFDE
 11972                           postdec2	equ	0xFDD
 11973                           preinc2	equ	0xFDC
 11974                           plusw2	equ	0xFDB
 11975                           fsr2h	equ	0xFDA
 11976                           fsr2l	equ	0xFD9
 11977                           status	equ	0xFD8

Data Sizes:
    Strings     99
    Constant    32
    Data        0
    BSS         84
    Persistent  6
    Stack       0

Auto Spaces:
    Space          Size  Autos    Used
    COMRAM           94     47      69
    BANK0           160     92     160
    BANK1           256     14      14
    BANK2           256      0       0
    BANK3           256      0       0
    BANK4           256      0       0
    BANK5           256      0       0
    BANK6           256      0       0
    BANK7           256      0       0
    BANK8           256      0       0
    BANK9           256      0       0
    BANK10          256      0       0
    BANK11          256      0       0
    BANK12          256      0       0
    BANK13          256      0       0
    BANK14          136      0       0

Pointer List with Targets:

    I2C1_Read1ByteRegister@returnValue.data	PTR unsigned char  size(2) Largest target is 0

    I2C1_Read2ByteRegister@returnValue.data	PTR unsigned char  size(2) Largest target is 0

    I2C1_Write1ByteRegister@data.data	PTR unsigned char  size(2) Largest target is 0

    I2C1_Write2ByteRegister@data.data	PTR unsigned char  size(2) Largest target is 0

    I2C1_DO_TX$2884$0	PTR void  size(2) Largest target is 5
		 -> I2C1_ReadDataBlock@bufferBlock(COMRAM[4]), I2C1_Write2ByteRegister@data(COMRAM[2]), I2C1_Write1ByteRegister@data(COMRAM[1]), I2C1_Read2ByteRegister@returnValue(COMRAM[2]), 
		 -> NULL(NULL[0]), I2C1_Read1ByteRegister@returnValue(COMRAM[1]), 

    I2C1_DO_RX$2890$0	PTR void  size(2) Largest target is 5
		 -> I2C1_ReadDataBlock@bufferBlock(COMRAM[4]), I2C1_Write2ByteRegister@data(COMRAM[2]), I2C1_Write1ByteRegister@data(COMRAM[1]), I2C1_Read2ByteRegister@returnValue(COMRAM[2]), 
		 -> NULL(NULL[0]), I2C1_Read1ByteRegister@returnValue(COMRAM[1]), 

    I2C1_DO_TX_EMPTY$2896$0	PTR void  size(2) Largest target is 5
		 -> I2C1_ReadDataBlock@bufferBlock(COMRAM[4]), I2C1_Write2ByteRegister@data(COMRAM[2]), I2C1_Write1ByteRegister@data(COMRAM[1]), I2C1_Read2ByteRegister@returnValue(COMRAM[2]), 
		 -> NULL(NULL[0]), I2C1_Read1ByteRegister@returnValue(COMRAM[1]), 

    I2C1_DO_RX_EMPTY$2902$0	PTR void  size(2) Largest target is 5
		 -> I2C1_ReadDataBlock@bufferBlock(COMRAM[4]), I2C1_Write2ByteRegister@data(COMRAM[2]), I2C1_Write1ByteRegister@data(COMRAM[1]), I2C1_Read2ByteRegister@returnValue(COMRAM[2]), 
		 -> NULL(NULL[0]), I2C1_Read1ByteRegister@returnValue(COMRAM[1]), 

    I2C1_DO_TX_EMPTY$2901	PTR void  size(2) Largest target is 5
		 -> I2C1_ReadDataBlock@bufferBlock(COMRAM[4]), I2C1_Write2ByteRegister@data(COMRAM[2]), I2C1_Write1ByteRegister@data(COMRAM[1]), I2C1_Read2ByteRegister@returnValue(COMRAM[2]), 
		 -> NULL(NULL[0]), I2C1_Read1ByteRegister@returnValue(COMRAM[1]), 

    I2C1_DO_TX_EMPTY$2896	PTR FTN(PTR void ,)enum E360 size(2) Largest target is 1
		 -> I2C1_CallbackReturnReset(), I2C1_CallbackReturnStop(), Absolute function(), rdBlkRegCompleteHandler(), 
		 -> wr2RegCompleteHandler(), wr1RegCompleteHandler(), rd2RegCompleteHandler(), rd1RegCompleteHandler(), 

    I2C1_DO_RX$2895	PTR void  size(2) Largest target is 5
		 -> I2C1_ReadDataBlock@bufferBlock(COMRAM[4]), I2C1_Write2ByteRegister@data(COMRAM[2]), I2C1_Write1ByteRegister@data(COMRAM[1]), I2C1_Read2ByteRegister@returnValue(COMRAM[2]), 
		 -> NULL(NULL[0]), I2C1_Read1ByteRegister@returnValue(COMRAM[1]), 

    I2C1_DO_RX$2890	PTR FTN(PTR void ,)enum E360 size(2) Largest target is 1
		 -> I2C1_CallbackReturnReset(), I2C1_CallbackReturnStop(), Absolute function(), rdBlkRegCompleteHandler(), 
		 -> wr2RegCompleteHandler(), wr1RegCompleteHandler(), rd2RegCompleteHandler(), rd1RegCompleteHandler(), 

    I2C1_DO_TX$2889	PTR void  size(2) Largest target is 5
		 -> I2C1_ReadDataBlock@bufferBlock(COMRAM[4]), I2C1_Write2ByteRegister@data(COMRAM[2]), I2C1_Write1ByteRegister@data(COMRAM[1]), I2C1_Read2ByteRegister@returnValue(COMRAM[2]), 
		 -> NULL(NULL[0]), I2C1_Read1ByteRegister@returnValue(COMRAM[1]), 

    I2C1_DO_TX$2884	PTR FTN(PTR void ,)enum E360 size(2) Largest target is 1
		 -> I2C1_CallbackReturnReset(), I2C1_CallbackReturnStop(), Absolute function(), rdBlkRegCompleteHandler(), 
		 -> wr2RegCompleteHandler(), wr1RegCompleteHandler(), rd2RegCompleteHandler(), rd1RegCompleteHandler(), 

    I2C1_MasterFsm$2883	const PTR FTN()enum E10029 size(2) Largest target is 1
		 -> I2C1_DO_ADDRESS_NACK(), I2C1_DO_RESET(), I2C1_DO_RX_NACK_RESTART(), I2C1_DO_RX_NACK_STOP(), 
		 -> I2C1_DO_RX_ACK(), I2C1_DO_SEND_STOP(), I2C1_DO_SEND_RESTART(), I2C1_DO_SEND_RESTART_WRITE(), 
		 -> I2C1_DO_SEND_RESTART_READ(), I2C1_DO_TX_EMPTY(), I2C1_DO_RCEN(), I2C1_DO_RX(), 
		 -> I2C1_DO_TX(), I2C1_DO_SEND_ADR_WRITE(), I2C1_DO_SEND_ADR_READ(), I2C1_DO_IDLE(), 

    I2C1_CallbackReturnStop@funPtr	PTR void  size(2) Largest target is 5
		 -> I2C1_ReadDataBlock@bufferBlock(COMRAM[4]), I2C1_Write2ByteRegister@data(COMRAM[2]), I2C1_Write1ByteRegister@data(COMRAM[1]), I2C1_Read2ByteRegister@returnValue(COMRAM[2]), 
		 -> NULL(NULL[0]), I2C1_Read1ByteRegister@returnValue(COMRAM[1]), 

    I2C1_CallbackReturnReset@funPtr	PTR void  size(2) Largest target is 5
		 -> I2C1_ReadDataBlock@bufferBlock(COMRAM[4]), I2C1_Write2ByteRegister@data(COMRAM[2]), I2C1_Write1ByteRegister@data(COMRAM[1]), I2C1_Read2ByteRegister@returnValue(COMRAM[2]), 
		 -> NULL(NULL[0]), I2C1_Read1ByteRegister@returnValue(COMRAM[1]), 

    cb$0	PTR void  size(2) Largest target is 5
		 -> I2C1_ReadDataBlock@bufferBlock(COMRAM[4]), I2C1_Write2ByteRegister@data(COMRAM[2]), I2C1_Write1ByteRegister@data(COMRAM[1]), I2C1_Read2ByteRegister@returnValue(COMRAM[2]), 
		 -> NULL(NULL[0]), I2C1_Read1ByteRegister@returnValue(COMRAM[1]), 

    Absolute function$0	PTR void  size(2) Largest target is 5
		 -> I2C1_ReadDataBlock@bufferBlock(COMRAM[4]), I2C1_Write2ByteRegister@data(COMRAM[2]), I2C1_Write1ByteRegister@data(COMRAM[1]), I2C1_Read2ByteRegister@returnValue(COMRAM[2]), 
		 -> NULL(NULL[0]), I2C1_Read1ByteRegister@returnValue(COMRAM[1]), 

    cb$0	PTR void  size(2) Largest target is 5
		 -> I2C1_ReadDataBlock@bufferBlock(COMRAM[4]), I2C1_Write2ByteRegister@data(COMRAM[2]), I2C1_Write1ByteRegister@data(COMRAM[1]), I2C1_Read2ByteRegister@returnValue(COMRAM[2]), 
		 -> NULL(NULL[0]), I2C1_Read1ByteRegister@returnValue(COMRAM[1]), 

    S515$0$0	PTR void  size(2) Largest target is 5
		 -> I2C1_ReadDataBlock@bufferBlock(COMRAM[4]), I2C1_Write2ByteRegister@data(COMRAM[2]), I2C1_Write1ByteRegister@data(COMRAM[1]), I2C1_Read2ByteRegister@returnValue(COMRAM[2]), 
		 -> NULL(NULL[0]), I2C1_Read1ByteRegister@returnValue(COMRAM[1]), 

    fputs@s	PTR const unsigned char  size(2) Largest target is 32
		 -> dbuf(BANK0[32]), 

    fputs@fp	PTR struct _IO_FILE size(2) Largest target is 0
		 -> NULL(NULL[0]), 

    S2396$source	PTR const unsigned char  size(2) Largest target is 0

    fputc@fp...source	PTR const unsigned char  size(2) Largest target is 0

    S2396$buffer	PTR unsigned char  size(2) Largest target is 0

    fputc@fp...buffer	PTR unsigned char  size(2) Largest target is 0

    fputc@fp	PTR struct _IO_FILE size(2) Largest target is 0
		 -> NULL(NULL[0]), 

    atoi@s	PTR const unsigned char  size(2) Largest target is 99
		 -> STR_1(CODE[99]), 

    vfprintf@ap	PTR PTR void  size(2) Largest target is 2
		 -> printf@ap(BANK0[2]), 

    vfprintf@fp	PTR struct _IO_FILE size(2) Largest target is 0
		 -> NULL(NULL[0]), 

    vfprintf@fmt	PTR const unsigned char  size(2) Largest target is 99
		 -> STR_1(CODE[99]), 

    vfprintf@cfmt	PTR unsigned char  size(2) Largest target is 99
		 -> STR_1(CODE[99]), 

    vfpfcnvrt@fp	PTR struct _IO_FILE size(2) Largest target is 0
		 -> NULL(NULL[0]), 

    vfpfcnvrt@cp	PTR unsigned char  size(2) Largest target is 99
		 -> STR_1(CODE[99]), 

    vfpfcnvrt@ap	PTR PTR void  size(2) Largest target is 2
		 -> printf@ap(BANK0[2]), 

    vfpfcnvrt@fmt	PTR PTR unsigned char  size(2) Largest target is 2
		 -> vfprintf@cfmt(BANK0[2]), 

    S2435$vp	PTR void  size(2) Largest target is 0

    convarg.vp	PTR void  size(2) Largest target is 0

    utoa@fp	PTR struct _IO_FILE size(2) Largest target is 0
		 -> NULL(NULL[0]), 

    dtoa@fp	PTR struct _IO_FILE size(2) Largest target is 0
		 -> NULL(NULL[0]), 

    pad@fp	PTR struct _IO_FILE size(2) Largest target is 0
		 -> NULL(NULL[0]), 

    pad@buf	PTR unsigned char  size(2) Largest target is 32
		 -> dbuf(BANK0[32]), 

    printf@fmt	PTR const unsigned char  size(2) Largest target is 99
		 -> STR_1(CODE[99]), 

    printf@ap	PTR void [1] size(2) Largest target is 2
		 -> ?_printf(BANK0[2]), 

    EUSART1_SetErrorHandler@interruptHandler	PTR FTN()void  size(2) Largest target is 1
		 -> EUSART1_DefaultErrorHandler(), 

    EUSART1_ErrorHandler	PTR FTN()void  size(2) Largest target is 1
		 -> EUSART1_DefaultErrorHandler(), Absolute function(), 

    EUSART1_SetOverrunErrorHandler@interruptHandler	PTR FTN()void  size(2) Largest target is 1
		 -> EUSART1_DefaultOverrunErrorHandler(), 

    EUSART1_OverrunErrorHandler	PTR FTN()void  size(2) Largest target is 1
		 -> EUSART1_DefaultOverrunErrorHandler(), Absolute function(), 

    EUSART1_SetFramingErrorHandler@interruptHandler	PTR FTN()void  size(2) Largest target is 1
		 -> EUSART1_DefaultFramingErrorHandler(), 

    EUSART1_FramingErrorHandler	PTR FTN()void  size(2) Largest target is 1
		 -> EUSART1_DefaultFramingErrorHandler(), Absolute function(), 

    I2C1_SetCallback@ptr	PTR void  size(2) Largest target is 5
		 -> I2C1_ReadDataBlock@bufferBlock(COMRAM[4]), I2C1_Write2ByteRegister@data(COMRAM[2]), I2C1_Write1ByteRegister@data(COMRAM[1]), I2C1_Read2ByteRegister@returnValue(COMRAM[2]), 
		 -> NULL(NULL[0]), I2C1_Read1ByteRegister@returnValue(COMRAM[1]), 

    I2C1_SetCallback@cb	PTR FTN(PTR void ,)enum E360 size(2) Largest target is 1
		 -> Absolute function(), rdBlkRegCompleteHandler(), wr2RegCompleteHandler(), wr1RegCompleteHandler(), 
		 -> rd2RegCompleteHandler(), rd1RegCompleteHandler(), 

    I2C1_SetInterruptHandler@InterruptHandler	PTR FTN()void  size(2) Largest target is 1
		 -> I2C1_MasterIsr(), 

    MSSP1_InterruptHandler	PTR FTN()void  size(2) Largest target is 1
		 -> I2C1_MasterIsr(), Absolute function(), 

    I2C1_SetAddressNackCallback@ptr	PTR void  size(2) Largest target is 0
		 -> NULL(NULL[0]), 

    I2C1_SetAddressNackCallback@cb	PTR FTN(PTR void ,)enum E360 size(2) Largest target is 1
		 -> Absolute function(), 

    I2C1_SetDataCompleteCallback@ptr	PTR void  size(2) Largest target is 5
		 -> I2C1_ReadDataBlock@bufferBlock(COMRAM[4]), I2C1_Write2ByteRegister@data(COMRAM[2]), I2C1_Write1ByteRegister@data(COMRAM[1]), I2C1_Read2ByteRegister@returnValue(COMRAM[2]), 
		 -> NULL(NULL[0]), I2C1_Read1ByteRegister@returnValue(COMRAM[1]), 

    I2C1_SetDataCompleteCallback@cb	PTR FTN(PTR void ,)enum E360 size(2) Largest target is 1
		 -> Absolute function(), rdBlkRegCompleteHandler(), wr2RegCompleteHandler(), wr1RegCompleteHandler(), 
		 -> rd2RegCompleteHandler(), rd1RegCompleteHandler(), 

    I2C1_SetBuffer@buffer	PTR void  size(2) Largest target is 5
		 -> I2C1_ReadDataBlock@reg(COMRAM[1]), I2C1_ReadDataBlock@bufferBlock(COMRAM[4]), I2C1_Write2ByteRegister@reg(COMRAM[1]), I2C1_Write2ByteRegister@data(COMRAM[2]), 
		 -> I2C1_Write1ByteRegister@reg(COMRAM[1]), I2C1_Write1ByteRegister@data(COMRAM[1]), I2C1_Read2ByteRegister@reg(COMRAM[1]), I2C1_Read2ByteRegister@returnValue(COMRAM[2]), 
		 -> NULL(NULL[0]), I2C1_Read1ByteRegister@reg(COMRAM[1]), I2C1_Read1ByteRegister@returnValue(COMRAM[1]), 

    S515$data_ptr	PTR unsigned char  size(2) Largest target is 5
		 -> I2C1_ReadDataBlock@reg(COMRAM[1]), I2C1_ReadDataBlock@bufferBlock(COMRAM[4]), I2C1_Write2ByteRegister@reg(COMRAM[1]), I2C1_Write2ByteRegister@data(COMRAM[2]), 
		 -> I2C1_Write1ByteRegister@reg(COMRAM[1]), I2C1_Write1ByteRegister@data(COMRAM[1]), I2C1_Read2ByteRegister@reg(COMRAM[1]), I2C1_Read2ByteRegister@returnValue(COMRAM[2]), 
		 -> NULL(NULL[0]), I2C1_Read1ByteRegister@reg(COMRAM[1]), I2C1_Read1ByteRegister@returnValue(COMRAM[1]), 

    I2C1_Status.data_ptr	PTR unsigned char  size(2) Largest target is 5
		 -> I2C1_Read1ByteRegister@returnValue.data(COMRAM[3]), I2C1_Read2ByteRegister@returnValue.data(COMRAM[3]), I2C1_Write1ByteRegister@data.data(COMRAM[3]), I2C1_Write2ByteRegister@data.data(COMRAM[3]), 
		 -> I2C1_ReadDataBlock@reg(COMRAM[1]), I2C1_ReadDataBlock@bufferBlock(COMRAM[4]), bufferBlock.data(COMRAM[3]), I2C1_Write2ByteRegister@reg(COMRAM[1]), 
		 -> I2C1_Write2ByteRegister@data(COMRAM[2]), I2C1_Write1ByteRegister@reg(COMRAM[1]), I2C1_Write1ByteRegister@data(COMRAM[1]), I2C1_Read2ByteRegister@reg(COMRAM[1]), 
		 -> I2C1_Read2ByteRegister@returnValue(COMRAM[2]), NULL(NULL[0]), I2C1_Read1ByteRegister@reg(COMRAM[1]), I2C1_Read1ByteRegister@returnValue(COMRAM[1]), 

    S515$callbackPayload	PTR void [6] size(2) Largest target is 5
		 -> I2C1_ReadDataBlock@bufferBlock(COMRAM[4]), I2C1_Write2ByteRegister@data(COMRAM[2]), I2C1_Write1ByteRegister@data(COMRAM[1]), I2C1_Read2ByteRegister@returnValue(COMRAM[2]), 
		 -> NULL(NULL[0]), I2C1_Read1ByteRegister@returnValue(COMRAM[1]), 

    I2C1_Status.callbackPayload	PTR void [6] size(2) Largest target is 5
		 -> I2C1_ReadDataBlock@bufferBlock(COMRAM[4]), I2C1_Write2ByteRegister@data(COMRAM[2]), I2C1_Write1ByteRegister@data(COMRAM[1]), I2C1_Read2ByteRegister@returnValue(COMRAM[2]), 
		 -> NULL(NULL[0]), I2C1_Read1ByteRegister@returnValue(COMRAM[1]), 

    S515$callbackTable	PTR FTN(PTR void ,)enum E360[6] size(2) Largest target is 1
		 -> I2C1_CallbackReturnReset(), I2C1_CallbackReturnStop(), Absolute function(), rdBlkRegCompleteHandler(), 
		 -> wr2RegCompleteHandler(), wr1RegCompleteHandler(), rd2RegCompleteHandler(), rd1RegCompleteHandler(), 

    I2C1_Status.callbackTable	PTR FTN(PTR void ,)enum E360[6] size(2) Largest target is 1
		 -> I2C1_CallbackReturnReset(), I2C1_CallbackReturnStop(), Absolute function(), rdBlkRegCompleteHandler(), 
		 -> wr2RegCompleteHandler(), wr1RegCompleteHandler(), rd2RegCompleteHandler(), rd1RegCompleteHandler(), 

    i2c1_fsmStateTable	const PTR FTN()enum E10029[16] size(2) Largest target is 1
		 -> I2C1_DO_ADDRESS_NACK(), I2C1_DO_RESET(), I2C1_DO_RX_NACK_RESTART(), I2C1_DO_RX_NACK_STOP(), 
		 -> I2C1_DO_RX_ACK(), I2C1_DO_SEND_STOP(), I2C1_DO_SEND_RESTART(), I2C1_DO_SEND_RESTART_WRITE(), 
		 -> I2C1_DO_SEND_RESTART_READ(), I2C1_DO_TX_EMPTY(), I2C1_DO_RCEN(), I2C1_DO_RX(), 
		 -> I2C1_DO_TX(), I2C1_DO_SEND_ADR_WRITE(), I2C1_DO_SEND_ADR_READ(), I2C1_DO_IDLE(), 

    rdBlkRegCompleteHandler@ptr.data	PTR unsigned char  size(2) Largest target is 0

    rdBlkRegCompleteHandler@ptr	PTR void  size(2) Largest target is 5
		 -> I2C1_ReadDataBlock@bufferBlock(COMRAM[4]), I2C1_Write2ByteRegister@data(COMRAM[2]), I2C1_Write1ByteRegister@data(COMRAM[1]), I2C1_Read2ByteRegister@returnValue(COMRAM[2]), 
		 -> NULL(NULL[0]), I2C1_Read1ByteRegister@returnValue(COMRAM[1]), 

    wr2RegCompleteHandler@ptr	PTR void  size(2) Largest target is 5
		 -> I2C1_ReadDataBlock@bufferBlock(COMRAM[4]), I2C1_Write2ByteRegister@data(COMRAM[2]), I2C1_Write1ByteRegister@data(COMRAM[1]), I2C1_Read2ByteRegister@returnValue(COMRAM[2]), 
		 -> NULL(NULL[0]), I2C1_Read1ByteRegister@returnValue(COMRAM[1]), 

    wr1RegCompleteHandler@ptr	PTR void  size(2) Largest target is 5
		 -> I2C1_ReadDataBlock@bufferBlock(COMRAM[4]), I2C1_Write2ByteRegister@data(COMRAM[2]), I2C1_Write1ByteRegister@data(COMRAM[1]), I2C1_Read2ByteRegister@returnValue(COMRAM[2]), 
		 -> NULL(NULL[0]), I2C1_Read1ByteRegister@returnValue(COMRAM[1]), 

    rd2RegCompleteHandler@ptr	PTR void  size(2) Largest target is 5
		 -> I2C1_ReadDataBlock@bufferBlock(COMRAM[4]), I2C1_Write2ByteRegister@data(COMRAM[2]), I2C1_Write1ByteRegister@data(COMRAM[1]), I2C1_Read2ByteRegister@returnValue(COMRAM[2]), 
		 -> NULL(NULL[0]), I2C1_Read1ByteRegister@returnValue(COMRAM[1]), 

    rd1RegCompleteHandler@ptr	PTR void  size(2) Largest target is 5
		 -> I2C1_ReadDataBlock@bufferBlock(COMRAM[4]), I2C1_Write2ByteRegister@data(COMRAM[2]), I2C1_Write1ByteRegister@data(COMRAM[1]), I2C1_Read2ByteRegister@returnValue(COMRAM[2]), 
		 -> NULL(NULL[0]), I2C1_Read1ByteRegister@returnValue(COMRAM[1]), 

    S97$data	PTR unsigned char  size(2) Largest target is 0

    bufferBlock.data	PTR unsigned char  size(2) Largest target is 0


Critical Paths under _main in COMRAM

    _windSpeedCalc->___xxtofl
    _hallRecord->_hallRead
    ___xxtofl->___lwdiv
    ___fldiv->___flmul
    _tempRead->_I2C1_Read1ByteRegister
    _system_init->_hallRead
    _hallRead->_I2C1_Read1ByteRegister
    _TMR2_ReadTimer->_TMR2_Counter8BitGet
    _utoa->_pad
    _dtoa->_abs
    _pad->_fputs
    _fputs->_fputc
    _fputc->_putch
    _putch->_EUSART1_Write
    _abs->___aomod
    _atoi->___wmul
    _motorStow->_motorController
    _motorFaultRead->_I2C1_Read1ByteRegister
    _I2C1_Read1ByteRegister->_I2C1_SetAddressNackCallback
    _I2C1_Read1ByteRegister->_I2C1_SetDataCompleteCallback
    _motorDeploy->_motorController
    _motorController->_I2C1_Write1ByteRegister
    _I2C1_Write1ByteRegister->_I2C1_SetAddressNackCallback
    _I2C1_Write1ByteRegister->_I2C1_SetDataCompleteCallback
    _I2C1_SetDataCompleteCallback->_I2C1_SetCallback
    _I2C1_SetAddressNackCallback->_I2C1_SetCallback
    _I2C1_Open->_I2C1_SetInterruptHandler
    _I2C1_MasterWrite->_I2C1_MasterOperation
    _EUSART1_Initialize->_EUSART1_SetErrorHandler
    _EUSART1_Initialize->_EUSART1_SetFramingErrorHandler
    _EUSART1_Initialize->_EUSART1_SetOverrunErrorHandler

Critical Paths under _INTERRUPT_InterruptManager in COMRAM

    _I2C1_MasterIsr->_I2C1_MasterFsm
    _I2C1_MasterFsm->_I2C1_DO_ADDRESS_NACK
    _I2C1_MasterFsm->_I2C1_DO_RX
    _I2C1_MasterFsm->_I2C1_DO_TX
    _I2C1_MasterFsm->_I2C1_DO_TX_EMPTY
    _I2C1_DO_TX_EMPTY->_I2C1_CallbackReturnReset
    _I2C1_DO_TX_EMPTY->_I2C1_CallbackReturnStop
    _I2C1_DO_TX_EMPTY->_rd1RegCompleteHandler
    _I2C1_DO_TX_EMPTY->_rd2RegCompleteHandler
    _I2C1_DO_TX_EMPTY->_rdBlkRegCompleteHandler
    _I2C1_DO_TX_EMPTY->_wr1RegCompleteHandler
    _I2C1_DO_TX_EMPTY->_wr2RegCompleteHandler
    _I2C1_DO_TX->_I2C1_CallbackReturnReset
    _I2C1_DO_TX->_I2C1_CallbackReturnStop
    _I2C1_DO_TX->_rd1RegCompleteHandler
    _I2C1_DO_TX->_rd2RegCompleteHandler
    _I2C1_DO_TX->_rdBlkRegCompleteHandler
    _I2C1_DO_TX->_wr1RegCompleteHandler
    _I2C1_DO_TX->_wr2RegCompleteHandler
    _I2C1_DO_SEND_ADR_WRITE->_I2C1_MasterSendTxData
    _I2C1_DO_RX->_I2C1_CallbackReturnReset
    _I2C1_DO_RX->_I2C1_CallbackReturnStop
    _I2C1_DO_RX->_rd1RegCompleteHandler
    _I2C1_DO_RX->_rd2RegCompleteHandler
    _I2C1_DO_RX->_rdBlkRegCompleteHandler
    _I2C1_DO_RX->_wr1RegCompleteHandler
    _I2C1_DO_RX->_wr2RegCompleteHandler
    _I2C1_DO_ADDRESS_NACK->_I2C1_CallbackReturnReset
    _I2C1_DO_ADDRESS_NACK->_I2C1_CallbackReturnStop
    _I2C1_DO_ADDRESS_NACK->_rd1RegCompleteHandler
    _I2C1_DO_ADDRESS_NACK->_rd2RegCompleteHandler
    _I2C1_DO_ADDRESS_NACK->_rdBlkRegCompleteHandler
    _I2C1_DO_ADDRESS_NACK->_wr1RegCompleteHandler
    _I2C1_DO_ADDRESS_NACK->_wr2RegCompleteHandler
    _wr2RegCompleteHandler->i2_I2C1_SetDataCompleteCallback
    _wr1RegCompleteHandler->i2_I2C1_SetDataCompleteCallback
    _rdBlkRegCompleteHandler->i2_I2C1_SetDataCompleteCallback
    _rd2RegCompleteHandler->i2_I2C1_SetDataCompleteCallback
    _rd1RegCompleteHandler->i2_I2C1_SetDataCompleteCallback
    i2_I2C1_SetDataCompleteCallback->i2_I2C1_SetCallback

Critical Paths under _main in BANK0

    _main->_printf
    _windSpeedCalc->___fldiv
    ___fldiv->___flmul
    _printf->_vfprintf
    _vfprintf->_vfpfcnvrt
    _vfpfcnvrt->_dtoa
    _utoa->_pad
    _dtoa->___aodiv
    _dtoa->_pad

Critical Paths under _INTERRUPT_InterruptManager in BANK0

    None.

Critical Paths under _main in BANK1

    None.

Critical Paths under _INTERRUPT_InterruptManager in BANK1

    None.

Critical Paths under _main in BANK2

    None.

Critical Paths under _INTERRUPT_InterruptManager in BANK2

    None.

Critical Paths under _main in BANK3

    None.

Critical Paths under _INTERRUPT_InterruptManager in BANK3

    None.

Critical Paths under _main in BANK4

    None.

Critical Paths under _INTERRUPT_InterruptManager in BANK4

    None.

Critical Paths under _main in BANK5

    None.

Critical Paths under _INTERRUPT_InterruptManager in BANK5

    None.

Critical Paths under _main in BANK6

    None.

Critical Paths under _INTERRUPT_InterruptManager in BANK6

    None.

Critical Paths under _main in BANK7

    None.

Critical Paths under _INTERRUPT_InterruptManager in BANK7

    None.

Critical Paths under _main in BANK8

    None.

Critical Paths under _INTERRUPT_InterruptManager in BANK8

    None.

Critical Paths under _main in BANK9

    None.

Critical Paths under _INTERRUPT_InterruptManager in BANK9

    None.

Critical Paths under _main in BANK10

    None.

Critical Paths under _INTERRUPT_InterruptManager in BANK10

    None.

Critical Paths under _main in BANK11

    None.

Critical Paths under _INTERRUPT_InterruptManager in BANK11

    None.

Critical Paths under _main in BANK12

    None.

Critical Paths under _INTERRUPT_InterruptManager in BANK12

    None.

Critical Paths under _main in BANK13

    None.

Critical Paths under _INTERRUPT_InterruptManager in BANK13

    None.

Critical Paths under _main in BANK14

    None.

Critical Paths under _INTERRUPT_InterruptManager in BANK14

    None.

Call Graph Tables:

 ---------------------------------------------------------------------------------
 (Depth) Function   	        Calls       Base Space   Used Autos Params    Refs
 ---------------------------------------------------------------------------------
 (0) _main                                                15    15      0   89035
                                             91 BANK0      1     1      0
                                              0 BANK1     14    14      0
                _EUSART1_is_tx_ready
                  _SYSTEM_Initialize
                             ___flge
                           _hallRead
                        _motorDeploy
                     _motorFaultRead
                          _motorStow
                             _printf
                        _system_init
                           _tempRead
                      _windSpeedCalc
 ---------------------------------------------------------------------------------
 (1) _windSpeedCalc                                       20    16      4   13598
                                             30 BANK0     20    16      4
                            ___fldiv
                            ___flmul
                            ___lwdiv
                           ___xxtofl
                         _hallRecord
 ---------------------------------------------------------------------------------
 (2) _hallRecord                                           1     1      0    7599
                                             43 COMRAM     1     1      0
                     _TMR2_ReadTimer
                           _hallRead
 ---------------------------------------------------------------------------------
 (2) ___xxtofl                                            14    10      4     566
                                             32 COMRAM    14    10      4
                            ___lwdiv (ARG)
 ---------------------------------------------------------------------------------
 (2) ___lwdiv                                              7     3      4     421
                                             25 COMRAM     7     3      4
 ---------------------------------------------------------------------------------
 (2) ___flmul                                             25    17      8    2873
                                             25 COMRAM    12     4      8
                                              0 BANK0     13    13      0
 ---------------------------------------------------------------------------------
 (2) ___fldiv                                             25    17      8    2003
                                             37 COMRAM     8     0      8
                                             13 BANK0     17    17      0
                            ___flmul (ARG)
 ---------------------------------------------------------------------------------
 (1) _tempRead                                             0     0      0    7565
             _I2C1_Read1ByteRegister
 ---------------------------------------------------------------------------------
 (1) _system_init                                          1     1      0   16697
                                             43 COMRAM     1     1      0
                     _TMR2_ReadTimer
                    _TMR2_StartTimer
                           _hallRead
                    _motorController
 ---------------------------------------------------------------------------------
 (3) _hallRead                                             6     4      2    7565
                                             37 COMRAM     6     4      2
             _I2C1_Read1ByteRegister
 ---------------------------------------------------------------------------------
 (2) _TMR2_StartTimer                                      0     0      0       0
                         _TMR2_Start
 ---------------------------------------------------------------------------------
 (3) _TMR2_Start                                           0     0      0       0
 ---------------------------------------------------------------------------------
 (3) _TMR2_ReadTimer                                       0     0      0      34
                _TMR2_Counter8BitGet
 ---------------------------------------------------------------------------------
 (4) _TMR2_Counter8BitGet                                  1     1      0      34
                                             25 COMRAM     1     1      0
 ---------------------------------------------------------------------------------
 (1) _printf                                              20     4     16   16406
                                             73 BANK0     18     2     16
                           _vfprintf
 ---------------------------------------------------------------------------------
 (2) _vfprintf                                             8     2      6   16217
                                             65 BANK0      8     2      6
                          _vfpfcnvrt
 ---------------------------------------------------------------------------------
 (3) _vfpfcnvrt                                           25    19      6   15693
                                             45 BANK0     20    14      6
                               _atoi
                               _dtoa
                              _fputc
                            _isdigit
                               _utoa
 ---------------------------------------------------------------------------------
 (4) _utoa                                                32    22     10    4364
                                             10 BANK0     32    22     10
                            ___lodiv
                            ___lomod
                                _pad
 ---------------------------------------------------------------------------------
 (5) ___lomod                                             17     1     16     412
                                             25 COMRAM    17     1     16
 ---------------------------------------------------------------------------------
 (5) ___lodiv                                             25     9     16     421
                                             25 COMRAM    16     0     16
                                              0 BANK0      9     9      0
 ---------------------------------------------------------------------------------
 (4) _dtoa                                                35    25     10    5252
                                             10 BANK0     35    25     10
                            ___aodiv
                            ___aomod
                                _abs
                                _pad
 ---------------------------------------------------------------------------------
 (5) _pad                                                 11     5      6    2983
                                             43 COMRAM     1     1      0
                                              0 BANK0     10     4      6
                              _fputc
                              _fputs
 ---------------------------------------------------------------------------------
 (6) _fputs                                                7     3      4    1326
                                             36 COMRAM     7     3      4
                              _fputc
 ---------------------------------------------------------------------------------
 (7) _fputc                                                9     5      4     826
                                             27 COMRAM     9     5      4
                              _putch
 ---------------------------------------------------------------------------------
 (8) _putch                                                1     1      0      62
                                             26 COMRAM     1     1      0
                      _EUSART1_Write
 ---------------------------------------------------------------------------------
 (9) _EUSART1_Write                                        1     1      0      31
                                             25 COMRAM     1     1      0
 ---------------------------------------------------------------------------------
 (5) _abs                                                  4     2      2     183
                                             43 COMRAM     4     2      2
                            ___aomod (ARG)
 ---------------------------------------------------------------------------------
 (5) ___aomod                                             18     2     16     613
                                             25 COMRAM    18     2     16
 ---------------------------------------------------------------------------------
 (5) ___aodiv                                             26    10     16     625
                                             25 COMRAM    16     0     16
                                              0 BANK0     10    10      0
 ---------------------------------------------------------------------------------
 (4) _atoi                                                 9     7      2    3454
                                             31 COMRAM     9     7      2
                             ___wmul
                            _isdigit
                            _isspace
 ---------------------------------------------------------------------------------
 (5) _isspace                                              5     3      2     259
                                             25 COMRAM     5     3      2
 ---------------------------------------------------------------------------------
 (4) _isdigit                                              4     2      2     371
                                             25 COMRAM     4     2      2
 ---------------------------------------------------------------------------------
 (5) ___wmul                                               6     2      4    2282
                                             25 COMRAM     6     2      4
 ---------------------------------------------------------------------------------
 (1) _motorStow                                            2     2      0    9098
                                             41 COMRAM     2     2      0
                    _motorController
 ---------------------------------------------------------------------------------
 (1) _motorFaultRead                                       1     1      0    7596
                                             37 COMRAM     1     1      0
             _I2C1_Read1ByteRegister
 ---------------------------------------------------------------------------------
 (4) _I2C1_Read1ByteRegister                               3     2      1    7565
                                             34 COMRAM     3     2      1
                         _I2C1_Close
                   _I2C1_MasterWrite
                          _I2C1_Open
        _I2C1_SetAddressNackCallback
                     _I2C1_SetBuffer
       _I2C1_SetDataCompleteCallback
 ---------------------------------------------------------------------------------
 (1) _motorDeploy                                          2     2      0    9098
                                             41 COMRAM     2     2      0
                    _motorController
 ---------------------------------------------------------------------------------
 (2) _motorController                                      4     2      2    9098
                                             37 COMRAM     4     2      2
            _I2C1_Write1ByteRegister
 ---------------------------------------------------------------------------------
 (3) _I2C1_Write1ByteRegister                              3     1      2    7351
                                             34 COMRAM     3     1      2
                         _I2C1_Close
                   _I2C1_MasterWrite
                          _I2C1_Open
        _I2C1_SetAddressNackCallback
                     _I2C1_SetBuffer
       _I2C1_SetDataCompleteCallback
 ---------------------------------------------------------------------------------
 (5) _I2C1_SetDataCompleteCallback                         4     0      4    2629
                                             30 COMRAM     4     0      4
                   _I2C1_SetCallback
 ---------------------------------------------------------------------------------
 (5) _I2C1_SetBuffer                                       4     0      4    1872
                                             25 COMRAM     4     0      4
 ---------------------------------------------------------------------------------
 (5) _I2C1_SetAddressNackCallback                          4     0      4    2259
                                             30 COMRAM     4     0      4
                   _I2C1_SetCallback
 ---------------------------------------------------------------------------------
 (6) _I2C1_SetCallback                                     5     1      4    1117
                                             25 COMRAM     5     1      4
 ---------------------------------------------------------------------------------
 (5) _I2C1_Open                                            2     2      0     189
                                             27 COMRAM     2     2      0
                _I2C1_MasterClearIrq
               _I2C1_MasterEnableIrq
                    _I2C1_MasterOpen
           _I2C1_SetInterruptHandler
 ---------------------------------------------------------------------------------
 (6) _I2C1_SetInterruptHandler                             2     0      2     121
                                             25 COMRAM     2     0      2
 ---------------------------------------------------------------------------------
 (6) _I2C1_MasterOpen                                      0     0      0       0
 ---------------------------------------------------------------------------------
 (6) _I2C1_MasterEnableIrq                                 0     0      0       0
 ---------------------------------------------------------------------------------
 (5) _I2C1_MasterWrite                                     0     0      0      68
               _I2C1_MasterOperation
 ---------------------------------------------------------------------------------
 (6) _I2C1_MasterOperation                                 2     2      0      68
                                             25 COMRAM     2     2      0
                   _I2C1_MasterStart
 ---------------------------------------------------------------------------------
 (7) _I2C1_MasterStart                                     0     0      0       0
 ---------------------------------------------------------------------------------
 (5) _I2C1_Close                                           1     1      0      37
                                             25 COMRAM     1     1      0
                _I2C1_MasterClearIrq
                   _I2C1_MasterClose
              _I2C1_MasterDisableIrq
 ---------------------------------------------------------------------------------
 (6) _I2C1_MasterDisableIrq                                0     0      0       0
 ---------------------------------------------------------------------------------
 (6) _I2C1_MasterClose                                     0     0      0       0
 ---------------------------------------------------------------------------------
 (6) _I2C1_MasterClearIrq                                  0     0      0       0
 ---------------------------------------------------------------------------------
 (1) ___flge                                              12     4      8     626
                                             25 COMRAM    12     4      8
 ---------------------------------------------------------------------------------
 (1) _SYSTEM_Initialize                                    0     0      0     363
                 _EUSART1_Initialize
                    _I2C1_Initialize
               _INTERRUPT_Initialize
              _OSCILLATOR_Initialize
             _PIN_MANAGER_Initialize
                     _PMD_Initialize
                    _TMR2_Initialize
 ---------------------------------------------------------------------------------
 (2) _TMR2_Initialize                                      0     0      0       0
 ---------------------------------------------------------------------------------
 (2) _PMD_Initialize                                       0     0      0       0
 ---------------------------------------------------------------------------------
 (2) _PIN_MANAGER_Initialize                               0     0      0       0
 ---------------------------------------------------------------------------------
 (2) _OSCILLATOR_Initialize                                0     0      0       0
 ---------------------------------------------------------------------------------
 (2) _INTERRUPT_Initialize                                 0     0      0       0
 ---------------------------------------------------------------------------------
 (2) _I2C1_Initialize                                      0     0      0       0
 ---------------------------------------------------------------------------------
 (2) _EUSART1_Initialize                                   0     0      0     363
            _EUSART1_SetErrorHandler
     _EUSART1_SetFramingErrorHandler
     _EUSART1_SetOverrunErrorHandler
 ---------------------------------------------------------------------------------
 (3) _EUSART1_SetOverrunErrorHandler                       2     0      2     121
                                             25 COMRAM     2     0      2
 ---------------------------------------------------------------------------------
 (3) _EUSART1_SetFramingErrorHandler                       2     0      2     121
                                             25 COMRAM     2     0      2
 ---------------------------------------------------------------------------------
 (3) _EUSART1_SetErrorHandler                              2     0      2     121
                                             25 COMRAM     2     0      2
 ---------------------------------------------------------------------------------
 (1) _EUSART1_is_tx_ready                                  1     1      0      37
                                             25 COMRAM     1     1      0
 ---------------------------------------------------------------------------------
 Estimated maximum stack depth 9
 ---------------------------------------------------------------------------------
 (Depth) Function   	        Calls       Base Space   Used Autos Params    Refs
 ---------------------------------------------------------------------------------
 (10) _INTERRUPT_InterruptManager                         10    10      0   17934
                                             15 COMRAM    10    10      0
                   Absolute function *
                     _I2C1_MasterIsr *
 ---------------------------------------------------------------------------------
 (11) _I2C1_MasterIsr                                      0     0      0   17934
                     _I2C1_MasterFsm
 ---------------------------------------------------------------------------------
 (12) _I2C1_MasterFsm                                      2     2      0   17934
                                             13 COMRAM     2     2      0
               _I2C1_DO_ADDRESS_NACK *
                       _I2C1_DO_IDLE *
                       _I2C1_DO_RCEN *
                      _I2C1_DO_RESET *
                         _I2C1_DO_RX *
                     _I2C1_DO_RX_ACK *
            _I2C1_DO_RX_NACK_RESTART *
               _I2C1_DO_RX_NACK_STOP *
              _I2C1_DO_SEND_ADR_READ *
             _I2C1_DO_SEND_ADR_WRITE *
               _I2C1_DO_SEND_RESTART *
          _I2C1_DO_SEND_RESTART_READ *
         _I2C1_DO_SEND_RESTART_WRITE *
                  _I2C1_DO_SEND_STOP *
                         _I2C1_DO_TX *
                   _I2C1_DO_TX_EMPTY *
                  _I2C1_MasterIsNack
              i2_I2C1_MasterClearIrq
 ---------------------------------------------------------------------------------
 (13) i2_I2C1_MasterClearIrq                               0     0      0       0
 ---------------------------------------------------------------------------------
 (13) _I2C1_DO_TX_EMPTY                                    2     2      0    4467
                                             11 COMRAM     2     2      0
                   Absolute function *
           _I2C1_CallbackReturnReset *
            _I2C1_CallbackReturnStop *
               _I2C1_DO_SEND_RESTART
                  _I2C1_DO_SEND_STOP
                  _I2C1_MasterSetIrq
              _rd1RegCompleteHandler *
              _rd2RegCompleteHandler *
            _rdBlkRegCompleteHandler *
              _wr1RegCompleteHandler *
              _wr2RegCompleteHandler *
 ---------------------------------------------------------------------------------
 (14) _I2C1_MasterSetIrq                                   0     0      0       0
 ---------------------------------------------------------------------------------
 (13) _I2C1_DO_TX                                          2     2      0    4489
                                             11 COMRAM     2     2      0
                   Absolute function *
           _I2C1_CallbackReturnReset *
            _I2C1_CallbackReturnStop *
          _I2C1_DO_SEND_RESTART_READ
         _I2C1_DO_SEND_RESTART_WRITE
                  _I2C1_DO_SEND_STOP
                  _I2C1_MasterIsNack
              _I2C1_MasterSendTxData
              _rd1RegCompleteHandler *
              _rd2RegCompleteHandler *
            _rdBlkRegCompleteHandler *
              _wr1RegCompleteHandler *
              _wr2RegCompleteHandler *
 ---------------------------------------------------------------------------------
 (13) _I2C1_MasterIsNack                                   0     0      0       0
 ---------------------------------------------------------------------------------
 (14) _I2C1_DO_SEND_RESTART_WRITE                          0     0      0       0
           _I2C1_MasterEnableRestart
 ---------------------------------------------------------------------------------
 (14) _I2C1_DO_SEND_RESTART_READ                           0     0      0       0
           _I2C1_MasterEnableRestart
 ---------------------------------------------------------------------------------
 (13) _I2C1_DO_SEND_ADR_WRITE                              0     0      0      22
              _I2C1_MasterSendTxData
 ---------------------------------------------------------------------------------
 (13) _I2C1_DO_SEND_ADR_READ                               0     0      0      22
              _I2C1_MasterSendTxData
 ---------------------------------------------------------------------------------
 (14) _I2C1_MasterSendTxData                               1     1      0      22
                                              0 COMRAM     1     1      0
 ---------------------------------------------------------------------------------
 (13) _I2C1_DO_RX_ACK                                      0     0      0       0
                 _I2C1_MasterSendAck
 ---------------------------------------------------------------------------------
 (13) _I2C1_DO_RX                                          2     2      0    4467
                                             11 COMRAM     2     2      0
                   Absolute function *
           _I2C1_CallbackReturnReset *
            _I2C1_CallbackReturnStop *
            _I2C1_DO_RX_NACK_RESTART
               _I2C1_DO_RX_NACK_STOP
               _I2C1_MasterGetRxData
                 _I2C1_MasterSendAck
              _rd1RegCompleteHandler *
              _rd2RegCompleteHandler *
            _rdBlkRegCompleteHandler *
              _wr1RegCompleteHandler *
              _wr2RegCompleteHandler *
 ---------------------------------------------------------------------------------
 (14) _I2C1_MasterSendAck                                  0     0      0       0
 ---------------------------------------------------------------------------------
 (14) _I2C1_MasterGetRxData                                0     0      0       0
 ---------------------------------------------------------------------------------
 (13) _I2C1_DO_RX_NACK_STOP                                0     0      0       0
                _I2C1_MasterSendNack
 ---------------------------------------------------------------------------------
 (13) _I2C1_DO_RX_NACK_RESTART                             0     0      0       0
                _I2C1_MasterSendNack
 ---------------------------------------------------------------------------------
 (14) _I2C1_MasterSendNack                                 0     0      0       0
 ---------------------------------------------------------------------------------
 (13) _I2C1_DO_RESET                                       0     0      0       0
 ---------------------------------------------------------------------------------
 (13) _I2C1_DO_RCEN                                        0     0      0       0
                 _I2C1_MasterStartRx
 ---------------------------------------------------------------------------------
 (14) _I2C1_MasterStartRx                                  0     0      0       0
 ---------------------------------------------------------------------------------
 (13) _I2C1_DO_IDLE                                        0     0      0       0
 ---------------------------------------------------------------------------------
 (13) _I2C1_DO_ADDRESS_NACK                                2     2      0    4467
                                             11 COMRAM     2     2      0
                   Absolute function *
           _I2C1_CallbackReturnReset *
            _I2C1_CallbackReturnStop *
               _I2C1_DO_SEND_RESTART
                  _I2C1_DO_SEND_STOP
              _rd1RegCompleteHandler *
              _rd2RegCompleteHandler *
            _rdBlkRegCompleteHandler *
              _wr1RegCompleteHandler *
              _wr2RegCompleteHandler *
 ---------------------------------------------------------------------------------
 (14) _wr2RegCompleteHandler                               2     0      2     836
                                              9 COMRAM     2     0      2
                   i2_I2C1_SetBuffer
     i2_I2C1_SetDataCompleteCallback
 ---------------------------------------------------------------------------------
 (14) _wr1RegCompleteHandler                               2     0      2     836
                                              9 COMRAM     2     0      2
                   i2_I2C1_SetBuffer
     i2_I2C1_SetDataCompleteCallback
 ---------------------------------------------------------------------------------
 (14) _rdBlkRegCompleteHandler                             2     0      2     858
                                              9 COMRAM     2     0      2
                   i2_I2C1_SetBuffer
     i2_I2C1_SetDataCompleteCallback
 ---------------------------------------------------------------------------------
 (14) _rd2RegCompleteHandler                               2     0      2     836
                                              9 COMRAM     2     0      2
                   i2_I2C1_SetBuffer
     i2_I2C1_SetDataCompleteCallback
 ---------------------------------------------------------------------------------
 (14) _rd1RegCompleteHandler                               2     0      2     836
                                              9 COMRAM     2     0      2
                   i2_I2C1_SetBuffer
     i2_I2C1_SetDataCompleteCallback
 ---------------------------------------------------------------------------------
 (15) i2_I2C1_SetDataCompleteCallback                      4     0      4     510
                                              5 COMRAM     4     0      4
                 i2_I2C1_SetCallback
 ---------------------------------------------------------------------------------
 (16) i2_I2C1_SetCallback                                  5     1      4     206
                                              0 COMRAM     5     1      4
 ---------------------------------------------------------------------------------
 (15) i2_I2C1_SetBuffer                                    4     0      4     304
                                              0 COMRAM     4     0      4
 ---------------------------------------------------------------------------------
 (14) _I2C1_DO_SEND_STOP                                   0     0      0       0
                    _I2C1_MasterStop
 ---------------------------------------------------------------------------------
 (15) _I2C1_MasterStop                                     0     0      0       0
 ---------------------------------------------------------------------------------
 (14) _I2C1_DO_SEND_RESTART                                0     0      0       0
           _I2C1_MasterEnableRestart
 ---------------------------------------------------------------------------------
 (15) _I2C1_MasterEnableRestart                            0     0      0       0
 ---------------------------------------------------------------------------------
 (14) _I2C1_CallbackReturnStop                             2     0      2       0
                                              9 COMRAM     2     0      2
 ---------------------------------------------------------------------------------
 (14) _I2C1_CallbackReturnReset                            2     0      2     265
                                              9 COMRAM     2     0      2
 ---------------------------------------------------------------------------------
 (14) Absolute function(Fake)                              2     0      2       0
 ---------------------------------------------------------------------------------
 Estimated maximum stack depth 16
 ---------------------------------------------------------------------------------

 Call Graph Graphs:

 _main (ROOT)
   _EUSART1_is_tx_ready
   _SYSTEM_Initialize
     _EUSART1_Initialize
       _EUSART1_SetErrorHandler
       _EUSART1_SetFramingErrorHandler
       _EUSART1_SetOverrunErrorHandler
     _I2C1_Initialize
     _INTERRUPT_Initialize
     _OSCILLATOR_Initialize
     _PIN_MANAGER_Initialize
     _PMD_Initialize
     _TMR2_Initialize
   ___flge
   _hallRead
     _I2C1_Read1ByteRegister
       _I2C1_Close
         _I2C1_MasterClearIrq
         _I2C1_MasterClose
         _I2C1_MasterDisableIrq
       _I2C1_MasterWrite
         _I2C1_MasterOperation
           _I2C1_MasterStart
       _I2C1_Open
         _I2C1_MasterClearIrq
         _I2C1_MasterEnableIrq
         _I2C1_MasterOpen
         _I2C1_SetInterruptHandler
       _I2C1_SetAddressNackCallback
         _I2C1_SetCallback
       _I2C1_SetBuffer
       _I2C1_SetDataCompleteCallback
         _I2C1_SetCallback
   _motorDeploy
     _motorController
       _I2C1_Write1ByteRegister
         _I2C1_Close
         _I2C1_MasterWrite
         _I2C1_Open
         _I2C1_SetAddressNackCallback
         _I2C1_SetBuffer
         _I2C1_SetDataCompleteCallback
   _motorFaultRead
     _I2C1_Read1ByteRegister
   _motorStow
     _motorController
   _printf
     _vfprintf
       _vfpfcnvrt
         _atoi
           ___wmul
           _isdigit
           _isspace
         _dtoa
           ___aodiv
           ___aomod
           _abs
             ___aomod (ARG)
           _pad
             _fputc
               _putch
                 _EUSART1_Write
             _fputs
               _fputc
         _fputc
         _isdigit
         _utoa
           ___lodiv
           ___lomod
           _pad
   _system_init
     _TMR2_ReadTimer
       _TMR2_Counter8BitGet
     _TMR2_StartTimer
       _TMR2_Start
     _hallRead
     _motorController
   _tempRead
     _I2C1_Read1ByteRegister
   _windSpeedCalc
     ___fldiv
       ___flmul (ARG)
     ___flmul
     ___lwdiv
     ___xxtofl
       ___lwdiv (ARG)
     _hallRecord
       _TMR2_ReadTimer
       _hallRead

 _INTERRUPT_InterruptManager (ROOT)
   Absolute function(Fake) *
   _I2C1_MasterIsr *
     _I2C1_MasterFsm
       _I2C1_DO_ADDRESS_NACK *
         Absolute function(Fake) *
         _I2C1_CallbackReturnReset *
         _I2C1_CallbackReturnStop *
         _I2C1_DO_SEND_RESTART *
           _I2C1_MasterEnableRestart
         _I2C1_DO_SEND_STOP *
           _I2C1_MasterStop
         _rd1RegCompleteHandler *
           i2_I2C1_SetBuffer
           i2_I2C1_SetDataCompleteCallback
             i2_I2C1_SetCallback
         _rd2RegCompleteHandler *
           i2_I2C1_SetBuffer
           i2_I2C1_SetDataCompleteCallback
         _rdBlkRegCompleteHandler *
           i2_I2C1_SetBuffer
           i2_I2C1_SetDataCompleteCallback
         _wr1RegCompleteHandler *
           i2_I2C1_SetBuffer
           i2_I2C1_SetDataCompleteCallback
         _wr2RegCompleteHandler *
           i2_I2C1_SetBuffer
           i2_I2C1_SetDataCompleteCallback
       _I2C1_DO_IDLE *
       _I2C1_DO_RCEN *
         _I2C1_MasterStartRx
       _I2C1_DO_RESET *
       _I2C1_DO_RX *
         Absolute function(Fake) *
         _I2C1_CallbackReturnReset *
         _I2C1_CallbackReturnStop *
         _I2C1_DO_RX_NACK_RESTART *
           _I2C1_MasterSendNack
         _I2C1_DO_RX_NACK_STOP *
           _I2C1_MasterSendNack
         _I2C1_MasterGetRxData *
         _I2C1_MasterSendAck *
         _rd1RegCompleteHandler *
         _rd2RegCompleteHandler *
         _rdBlkRegCompleteHandler *
         _wr1RegCompleteHandler *
         _wr2RegCompleteHandler *
       _I2C1_DO_RX_ACK *
         _I2C1_MasterSendAck
       _I2C1_DO_RX_NACK_RESTART *
       _I2C1_DO_RX_NACK_STOP *
       _I2C1_DO_SEND_ADR_READ *
         _I2C1_MasterSendTxData
       _I2C1_DO_SEND_ADR_WRITE *
         _I2C1_MasterSendTxData
       _I2C1_DO_SEND_RESTART *
       _I2C1_DO_SEND_RESTART_READ *
         _I2C1_MasterEnableRestart
       _I2C1_DO_SEND_RESTART_WRITE *
         _I2C1_MasterEnableRestart
       _I2C1_DO_SEND_STOP *
       _I2C1_DO_TX *
         Absolute function(Fake) *
         _I2C1_CallbackReturnReset *
         _I2C1_CallbackReturnStop *
         _I2C1_DO_SEND_RESTART_READ *
         _I2C1_DO_SEND_RESTART_WRITE *
         _I2C1_DO_SEND_STOP *
         _I2C1_MasterIsNack *
         _I2C1_MasterSendTxData *
         _rd1RegCompleteHandler *
         _rd2RegCompleteHandler *
         _rdBlkRegCompleteHandler *
         _wr1RegCompleteHandler *
         _wr2RegCompleteHandler *
       _I2C1_DO_TX_EMPTY *
         Absolute function(Fake) *
         _I2C1_CallbackReturnReset *
         _I2C1_CallbackReturnStop *
         _I2C1_DO_SEND_RESTART *
         _I2C1_DO_SEND_STOP *
         _I2C1_MasterSetIrq *
         _rd1RegCompleteHandler *
         _rd2RegCompleteHandler *
         _rdBlkRegCompleteHandler *
         _wr1RegCompleteHandler *
         _wr2RegCompleteHandler *
       _I2C1_MasterIsNack *
       i2_I2C1_MasterClearIrq *

 Address spaces:
Name               Size   Autos  Total    Cost      Usage
BIGRAM             E87      0       0      59        0.0%
EEDATA             400      0       0       0        0.0%
BITBANK13          100      0       0      30        0.0%
BANK13             100      0       0      31        0.0%
BITBANK12          100      0       0      28        0.0%
BANK12             100      0       0      29        0.0%
BITBANK11          100      0       0      26        0.0%
BANK11             100      0       0      27        0.0%
BITBANK10          100      0       0      24        0.0%
BANK10             100      0       0      25        0.0%
BITBANK9           100      0       0      22        0.0%
BANK9              100      0       0      23        0.0%
BITBANK8           100      0       0      20        0.0%
BANK8              100      0       0      21        0.0%
BITBANK7           100      0       0      18        0.0%
BANK7              100      0       0      19        0.0%
BITBANK6           100      0       0      16        0.0%
BANK6              100      0       0      17        0.0%
BITBANK5           100      0       0      14        0.0%
BANK5              100      0       0      15        0.0%
BITBANK4           100      0       0      12        0.0%
BANK4              100      0       0      13        0.0%
BITBANK3           100      0       0      10        0.0%
BANK3              100      0       0      11        0.0%
BITBANK2           100      0       0       8        0.0%
BANK2              100      0       0       9        0.0%
BITBANK1           100      0       0       6        0.0%
BANK1              100      E       E       7        5.5%
BITBANK0            A0      0       0       4        0.0%
BANK0               A0     5C      A0       5      100.0%
BITBANK14           88      0       0      32        0.0%
BANK14              88      0       0      33        0.0%
BITCOMRAM           5E      0       0       0        0.0%
COMRAM              5E     2F      45       1       73.4%
BITBIGSFRlhh        55      0       0      42        0.0%
BITBIGSFRhhlhhh     31      0       0      35        0.0%
BITBIGSFRllllll     28      0       0      57        0.0%
BITBIGSFRhhlhhh     1B      0       0      36        0.0%
BITBIGSFRllllhl     13      0       0      49        0.0%
BITBIGSFRllllhh      F      0       0      47        0.0%
BITBIGSFRhhh         D      0       0      34        0.0%
BITBIGSFRllllhl      C      0       0      55        0.0%
BITBIGSFRllllhl      9      0       0      53        0.0%
BITBIGSFRlhll        8      0       0      44        0.0%
BITBIGSFRllllhl      7      0       0      54        0.0%
BITBIGSFRhhlhll      4      0       0      39        0.0%
BITBIGSFRlllh        3      0       0      46        0.0%
BITBIGSFRllh         3      0       0      45        0.0%
BITBIGSFRllllhl      2      0       0      50        0.0%
BITBIGSFRlhlh        2      0       0      43        0.0%
BITBIGSFRhhll        2      0       0      40        0.0%
BITBIGSFRhl          2      0       0      41        0.0%
BITBIGSFRllllhl      1      0       0      51        0.0%
BITBIGSFRllllhl      1      0       0      52        0.0%
BITBIGSFRhhlhlh      1      0       0      38        0.0%
BITBIGSFRhhlhhl      1      0       0      37        0.0%
BITBIGSFRllllhh      1      0       0      48        0.0%
BITBIGSFRlllllh      1      0       0      56        0.0%
BIGSFR               0      0       0     200        0.0%
BITSFR_2             0      0       0     200        0.0%
SFR_2                0      0       0     200        0.0%
BITSFR_1             0      0       0     200        0.0%
SFR_1                0      0       0     200        0.0%
BITSFR               0      0       0     200        0.0%
SFR                  0      0       0     200        0.0%
STACK                0      0       0       2        0.0%
NULL                 0      0       0       0        0.0%
ABS                  0      0      F3      58        0.0%
DATA                 0      0      F3       3        0.0%
CODE                 0      0       0       0        0.0%


Microchip Technology PIC18 Macro Assembler V2.40 build 20220703182018 
Symbol Table                                                                                   Wed Mar 22 23:01:11 2023

                                  ___fldiv@aexp 007D                                    ___fldiv@bexp 007C  
                                  ___fldiv@sign 0075                                              l35 310E  
                                            l53 31EC                             ___wmul@multiplicand 001C  
                           __end_of_system_init 35A2                                             l201 3858  
                                           l210 3942                                             l204 332E  
                                           l213 36FC                                             l222 394E  
                                           l207 32C4                                             l216 36D2  
                                           l403 2FAC                                             l227 35A0  
                                           l219 28A4                                             l165 325A  
                                           l353 3900                                             l361 35F8  
                                           l522 3800                                             l700 3726  
                                           l380 3798                                             l525 3A3C  
                                           l373 39B4                                             l357 2E20  
                                           l630 3874                                             l543 3A38  
                                           l367 34F2                                             l383 38A4  
                                           l624 381E                                             l641 3A40  
                                           l570 3A0C                                             l722 388C  
                                           l627 38D4                                             l740 399A  
                                           l564 3A06                                             l573 3A12  
                                           l389 38BC                                             l398 3986  
                                           l743 3990                                             l719 3878  
                                           l816 3774                                             l728 397C  
                                           l746 39A4                                             l930 24D8  
                                           l773 383C                                             l782 3A34  
                                           l695 3570                                             l943 263C  
                                           l785 39FA                                             l794 39AC  
                                           l699 3724                                             l797 3A00  
                                           _PR2 000FBC                               ?i2_I2C1_SetBuffer 0001  
                         ?_I2C1_MasterOperation 0001                                             _abs 3474  
                                           _pad 2C30                                 _TMR2_Initialize 3820  
                                           prod 000FF3                                             tosl 000FFD  
                                           wreg 000FE8                          ?_I2C1_MasterSendTxData 0001  
                          _I2C1_DO_RX_NACK_STOP 39BE                                    ___flmul@aexp 0061  
                     ?_I2C1_MasterEnableRestart 0001                                    ___flmul@bexp 0066  
                      fp__I2C1_DO_SEND_ADR_READ 0000                              ??i2_I2C1_SetBuffer 0005  
                       fp__I2C1_DO_SEND_RESTART 0000                                    ___flmul@sign 0060  
                                  ___flmul@temp 006B                                    ___flmul@prod 0067  
                          I2C1_SetBuffer@buffer 001A                                            ?_abs 002C  
                       ??_rd2RegCompleteHandler 000C                                            l1400 19C4  
                                          l1081 2962                                            l1314 309A  
                                          l1411 1A82                                            l1403 1988  
                                          l1307 3092                                            l1412 1A70  
                                          l1261 2A9A                                            l1086 29A8  
                                          l1254 2A7A                                            l1430 104C  
                                          l1271 2B6A                                            l1264 2B4A  
                                          l1440 12A8                                            l1521 2C76  
                                          l1409 1A0A                                            l1434 13B0  
                                          l1531 1BF2                                            l1524 2CBA  
                                          l1621 2788                                            l1533 1BFA  
                                          l1437 1242                                            l1526 2CDC  
                                          l1534 1C40                                            l1551 2006  
                                          l1447 1372                                            l1439 12BA  
                                          l1471 21F2                                            l1624 2790  
                                          l1545 1DE4                                            l1650 2EB6  
                                          l1474 234E                                            l1627 35CC  
                                          l1635 342E                                            l1580 17C8  
                                          l1557 219A                                            l1549 1FFE  
                                          l1485 22E6                                            l5102 2F36  
                                          l5110 343C                                            l1494 374E  
                                          l1398 1B64                                            l1478 228A  
                                          l5120 2D9A                                            l5104 2F48  
                                          l5200 376C                                            l5112 344E  
                                          l1592 33E8                                            l6000 33DE  
                                          l5130 2DA8                                            l5122 2D9E  
                                          l5106 2F7C                                            l6010 32FA  
                                          l5210 2384                                            l5042 3878  
                                          l5050 2E22                                            l1658 3472  
                                          l5114 3452                                            l6100 2950  
                                          l5140 2DCA                                            l5132 2DB0  
                                          l5124 2DA0                                            l5116 2D86  
                                          l6012 3308                                            l6004 32C6  
                                          l6020 3290                                            l5220 23C6  
                                          l5212 2388                                            l5204 2350  
                                          l1596 34AA                                            l5044 3888  
                                          l5060 2EA4                                            l5052 2E34  
                                          l5108 3430                                            l5300 2A60  
                                          l6102 29A0                                            l5070 37EE  
                                          l5150 2DF2                                            l5142 2DD2  
                                          l5134 2DB2                                            l5126 2DA2  
                                          l5118 2D8A                                            l6006 32D4  
                                          l6022 329E                                            l6014 325C  
                                          l5230 2420                                            l5222 23E4  
                                          l5214 2396                                            l5206 2356  
                                          l5046 3976                                            l5054 2E46  
                                          l5302 2A62                                            l5310 2AC2  
                                          l6030 2796                                            l1599 34B2  
                                          l6104 29A6                                            l5080 3A3A  
                                          l5048 3A36                                            l5072 37FE  
                                          l5064 397E                                            l5160 2E16  
                                          l5152 2DFA                                            l5144 2DDA  
                                          l5136 2DBA                                            l5128 2DA4  
                                          l6008 32EC                                            l6024 3938  
                                          l6016 326A                                            l5232 244E  
                                          l5224 23EC                                            l5240 2488  
                                          l5216 23B6                                            l5208 2364  
                                          l5056 2E50                                            l5400 1C18  
                                          l5304 2A74                                            l5320 2B44  
                                          l5312 2AD6                                            l6032 27D4  
                                          l6200 1E48                                            l5066 3A0E  
                                          l5090 34D0                                            l5082 34B6  
                                          l5162 2E1A                                            l5154 2E02  
                                          l5146 2DE2                                            l5138 2DC2  
                                          l5170 3776                                            l6018 3282  
                                          l5242 2498                                            l5234 246E  
                                          l5226 2400                                            l5218 23BA  
                                          l5250 24DE                                            l5058 2E6E  
                                          l5330 2C6E                                            l5322 2C30  
                                          l5410 1C50                                            l5402 1C28  
                                          l5314 2AE4                                            l5306 2A9C  
                                          l6050 357A                                            l6042 3944  
                                          l6034 2808                                            l6210 1EB8  
                                          l6202 1E56                                            l6060 380A  
                                          l5092 34E0                                            l5084 34BA  
                                          l5180 39AE                                            l5076 3A02  
                                          l5068 37E0                                            l5156 2E0E  
                                          l5148 2DEA                                            l5164 2E1E  
                                          l5172 3786                                            l5500 3198  
                                          l5244 24B8                                            l5236 2470  
                                          l5228 240E                                            l5260 253E  
                                          l5252 24EC                                            l5340 3474  
                                          l5332 2C82                                            l5324 2C3E  
                                          l5412 1C56                                            l5420 1D4A  
                                          l5404 1C34                                            l5316 2B12  
                                          l5308 2ABA                                            l6052 3586  
                                          l6036 283C                                            l6028 2792  
                                          l6220 1F26                                            l6212 1EEA  
                                          l6204 1E60                                            l6070 36FE  
                                          l6062 380E                                            l5078 3A08  
                                          l5190 35E6                                            l5094 34E8  
                                          l5086 34CA                                            l5158 2E12  
                                          l5174 378E                                            l5502 31AC  
                                          l5350 33EE                                            l5238 2482  
                                          l5270 25B4                                            l5262 255C  
                                          l5254 250C                                            l5342 348E  
                                          l5334 2C96                                            l5326 2C52  
                                          l5430 1DB4                                            l5422 1D66  
                                          l5414 1CD8                                            l5406 1C3C  
                                          l5318 2B32                                            l5510 36D4  
                                          l6054 3592                                            l6046 3572  
                                          l6038 2894                                            l6230 1F4E  
                                          l6222 1F2A                                            l6214 1F08  
                                          l6206 1E92                                            ?_pad 0060  
                                          l6072 3702                                            l5520 3988  
                                          l6064 3812                                            l6056 3802  
                                          l5192 35F2                                            l5184 35CE  
                                          l5096 34EC                                            l5088 34CC  
                                          l5176 3796                                            l5168 388E  
                                          l5504 31C0                                            l5360 309E  
                                          l5344 35A2                                            l5352 3402  
                                          l5280 261C                                            l5272 25D4  
                                          l5264 2564                                            l5256 2510  
                                          l5248 24DA                                            l5336 2C9C  
                                          l5328 2C62                                            l5432 1DC4  
                                          l5424 1D84                                            l5416 1CE0  
                                          l5408 1C48                                            l5440 202E  
                                          l6080 3728                                            l6048 3576  
                                          l6232 1F96                                            l6216 1F18  
                                          l6224 1F30                                            l6208 1EB0  
                                          l6074 3712                                            l5522 399C  
                                          l5610 3230                                            l6066 3816  
                                          l6058 3806                                            l6090 28E4  
                                          l5194 35F6                                            l5186 35D2  
                                          l5098 34F0                                            l5178 38A6  
                                          l5506 31D4                                            l5370 30F4  
                                          l5362 30A2                                            l5354 3424  
                                          l5274 25E6                                            l5266 2578  
                                          l5258 251E                                            l5338 2CC8  
                                          l5426 1D9E                                            l5418 1CE6  
                                          l5290 29DE                                            l5450 20C4  
                                          l5442 2038                                            l5530 13E6  
                                          l6082 3732                                            l5514 39FC  
                                          l6234 1FBC                                            l6218 1F1C  
                                          l6076 3720                                            l5620 323A  
                                          l5612 3232                                            l6068 381A  
                                          l6092 2912                                            l5188 35E2  
                                          l5508 31D8                                            l5372 30F8  
                                          l5364 30B8                                            l5356 3428  
                                          l5348 33EA                                            l5268 2586  
                                          l5276 25EC                                            l5428 1DAE  
                                          l5292 29F2                                            l5284 29AA  
                                          l5460 217A                                            l5452 20CA  
                                          l5444 2040                                            l5436 1FD6  
                                          l5540 1460                                            l5532 13F2  
                                          l5380 39AA                                            l5524 3A32  
                                          l5700 18BE                                            l6228 1F3A  
                                          l6180 1DEE                                            l5518 3992  
                                          l5614 3234                                            l6094 2922  
                                          l6086 28A6                                            l5622 3840  
                                          l5374 310C                                            l5366 30CC  
                                          l5198 3750                                            l5470 2656  
                                          l5278 25FC                                            l5390 1BAC  
                                          l5294 2A00                                            l5286 29B6  
                                          l5446 2046                                            l5454 212E  
                                          l5438 1FF0                                            l5550 14D8  
                                          l5542 146E                                            l5534 13F6  
                                          l5526 13B2                                            l5710 18EE  
                                          l5702 18C6                                            l5630 36C6  
                                          l6190 1E08                                            l6182 1DF0  
                                          l5616 3236                                            l5608 31EE  
                                          l5640 385A                                            l6096 2930  
                                          l6088 28D4                                            l5624 384A  
                                          l5368 30E0                                            l5480 26F0  
                                          l5472 2674                                            l5464 263E  
                                          l5392 1BCC                                            l5384 1B66  
                                          l5296 2A12                                            l5288 29D4  
                                          l5456 2142                                            l5448 20BE  
                                          l5560 1574                                            l5552 14FE  
                                          l5544 148E                                            l5536 141C  
                                          l5528 13D8                                            l5632 39F6  
                                          l5720 192C                                            l5712 18EE  
                                          l5704 18CA                                            l5800 0FA2  
                                          l6192 1E10                                            l6184 1DF2  
                                          l6176 1DE6                                            l5650 3548  
                                          l5634 38EE                                            l5642 38BE  
                                          l5618 3238                                            l6098 2942  
                                          l5490 276C                                            l5474 26AA  
                                          l5466 2652                                            l5394 1BE6  
                                          l5386 1B86                                            l5298 2A40  
                                          l5458 2160                                            l5570 15EE  
                                          l5562 1594                                            l5554 1506  
                                          l5538 1452                                            l5378 39A6  
                                          l5730 1978                                            l5722 193C  
                                          l5810 0FDA                                            l5802 0FA4  
                                          l5626 36AA                                            l6194 1E1C  
                                          l6186 1DFC                                            l6178 1DEA  
                                          l5652 3554                                            l5636 38FE  
                                          l5644 3820                                            l5476 26B2  
                                          l5396 1C02                                            l5388 1B9C  
                                          l6380 177E                                            l5580 16B2  
                                          l5572 160C                                            l5556 1514  
                                          l5548 149C                                            l5740 19C2  
                                          l5732 1986                                            l5724 194C  
                                          l5716 1902                                            l5708 18DE  
                                          l5660 17D8                                            l5900 12E4  
                                          l5820 1006                                            l5812 0FEA  
                                          l5804 0FB4                                            l5628 36BA  
                                          l6196 1E30                                            l6188 1E04  
                                          l5654 3560                                            l5638 3A3E  
                                          l5646 3834                                            l6382 26DA  
                                          l5486 2728                                            l5478 26BA  
                                          l5398 1C12                                            l5590 175E  
                                          l5582 16D0                                            l5574 162A  
                                          l5566 15A2                                            l5558 153A  
                                          l5750 1A08                                            l5742 19D4  
                                          l5734 1992                                            l5726 1954  
                                          l5718 191C                                            l5670 1818  
                                          l5662 17E6                                            l5910 135A  
                                          l5902 130E                                            l5830 105C  
                                          l5822 1016                                            l5814 0FF0  
                                          l5806 0FC4                                            l6198 1E3E  
                                          l5656 356C                                            l5648 3534  
                                          l5496 3182                                            l5488 275A  
                                          l5584 172E                                            l5592 178C  
                                          l5576 1682                                            l5568 15DE  
                                          l5760 1A68                                            l5744 19EA  
                                          l5752 1A1A                                            l5736 19B0  
                                          l5728 1964                                            l5680 183E  
                                          l5672 181A                                            l5664 17E8  
                                          l5912 1376                                            l5920 139C  
                                          l5904 1312                                            l5840 1096  
                                          l5832 106C                                            l5824 1026  
                                          l5816 0FF6                                            l5808 0FD4  
                                          l5498 3182                                            l5770 1AD6  
                                          l5754 1A28                                            l5746 19F0  
                                          l5738 19B2                                            l5690 187E  
                                          l5682 184C                                            l5666 17F8  
                                          l5674 1822                                            l5658 17CA  
                                          l5922 13A0                                            l5914 1386  
                                          l5906 132C                                            l5850 10E8  
                                          l5842 10AC                                            l5826 1036  
                                          l5818 1004                                            l5930 3042  
                                          l5596 179E                                            l5780 1B40  
                                          l5764 1A92                                            l5772 1ADA  
                                          l5756 1A2C                                            l5748 19FA  
                                          l5692 1880                                            l5684 184E  
                                          l5676 1832                                            l5668 1808  
                                          l5916 1394                                            l5908 1340  
                                          l5860 112E                                            l5852 10F6  
                                          l5844 10B8                                            l5836 1080  
                                          l5828 103C                                            l5940 307C  
                                          l5932 304A                                            l5782 1B44  
                                          l5774 1AF4                                            l5766 1A9E  
                                          l5758 1A3A                                            l5686 185E  
                                          l5694 1888                                            l5678 1838  
                                          l5918 1396                                            l5870 119C  
                                          l5862 1148                                            l5854 1102  
                                          l5846 10D0                                            l5838 108C  
                                          l5942 3084                                            l5934 3052  
                                          l5926 3028                                            l5950 21AE  
                                          l5784 1B52                                            l5776 1B0A  
                                          l5768 1AAC                                            l5696 1898  
                                          l5688 186E                                            l5880 1232  
                                          l5872 11C6                                            l5864 1158  
                                          l5856 1112                                            l5848 10DC  
                                          l5944 3086                                            l5936 3060  
                                          l5928 3030                                            l5960 222C  
                                          l5952 21BC                                            l5786 1B58  
                                          l5778 1B24                                            l5698 18AE  
                                          l5890 1272                                            l5882 1240  
                                          l5874 11FC                                            l5866 1174  
                                          l5858 111E                                            l5946 308C  
                                          l5938 3066                                            l5970 2280  
                                          l5962 2234                                            l5954 2202  
                                          l5788 1B5A                                            l5892 12A0  
                                          l5884 1252                                            l5876 120A  
                                          l5868 1180                                            l5796 0F86  
                                          l5980 22F6                                            l5972 22BC  
                                          l5964 2240                                            l5956 2218  
                                          l5948 219E                                            l5886 1260  
                                          l5878 1228                                            l5798 0F94  
                                          l5990 233E                                            l5982 22FA  
                                          l5974 22C8                                            l5966 2272  
                                          l5896 12CA                                            l5888 1264  
                                          l5984 231E                                            l5976 22D6  
                                          l5968 2274                                            l5994 3396  
                                          l5898 12D6                                            l5986 232E  
                                          l5978 22F4                                            l5996 33A2  
                                          l5988 233C                                            l5998 33C0  
                                          STR_1 0F21                                            _LATA 000F83  
                                          _LATB 000F84                                            _LATC 000F85  
                                          u4000 3402                                            u4001 33FE  
                                          u4010 3424                                            u4011 3420  
                                          u4020 30B8                                            u4100 1D66  
                                          u4021 30B4                                            u4101 1D62  
                                          u4030 310C                                            u4110 1D84  
                                          u4031 3108                                            u4111 1D80  
                                          u4200 275A                                            u4120 1D9E  
                                          u4040 1B98                                            u4201 2756  
                                          u4121 1D9A                                            u4041 1B92  
                                          u4210 276C                                            u4130 1DAE  
                                          u4050 1B9A                                            _T2PR 000FBC  
                                          u4211 2768                                            u4131 1DAA  
                                          u4220 3198                                            u4060 1BAC  
                                          u4140 1FF0                                            u4300 15DE  
                                          u5100 1EB0                                            u4221 3194  
                                          u4061 1BA8                                            u4141 1FEC  
                                          u4301 15DA                                            u5101 1EAC  
                                          u4230 31EC                                            u4070 1BE6  
                                          u4150 2142                                            u4310 160C  
                                          u5110 1EEA                                            u4231 31E8  
                                          u4071 1BE2                                            u4151 213E  
                                          u4311 1608                                            u5111 1EE6  
                                          u3600 3888                                            u4080 1C12  
                                          u4160 2160                                            u4320 162A  
                                          u4240 13D8                                            u4400 18AE  
                                          u5120 1F08                                            u3601 3884  
                                          u4081 1C0E                                            u4161 215C  
                                          u4321 1626                                            u4241 13D4  
                                          u4401 18AA                                            u5121 1F04  
                                          u3610 2E34                                            u4090 1C28  
                                          u4170 217A                                            u4330 16D0  
                                          u4250 141C                                            u4410 18EE  
                                          u5130 1F18                                            u3611 2E30  
                                          u4091 1C24                                            u4171 2176  
                                          u4331 16CC                                            u4251 1418  
                                          u4411 18EA                                            u5131 1F14  
                                          u3700 2D9A                                            u4180 2674  
                                          u3620 2E46                                            u4260 1460  
                                          u4500 1A68                                            u4420 1964  
                                          u4340 17E6                                            u5140 1F4E  
                                          u3701 2D96                                            u4181 2670  
                                          u3621 2E42                                            u4261 145C  
                                          u4501 1A64                                            u4421 1960  
                                          u4341 17E2                                            u5141 1F4A  
                                          u3710 3786                                            u4190 26A6  
                                          u3630 2E6E                                            u4270 14D8  
                                          u4510 1A7E                                            u4430 1986  
                                          u4350 17F8                                            u5150 1FA6  
                                          u5070 1E3E                                            u3711 3782  
                                          u5207 3320                                            u4191 26A2  
                                          u3631 2E6A                                            u4271 14D4  
                                          u4511 1A7A                                            u4431 1982  
                                          u4351 17F4                                            u5151 1FA0  
                                          u5071 1E3A                                            u3720 35E2  
                                          u3800 24EC                                            u3640 2EA4  
                                          u4280 14FE                                            u4520 1A92  
                                          u4440 19B0                                            u4360 1808  
                                          u4600 1004                                            u5080 1E56  
                                          u3721 35DE                                            u3801 24E8  
                                          u3641 2EA0                                            u4281 14FA  
                                          u4521 1A8E                                            u4441 19AC  
                                          u4361 1804                                            u4601 1000  
                                          u5081 1E52                                            u3650 37EE  
                                          u3730 2364                                            u3810 251E  
                                          u4290 153A                                            u4530 1AAC  
                                          u4450 19D4                                            u4370 184C  
                                          u4610 1016                                            u5090 1E92  
                                          u3651 37EA                                            u3731 2360  
                                          u3811 251A                                            u4291 1536  
                                          u4531 1AA8                                            u4451 19D0  
                                          u4371 1848                                            u4611 1012  
                                          u5091 1E8E                                            u3660 34CA  
                                          u3740 2396                                            u3820 255C  
                                          u3900 2ABA                                            u4540 1AF4  
                                          u4460 19EA                                            u4380 185E  
                                          u4700 12B6                                            u4620 1026  
                                          u5156 1FA8                                            _PMD0 000EE1  
                                          u3661 34C6                                            u3741 2392  
                                          u3821 2558                                            u3901 2AB6  
                                          u4541 1AF0                                            u4461 19E6  
                                          u4381 185A                                            u4701 12B2  
                                          u4621 1022                                            _PMD1 000EE2  
                                          u3670 34E0                                            u3830 2586  
                                          u3910 2AE4                                            u4550 1B24  
                                          u4470 1A08                                            u4390 186E  
                                          u4710 12CA                                            u4630 105C  
                                          _PMD2 000EE3                                            u3671 34DC  
                                          u3751 23C0                                            u3831 2582  
                                          u3911 2AE0                                            u4551 1B20  
                                          u4471 1A04                                            u4391 186A  
                                          u4711 12C6                                            u4631 1058  
                                          u5167 1FC4                                            _PMD3 000EE4  
                                          u3680 2F48                                            u3760 23E4  
                                          u3840 25B4                                            u3920 2B12  
                                          u4560 1B52                                            u4480 1A28  
                                          u4720 12E4                                            u4640 106C  
                                          u4800 21BC                                            _PMD4 000EE5  
                                          u3681 2F44                                            u5177 3274  
                                          u3761 23E0                                            u3841 25B0  
                                          u3921 2B0E                                            u4561 1B4E  
                                          u4481 1A24                                            u4721 12E0  
                                          u4641 1068                                            u4801 21B8  
                                          _PMD5 000EE6                                            u3770 240E  
                                          u3850 25FC                                            u3690 3472  
                                          u3930 2C3E                                            u4490 1A3A  
                                          u4730 132C                                            u4650 11E6  
                                          u4570 0FA2                                            u4810 2218  
                                          u5187 32B6                                            u3771 240A  
                                          u3851 25F8                                            u3691 346E  
                                          u3931 2C3A                                            u4491 1A36  
                                          u4731 1328                                            u4571 0F9E  
                                          u4811 2214                                            u4900 3712  
                                          u3780 244E                                            u3940 2C62  
                                          u4740 135A                                            u4660 1240  
                                          u4580 0FB4                                            u4820 226E  
                                          u4901 370E                                            u5197 32DE  
                                          u3781 244A                                            u3941 2C5E  
                                          u3861 29B0                                            u4741 1356  
                                          u4661 123C                                            u4581 0FB0  
                                          u4821 226A                                            u4910 3720  
                                          u3790 2498                                            u3950 2CBA  
                                          u3870 29D4                                            u4750 1394  
                                          u4670 1260                                            u4590 0FC4  
                                          u4830 22B8                                            u4911 371C  
                                          u3791 2494                                            u3951 2CB6  
                                          u3871 29D0                                            u4751 1390  
                                          u4671 125C                                            u4655 11DC  
                                          u4591 0FC0                                            u4831 22B4  
                                          u4920 28D4                                            u3960 2CC8  
                                          u3880 2A00                                            u4680 1272  
                                          u4760 3042                                            u4840 22D6  
                                          u4921 28D0                                            u3961 2CC4  
                                          u3881 29FC                                            u4681 126E  
                                          u4761 303E                                            u4841 22D2  
                                          u4930 2912                                            u3970 348E  
                                          u3890 2A40                                            u4690 12A0  
                                          u4770 3060                                            u4850 22E6  
                                          u4931 290E                                            u3971 348A  
                                          u3891 2A3C                                            u4691 129C  
                                          u4771 305C                                            u4851 22E2  
                                          u4940 2930                                            u3980 35C6  
                                          u4780 307C                                            u4860 22F4  
                                          u4941 292C                                            u3981 35C0  
                                          u4781 3078                                            u4861 22F0  
                                          u4950 2950                                            u3990 35C8  
                                          u4870 232E                                            u4790 21AE  
                                ?_windSpeedCalc 007E                                            u4951 294C  
                                          u4871 232A                                            u4791 21AA  
                                          u4960 29A0                                            u4880 233C  
                                          u4961 299C                                            u4881 2338  
                                          u4890 33DE                                            u4891 33DA  
                                          i2l92 367C                                            i2l95 3650  
                                          i2l98 3624                                            _TMR2 000FBB  
                                          _WPUA 000F10                                            _WPUB 000F18  
                                          _WPUC 000F20                                            _WPUE 000F2D  
                       ??_wr2RegCompleteHandler 000C                                ??_I2C1_MasterFsm 000E  
                                 _EUSART1_Write 3876                                ??_I2C1_MasterIsr 0010  
                     ??_I2C1_CallbackReturnStop 000C                                            abs@a 002C  
                                          _dbuf 00E0                                            _atoi 263E  
                                          _main 1DE6                                            _dtoa 1B66  
                                          _prec 003A                                            pad@i 0066  
                                          pad@p 0064                                            fsr1h 000FE2  
                                          fsr2h 000FDA                                            indf2 000FDF  
                                          fsr1l 000FE1                                            pad@w 0068  
                                          fsr2l 000FD9                                            btemp 0046  
                                          _utoa 1FD6                                            prodh 000FF4  
                                          prodl 000FF3                                            start 00C6  
                              ??_I2C1_SetBuffer 001E                                 ___fldiv@new_exp 0076  
                               _motorController 383E                             _TMR2_Counter8BitGet 39A6  
                                  ___param_bank 000000                              i2_I2C1_SetCallback 2FAE  
                 I2C1_CallbackReturnStop@funPtr 000A                                           ??_abs 002E  
                                         ??_pad 002C                                    main@hall_raw 0100  
                 __end_of_OSCILLATOR_Initialize 38D6                             ?i2_I2C1_SetCallback 0001  
                               __end_of___aodiv 24DA                               __end_of_I2C1_Open 2E22  
                                         ?_atoi 0020                                           ?_main 0001  
                                         ?_dtoa 006A                                 __end_of___aomod 263E  
                               __end_of___fldiv 1B66                                 __end_of___flmul 13B2  
                                         ?_utoa 006A                                 __end_of___lodiv 2A9C  
                                         _T2CON 000FBD                                 __end_of___lomod 2B6C  
                                         _T2HLT 000FBE                                 __end_of___lwdiv 309C  
                                         _T2TMR 000FBB                                           _T2RST 000FC0  
                                         i2l101 36A8                                           i2l104 3532  
                                         i2l410 317E                                           i2l403 3026  
                                         i2l413 3972                                           i2l501 3394  
                                         i2l422 2BF6                                           i2l406 3A18  
                                         i2l512 3A4C                                           i2l416 3934  
                                         i2l425 2C2E                                           i2l450 3966  
                                         i2l531 39F4                                           i2l419 3924  
                                         i2l380 37BC                                           i2l540 3A48  
                                         i2l509 3A50                                           i2l534 3A58  
                                         i2l438 2D14                                           i2l383 38EC  
                                         i2l439 2D82                                           i2l528 3A44  
                                         i2l552 3A2A                                           i2l456 2F32  
                                         i2l480 39DC                                           i2l546 3A54  
                                         i2l474 39EC                                           i2l555 3A30  
                                         i2l483 39D4                                           i2l492 39BC  
                                         i2l652 009A                                           i2l549 3914  
                                         i2l477 39E4                                           i2l573 3A1E  
                                         i2l486 39CC                                           i2l495 395A  
                                         i2l647 007A                                           i2l576 3A24  
                                         i2l648 009A                                           i2l489 39C4  
                    __end_of_i2c1_fsmStateTable 0F21                                           _OSCEN 000EDC  
                                  vfpfcnvrt@fmt 008F                          ??_I2C1_MasterEnableIrq 001A  
                                         _TRISA 000F88                                           _TRISB 000F89  
                                         _TRISC 000F8A                          ??_I2C1_MasterGetRxData 0001  
                         ?_I2C1_DO_RX_NACK_STOP 0001                      ??_I2C1_CallbackReturnReset 000C  
                             ??_I2C1_MasterOpen 001A                               ??_I2C1_MasterStop 0001  
                          ?_TMR2_Counter8BitGet 0001                               ??_I2C1_Initialize 001A  
                                         _flags 003E                                     ?_TMR2_Start 0001  
                                         _fputc 2E22                                           _fputs 3430  
                               __end_of_isdigit 35CE                                           atoi@n 0027  
                                         pad@fp 0060                                           atoi@s 0020  
                                         _width 0038                                           _putch 3974  
                                         dtoa@d 006C                                           dtoa@i 008B  
                                         dtoa@n 0082                                           dtoa@p 007E  
                                         dtoa@s 008A                                           dtoa@w 0080  
                               __end_of_isspace 3430                                  ?_EUSART1_Write 0001  
                                         pclath 000FFA                                           pclatu 000FFB  
                                         tablat 000FF5                            ??i2_I2C1_SetCallback 0005  
                                         ttemp5 0047                                           ttemp6 004A  
                                         ttemp7 004E                                           utoa@d 006C  
                                         utoa@i 0088                                           utoa@n 0080  
                                         utoa@p 007E                                           utoa@w 007C  
                                         status 000FD8                                           wtemp8 0047  
                                  ??_I2C1_DO_RX 000C                                    ??_I2C1_DO_TX 000C  
                               _TMR2_StartTimer 39F6                                ___lodiv@dividend 001A  
            _EUSART1_DefaultFramingErrorHandler 000000                          ??_I2C1_DO_ADDRESS_NACK 000C  
                                  ??_I2C1_Close 001A                        fp__rd1RegCompleteHandler 0000  
                               __initialization 37BE                                     _system_init 3572  
                                  __end_of_atoi 2792                      __end_of_EUSART1_Initialize 3572  
                                  __end_of_main 1FD6                                    __end_of_dtoa 1DE6  
                      fp__wr1RegCompleteHandler 0000                                    __end_of_utoa 219C  
                       __end_of_TMR2_Initialize 383E                     ?_INTERRUPT_InterruptManager 0001  
                  fp__I2C1_DO_SEND_RESTART_READ 0000                                          ??_atoi 0022  
                        ??_I2C1_MasterOperation 001A                                          ??_main 00BB  
                                        ??_dtoa 0074                                          ??_utoa 0074  
                                 __activetblptr 000003                              __end_of_I2C1_DO_RX 2D84  
                            __end_of_I2C1_DO_TX 2C30                                ___lodiv@quotient 0060  
                         ??_TMR2_Counter8BitGet 001A                              __end_of_I2C1_Close 35FA  
                       ?_I2C1_Read1ByteRegister 0023                                 ??_windSpeedCalc 002F  
                                        ?_fputc 001C                                          ?_fputs 0025  
                                        _ANSELA 000F11                                          ?_putch 0001  
                                        _ANSELB 000F19                                          _ANSELC 000F21  
                                        _RC1REG 000F99                                          _RC1STA 000F9D  
                                        _RC3PPS 000EFA                                          _RC4PPS 000EFB  
                                        _ODCONA 000F0F                                          _ODCONB 000F17  
                                        _RC6PPS 000EFD                                          _ODCONC 000F1F  
                                        i2l4000 3922                                          i2l4012 2B8C  
                                        i2l4004 2B6C                                          i2l4100 39C6  
                                        i2l4030 2C2C                                          i2l4022 2B9C  
                                        i2l4102 39CA                                          i2l4110 3958  
                                        i2l4024 2BFA                                          i2l4016 2B94  
                                        i2l4008 2B84                                          i2l4040 2CEC  
                                        i2l4026 2C0C                                          i2l4042 2CF2  
                                        i2l4106 3950                                          i2l4122 3344  
                                        i2l4114 3330                                          i2l4028 2C26  
                                        i2l4052 2D1A                                          i2l4044 2D0A  
                                        i2l4108 3954                                          i2l4116 3334  
                                        i2l4062 2D2A                                          i2l4046 2D0E  
                                        i2l4038 2CDE                                          i2l4070 3960  
                                        i2l4118 333C                                          i2l4222 3A1A  
                                        i2l4056 2D22                                          i2l4072 3964  
                                        i2l4128 334C                                          i2l4082 2EC8  
                                        i2l3460 2FF6                                          i2l4084 2ECC  
                                        i2l4076 2EB8                                          i2l4068 395C  
                                        i2l4260 3138                                          i2l4078 2EC0  
                                        i2l4094 2EDA                                          i2l4262 313E  
                                        i2l4254 3110                                          i2l3544 3A56  
                                        i2l3712 379A                                          i2l3456 2FB0  
                                        i2l3720 38D6                                          i2l4088 2ED2  
                                        i2l3800 39D2                                          i2l4256 3114  
                                        i2l3546 3A52                                          i2l3714 37AA  
                                        i2l3458 2FC2                                          i2l3810 39B6  
                                        i2l4258 3124                                          i2l3716 37B2  
                                        i2l3740 3652                                          i2l3548 3A2C  
                                        i2l3804 3A42                                          i2l3812 39BA  
                                        i2l3718 37BA                                          i2l3742 3666  
                                        i2l3750 363A                                          i2l3822 3A46  
                                        i2l3830 3A20                                          i2l3744 367A  
                                        i2l3752 364E                                          i2l3760 3622  
                                        i2l3832 3A4E                                          i2l3808 3A26  
                                        i2l3824 39D6                                          i2l3816 39BE  
                                        i2l4712 3A14                                          _INLVLA 000F0D  
                                        i2l3826 39DA                                          i2l3818 39C2  
                                        _INLVLB 000F15                                          _INLVLC 000F1D  
                                        i2l3764 367E                                          i2l3748 3626  
                                        i2l3756 35FA                                          i2l3772 34F4  
                                        i2l3836 3A4A                                          i2l3780 3902  
                                        _INLVLE 000F2A                                          i2l3766 3692  
                                        i2l3758 360E                                          i2l3774 351C  
                                        i2l4910 0032                                          i2l3768 36A6  
                                        i2l3776 3530                                          i2l3784 39F0  
                                        i2l3792 39DE                                          i2l4912 0040  
                                        i2l3786 39E6                                          i2l3794 39E2  
                                        i2l4914 0050                                          i2l3980 3968  
                                        i2l3788 39EA                                          i2l4916 005E  
                                        i2l6390 2F0C                                          i2l3982 396C  
                                        i2l3990 392A                                          i2l3798 39CE  
                                        i2l4918 0088                                          i2l3984 3970  
                                        i2l3992 3932                                          i2l6384 337E  
                                        i2l6386 2D5C                                          i2l3988 3926  
                                        i2l3996 3916                                          i2l6388 2BD0  
                                        i2l3998 391A                         __end_of_motorController 385A  
                                        _OSCFRQ 000EDE                                          _RX1PPS 000EB5  
                                        _TX1REG 000F9A                                          _TX1STA 000F9E  
                             ?_I2C1_MasterClose 0001                                   main@readCount 0102  
                              __end_of___xxtofl 2350                         ??_I2C1_MasterDisableIrq 001A  
                             ?_I2C1_MasterStart 0001                               ?_I2C1_MasterWrite 0001  
                            ??_I2C1_MasterClose 001A                                _I2C1_DO_TX_EMPTY 2EB8  
                              __end_of_hallRead 36FE                              ??_I2C1_MasterStart 001A  
                            ??_I2C1_MasterWrite 001C                                    vfprintf@cfmt 00A7  
                      ?_I2C1_Write1ByteRegister 0023                                          ___flge 28A6  
                                  ?_motorDeploy 0001                                       ??___aodiv 002A  
                                     ??___aomod 002A                                          ___wmul 3750  
                                     ??___fldiv 006D                                       ??___flmul 0022  
                                     ??___lodiv 002A                                       ??___lomod 002A  
                                     ??___lwdiv 001E                        ?_EUSART1_SetErrorHandler 001A  
                                        clear_0 37C4                                          clear_1 37D0  
                                        isa$std 000001                                          _printf 3728  
                                 main@temp_data 0104                                          pad@buf 0062  
              ??_EUSART1_SetOverrunErrorHandler 001C                 ?_EUSART1_SetOverrunErrorHandler 001A  
                                        dtoa@fp 006A                        ??_I2C1_DO_SEND_ADR_WRITE 0002  
                             ?_I2C1_SetCallback 001A                          ??_I2C1_DO_RX_NACK_STOP 0001  
              __end_of_I2C1_SetInterruptHandler 3988                           _I2C1_DO_SEND_ADR_READ 3926  
                                        fputc@c 001C                                  _PMD_Initialize 385A  
                              __end_of_tempRead 3950                                          fputs@c 0029  
                                        fputs@i 002A                                          fputs@s 0025  
                                     ??_isdigit 001C                   ?_I2C1_SetDataCompleteCallback 001F  
                            ??_I2C1_SetCallback 001E                                    __mediumconst 0000  
                                     ??_isspace 001C                  __end_of_I2C1_Read1ByteRegister 3110  
                                        tblptrh 000FF7                                          tblptrl 000FF6  
                                        tblptru 000FF8                                __end_of_vfprintf 33EA  
                               ??_EUSART1_Write 001A                                          utoa@fp 006A  
                       __end_of_TMR2_StartTimer 39FC        I2C1_SetInterruptHandler@InterruptHandler 001A  
                       _I2C1_DO_RX_NACK_RESTART 39B6                      fp__I2C1_DO_RX_NACK_RESTART 0000  
                         i2_I2C1_MasterClearIrq 3A1A                                      ___flge@ff1 001A  
                                    ___flge@ff2 001E                                    ___xxtofl@arg 002B  
                                  ___xxtofl@exp 002A                               _SYSTEM_Initialize 3802  
                                  ___xxtofl@val 0021                  I2C1_SetDataCompleteCallback@cb 001F  
              i2I2C1_SetDataCompleteCallback@cb 0006                                      __accesstop 0060  
                       __end_of__initialization 37D6                 I2C1_MasterOperation@returnValue 001B  
                            ?_SYSTEM_Initialize 0001                                   ___rparam_used 000001  
                              main@deployStatus 0107                         _rdBlkRegCompleteHandler 34F4  
                    fp__rdBlkRegCompleteHandler 0000                                  __pcstackCOMRAM 0001  
                           ??_SYSTEM_Initialize 001C                __end_of_I2C1_MasterEnableRestart 3A5A  
                                 __end_of_fputc 2EB8                                   __end_of_fputs 3474  
                                 __end_of_putch 397E                                ?_TMR2_Initialize 0001  
                        __end_of_PMD_Initialize 3876                    ??_I2C1_DO_SEND_RESTART_WRITE 0001  
                       ??_I2C1_MasterSendTxData 0001                           __end_of_I2C1_DO_RESET 395C  
                                       ??_fputc 0020                       __end_of_SYSTEM_Initialize 3820  
                                       ??_fputs 0029                                         ??_putch 001B  
                                    __pbssBANK0 00BC                   __end_of_rd2RegCompleteHandler 3652  
                              ?_motorController 0026                            I2C1_Open@returnValue 001D  
                                    __pnvCOMRAM 0040                   __end_of_wr2RegCompleteHandler 36AA  
               __end_of_I2C1_Write1ByteRegister 31EE                      i2I2C1_SetBuffer@bufferSize 0003  
                         _rd1RegCompleteHandler 3652                               _I2C1_DO_SEND_STOP 39CE  
                         _wr1RegCompleteHandler 35FA                 __end_of_EUSART1_SetErrorHandler 39A6  
                      _EUSART1_is_tx_ready$1681 001A                        rd1RegCompleteHandler@ptr 000A  
                                 fp__I2C1_DO_RX 0000                                   fp__I2C1_DO_TX 0000  
                               fp__I2C1_DO_IDLE 0000                                 fp__I2C1_DO_RCEN 0000  
                                       ?___flge 001A                         fp__I2C1_DO_ADDRESS_NACK 0000  
                            ?_I2C1_DO_SEND_STOP 0001                                      _hallRecord 36AA  
                                       ?___wmul 001A                                 _I2C1_MasterOpen 37E0  
                               _I2C1_MasterStop 3A52                                 _I2C1_Initialize 38EE  
                             fp__I2C1_DO_RX_ACK 0000                                         ?_printf 00A9  
                               ?_PMD_Initialize 0001                          ?_I2C1_DO_SEND_ADR_READ 0001  
                           ??_I2C1_DO_SEND_STOP 0001          __end_of_EUSART1_SetFramingErrorHandler 399C  
                _EUSART1_SetFramingErrorHandler 3992                                       ?___xxtofl 0021  
                             _I2C1_MasterIsNack 3902                                         _SP1BRGH 000F9C  
                                       _SP1BRGL 000F9B                                         _OSCCON1 000ED8  
                                       _OSCCON3 000EDA                                       _I2C1_Open 2D84  
                     ??_I2C1_DO_RX_NACK_RESTART 0001                                       ?_hallRead 0026  
                                       _OSCTUNE 000EDD                               _I2C1_MasterSetIrq 3A20  
                                       _SSP1ADD 000F93                                         _SLRCONA 000F0E  
                                       _SLRCONB 000F16                                         _SLRCONC 000F1E  
                                       _SSP1BUF 000F92                        _I2C1_SetInterruptHandler 397E  
                                  ??_TMR2_Start 001A                              ?_I2C1_MasterIsNack 0001  
                        ?i2_I2C1_MasterClearIrq 0001                      ?_I2C1_DO_SEND_RESTART_READ 0001  
                           motorController@data 0029                                ?_TMR2_StartTimer 0001  
                ??_I2C1_SetDataCompleteCallback 0023                                ___lomod@dividend 001A  
                            ?_I2C1_MasterSetIrq 0001                              _i2c1_fsmStateTable 0F01  
                           ??_I2C1_MasterIsNack 0001                       __end_of_I2C1_DO_SEND_STOP 39D6  
                     ??_rdBlkRegCompleteHandler 000C                              I2C1_SetCallback@cb 001A  
                           ??_I2C1_MasterSetIrq 0001                                         __Hparam 0000  
                                       __Lparam 0000                                       ?_tempRead 0001  
                                  ?_system_init 0001                                         ___aodiv 2350  
                                       ___aomod 24DA                                         ___fldiv 17CA  
                           fp__I2C1_DO_TX_EMPTY 0000                                         ___flmul 0F86  
                                       ___lodiv 29AA                                         ___lomod 2A9C  
                                       ___lwdiv 3028                                       ?_vfprintf 00A1  
                        windSpeedCalc@linearVel 0086                                    __psmallconst 0F00  
                            __end_of_TMR2_Start 3A36                                         __pcinit 37BE  
                                 ?_I2C1_DO_IDLE 0001                                   ?_I2C1_DO_RCEN 0001  
                                       __ramtop 0F00                             _EUSART1_is_tx_ready 36FE  
                                       __ptext0 1DE6                                         __ptext1 2792  
                                       __ptext2 36AA                                         __ptext3 219C  
                                       __ptext4 3028                                         __ptext5 0F86  
                                       __ptext6 17CA                                         __ptext7 3944  
                                       __ptext8 3572                                         __ptext9 36D4  
                      _I2C1_MasterEnableRestart 3A56                              _windSpeedCalc$2881 008A  
                            _windSpeedCalc$2882 008E                       __end_of_I2C1_MasterIsNack 3916  
                  ?_I2C1_SetAddressNackCallback 001F                           _OSCILLATOR_Initialize 38BE  
                                     _T2CONbits 000FBD                                         _isdigit 35A2  
                     __end_of_I2C1_MasterSetIrq 3A26                                      ??___xxtofl 0025  
                      __end_of_I2C1_DO_TX_EMPTY 2F34                              _EUSART1_Initialize 3534  
                      ??_PIN_MANAGER_Initialize 001A                                         _isspace 33EA  
                                     _T2HLTbits 000FBE                        wr1RegCompleteHandler@ptr 000A  
                                    ?_I2C1_Open 0001                                      ??_hallRead 0028  
                       fp__I2C1_DO_RX_NACK_STOP 0000                                         atoi@neg 0025  
                      ?_I2C1_CallbackReturnStop 000A               __end_of_I2C1_DO_SEND_RESTART_READ 39EE  
                          end_of_initialization 37D6                      __end_of_I2C1_MasterSendAck 3A2C  
                                     _T2RSTbits 000FC0                             _I2C1_MasterClearIrq 3A0E  
                           ?_EUSART1_Initialize 0001          __end_ofi2_I2C1_SetDataCompleteCallback 38EE  
                i2_I2C1_SetDataCompleteCallback 38D6                            ?_EUSART1_is_tx_ready 0001  
                                       fputc@fp 001E                      __end_of_I2C1_MasterStartRx 3A4A  
                   _EUSART1_OverrunErrorHandler 0042                                         fputs@fp 0027  
                        ?_rd1RegCompleteHandler 000A                          _I2C1_DO_SEND_ADR_WRITE 3916  
                             __end_of_motorStow 32C6                    __end_of_I2C1_DO_SEND_RESTART 39DE  
                       __end_of_I2C1_MasterOpen 3802                          ?_wr1RegCompleteHandler 000A  
                       __end_of_I2C1_MasterStop 3A56                         __end_of_I2C1_Initialize 3902  
                     ?_I2C1_CallbackReturnReset 000A                   __end_of_I2C1_MasterDisableIrq 3A0E  
                                    ??_tempRead 0026                                     _I2C1_Status 00BC  
                      fp__rd2RegCompleteHandler 0000                               __end_of_vfpfcnvrt 17CA  
                                       postdec2 000FDD                                     ?_hallRecord 0001  
                      fp__wr2RegCompleteHandler 0000                                         postinc0 000FEE  
                                       postinc1 000FE6                                         postinc2 000FDE  
                                main@wind_speed 0108                                vfpfcnvrt@convarg 0097  
                             fp__I2C1_MasterIsr 0000                             _I2C1_MasterSendNack 3A2C  
           __end_of_I2C1_SetAddressNackCallback 38BE                     _I2C1_SetAddressNackCallback 38A6  
                                    ??_vfprintf 0030                            ?_I2C1_MasterClearIrq 0001  
                                ??_I2C1_DO_IDLE 0001                            ??_EUSART1_Initialize 001C  
                                ??_I2C1_DO_RCEN 0001              __end_of_I2C1_DO_SEND_RESTART_WRITE 39E6  
                    _I2C1_DO_SEND_RESTART_WRITE 39DE                     __end_of_TMR2_Counter8BitGet 39AE  
                                     _PORTAbits 000F8D                 __end_of_rdBlkRegCompleteHandler 3534  
                 ??_I2C1_SetAddressNackCallback 0023                       I2C1_Read1ByteRegister@reg 0023  
                                 ___xxtofl@sign 0029                 I2C1_SetDataCompleteCallback@ptr 0021  
             i2I2C1_SetDataCompleteCallback@ptr 0008                     I2C1_Write1ByteRegister@data 0024  
                                   ___fldiv@grs 0078                                     ___fldiv@rem 0071  
                I2C1_CallbackReturnReset@funPtr 000A                            ?_I2C1_MasterSendNack 0001  
                           EUSART1_Write@txData 001A                                  _TMR2_ReadTimer 39FC  
                         __end_of_windSpeedCalc 28A6                           ??_EUSART1_is_tx_ready 001A  
                                _motorFaultRead 3936                                     ___flmul@grs 0062  
                    rdBlkRegCompleteHandler@ptr 000A                                i2_I2C1_SetBuffer 379A  
                            windSpeedCalc@dw_dt 0082                    __end_of_INTERRUPT_Initialize 3A42  
                         ??_I2C1_MasterClearIrq 001A                                  __end_of___flge 29AA  
                                   vfpfcnvrt@ap 0091                                     vfpfcnvrt@cp 009F  
                                   vfpfcnvrt@fp 008D                                  __end_of___wmul 3776  
                                _I2C1_DO_RX_ACK 39C6                          ?_OSCILLATOR_Initialize 0001  
               __end_of_I2C1_CallbackReturnStop 3A52                                  __end_of_printf 3750  
                 __end_of_I2C1_MasterSendTxData 39F6                             start_initialization 37BE  
                               ___lodiv@divisor 0022                                     ??_I2C1_Open 001C  
                               ___lodiv@counter 0068                                     __end_of_abs 34B4  
                                   __end_of_pad 2CDE                           ??_I2C1_MasterSendNack 0001  
                        __end_of_TMR2_ReadTimer 3A02                          __end_of_motorFaultRead 3944  
                                   putch@txData 001B                           __end_of_EUSART1_Write 388E  
                         i2I2C1_SetCallback@idx 0005                           i2I2C1_SetCallback@ptr 0003  
                      I2C1_SetBuffer@bufferSize 001C                                ?_I2C1_MasterOpen 0001  
                              ?_I2C1_MasterStop 0001                  I2C1_Write1ByteRegister@address 0025  
                              ?_I2C1_Initialize 0001                                     vfprintf@fmt 00A3  
                                      ??___flge 0022                                ??_PMD_Initialize 001A  
                        __end_of_I2C1_DO_RX_ACK 39CE                                        ??___wmul 001E  
                       ??_I2C1_DO_SEND_ADR_READ 0001                      ??_I2C1_SetInterruptHandler 001C  
                                      ??_printf 0030                                I2C1_Open@address 001C  
                                     ___fldiv@a 002A                                       ___fldiv@b 0026  
                       ??i2_I2C1_MasterClearIrq 0001                                       ___flmul@a 001E  
                                     ___flmul@b 001A                                     __pbssCOMRAM 0030  
                          _I2C1_DO_SEND_RESTART 39D6                                   __pcstackBANK0 0060  
                                 __pcstackBANK1 0100                                ___aodiv@dividend 001A  
                        i2I2C1_SetBuffer@buffer 0001                                 ?_TMR2_ReadTimer 0001  
                               ?_motorFaultRead 0001                     ??_I2C1_DO_SEND_RESTART_READ 0001  
                          __end_of_I2C1_DO_IDLE 3974                ??_EUSART1_SetFramingErrorHandler 001C  
               ?_EUSART1_SetFramingErrorHandler 001A                            __end_of_I2C1_DO_RCEN 3968  
                 I2C1_SetAddressNackCallback@cb 001F                           _rd2RegCompleteHandler 3626  
                     fp__I2C1_DO_SEND_ADR_WRITE 0000                                ___lwdiv@dividend 001A  
                        _PIN_MANAGER_Initialize 31EE                           _wr2RegCompleteHandler 367E  
                                     _dtoa$2473 007C                          _MSSP1_InterruptHandler 003C  
                    ??_I2C1_MasterEnableRestart 0001                        rd2RegCompleteHandler@ptr 000A  
                                     __pintcode 0008                                  _I2C1_MasterFsm 3110  
                                _I2C1_MasterIsr 3A14                                fp__I2C1_DO_RESET 0000  
                                      ?___aodiv 001A                                        ?___aomod 001A  
                               ?_I2C1_DO_RX_ACK 0001                                        ?___fldiv 0026  
                                     __ptext100 367E                                       __ptext101 38D6  
                                     __ptext102 2FAE                                ___aodiv@quotient 0062  
                                     __ptext103 379A                                       __ptext104 3A52  
                                     __ptext105 3A56                                       __ptext106 0000  
                                      ?___flmul 001A                                       _hall_time 0030  
                                      ?___lodiv 001A                                        ?___lomod 001A  
                                      ?___lwdiv 001A                                _I2C1_MasterClose 3A3A  
                      ??_I2C1_Read1ByteRegister 0024                                  _I2C1_SetBuffer 3776  
                  ??_INTERRUPT_InterruptManager 0010                                _I2C1_MasterStart 3A36  
                            motorController@dir 0027                                _I2C1_MasterWrite 39AE  
                               ___lomod@divisor 0022                                        _BAUD1CON 000F9F  
                                   __smallconst 0F00                         _I2C1_Write1ByteRegister 3180  
                               ___lomod@counter 002A              _EUSART1_DefaultOverrunErrorHandler 000000  
                                      ?_isdigit 001A                           ?_I2C1_DO_SEND_RESTART 0001  
                          _EUSART1_ErrorHandler 0040                                        ?_isspace 001A  
                             ?_I2C1_DO_TX_EMPTY 0001                         _EUSART1_SetErrorHandler 399C  
              __end_of_I2C1_CallbackReturnReset 3A4E                                ___lwdiv@quotient 001F  
                            ??_I2C1_DO_TX_EMPTY 000C                                        _T2CLKCON 000FBF  
                       ??_rd1RegCompleteHandler 000C                         ?_I2C1_DO_SEND_ADR_WRITE 0001  
                     I2C1_MasterSendTxData@data 0001                            _INTERRUPT_Initialize 3A3E  
                       ??_wr1RegCompleteHandler 000C                                main@motor1_fault 0105  
                              main@motor2_fault 0106                                _I2C1_SetCallback 2F34  
                                ___wmul@product 001E         EUSART1_SetErrorHandler@interruptHandler 001A  
                                      _LATBbits 000F84                                      _I2C1_DO_RX 2CDE  
                                    _I2C1_DO_TX 2B6C                                        _PIE3bits 000EC5  
                                    _I2C1_Close 35CE                          __end_of_I2C1_MasterFsm 3180  
                        __end_of_I2C1_MasterIsr 3A1A                    __end_of_I2C1_MasterEnableIrq 3A08  
                  __end_of_I2C1_MasterGetRxData 3A46                                        i2u226_40 37AA  
                                      i2u250_40 2B80                                        i2u226_41 37A6  
                                      i2u250_41 2B7C                                        i2u252_40 2C26  
                                      i2u251_48 2BAA                                        i2u252_41 2C22  
                                      i2u251_49 2BBE                                        i2u229_40 3912  
                                      i2u253_40 2D0A                                        i2u229_41 390C  
                                      i2u253_41 2D06                                        i2u229_46 3914  
                                      i2u254_48 2D38                                        i2u254_49 2D4A  
                                      i2u255_48 2EE8                                        i2u255_49 2EFA  
                                      i2u193_40 2FC2                                        i2u256_48 335A  
                                      i2u193_41 2FBE                                        i2u256_49 336C  
                                      i2u354_40 0040                                        i2u354_41 003C  
                                      i2u267_40 3124                                        i2u355_40 0050  
                                      i2u267_41 3120                                        i2u355_41 004C  
                                      i2u268_40 3138                                        i2u356_40 005E  
                                      i2u268_41 3134                                        i2u356_41 005A  
                                      _PIR3bits 000ECD                                        i2u269_48 3168  
                                      i2u358_40 0088                                        i2u357_48 0064  
                                      i2u269_49 317A                                        i2u358_41 0084  
                                      i2u357_49 0076                                        i2u359_40 0096  
                                      i2u359_41 0092                                        _PIR4bits 000ECE  
                                 ??_motorDeploy 002A                              _I2C1_MasterSendAck 3A26  
                                     _motorStow 325C                                    ??_hallRecord 002C  
                     _I2C1_DO_SEND_RESTART_READ 39E6                                        _SSP1CON1 000F96  
                                      _SSP1CON2 000F97                          __end_of_I2C1_SetBuffer 379A  
                                      _SSP1STAT 000F95            __end_of_I2C1_SetDataCompleteCallback 38A6  
              ??i2_I2C1_SetDataCompleteCallback 000A                 ?i2_I2C1_SetDataCompleteCallback 0006  
                  _I2C1_SetDataCompleteCallback 388E                              _I2C1_MasterStartRx 3A46  
                                     _vfpfcnvrt 13B2                     ?_I2C1_DO_SEND_RESTART_WRITE 0001  
                    I2C1_Write1ByteRegister@reg 0023                            motorController@speed 0026  
                           ?_I2C1_MasterSendAck 0001                               ___wmul@multiplier 001A  
                      ?_I2C1_DO_RX_NACK_RESTART 0001                        __end_ofi2_I2C1_SetBuffer 37BE  
                          fp__I2C1_DO_SEND_STOP 0000                             ?_I2C1_MasterStartRx 0001  
                  __end_of_I2C1_DO_ADDRESS_NACK 3396                        wr2RegCompleteHandler@ptr 000A  
                                  _isspace$2530 001E                  __end_of_I2C1_DO_SEND_ADR_WRITE 3926  
                                 _I2C1_DO_RESET 3950                      __end_ofi2_I2C1_SetCallback 3028  
                         ?_INTERRUPT_Initialize 0001                           I2C1_Close@returnValue 001A  
                      ?_rdBlkRegCompleteHandler 000A                             I2C1_SetCallback@idx 001E  
                            __end_of_hallRecord 36D4                             I2C1_SetCallback@ptr 001C  
                          ??_I2C1_MasterSendAck 0001                               ??_TMR2_Initialize 001A  
                        ?_rd2RegCompleteHandler 000A                            i2I2C1_SetCallback@cb 0001  
                  __end_of_I2C1_MasterOperation 34F4                          ?_wr2RegCompleteHandler 000A  
                          ??_I2C1_MasterStartRx 0001                                        __Hrparam 0000  
                               ?_I2C1_MasterFsm 0001                                 ?_I2C1_MasterIsr 0001  
                                    vfprintf@ap 00A5                                        __Lrparam 0000  
                                    vfprintf@fp 00A1                                      ?_motorStow 0001  
                         _I2C1_MasterDisableIrq 3A08                         ??_OSCILLATOR_Initialize 001A  
                               ?_I2C1_SetBuffer 001A                                      ?_vfpfcnvrt 008D  
                     ??_I2C1_Write1ByteRegister 0025                                 ___aodiv@divisor 0022  
                               ___aodiv@counter 0060               I2C1_Read1ByteRegister@returnValue 0025  
                           __end_of_motorDeploy 3330                          ??_I2C1_DO_SEND_RESTART 0001  
                             ??_motorController 0028                       ??_EUSART1_SetErrorHandler 001C  
                   _EUSART1_DefaultErrorHandler 000000                                        ___xxtofl 219C  
                   __end_of_EUSART1_is_tx_ready 3728                                 ___lwdiv@divisor 001C  
                                ?_I2C1_DO_RESET 0001                                        _hallRead 36D4  
                               ___lwdiv@counter 001E                                        __ptext10 39F6  
                                      __ptext11 3A32                                        __ptext20 1B66  
                                      __ptext12 39FC                                        __ptext21 2C30  
                                      __ptext13 39A6                                        __ptext30 33EA  
                                      __ptext22 3430                                        __ptext14 3728  
                                      __ptext31 35A2                                        __ptext23 2E22  
                                      __ptext15 3396                                        __ptext40 3776  
                                      __ptext32 3750                                        __ptext24 3974  
                                      __ptext16 13B2                                        __ptext41 38A6  
                                      __ptext33 325C                                        __ptext25 3876  
                                      __ptext17 1FD6                                        __ptext50 35CE  
                                      __ptext42 2F34                                        __ptext34 3936  
                                      __ptext26 3474                                        __ptext18 2A9C  
                                      __ptext51 3A08                                        __ptext43 2D84  
                                      __ptext35 309C                                        __ptext27 24DA  
                                      __ptext19 29AA                                        __ptext60 3A3E  
                                      __ptext52 3A3A                                        __ptext44 397E  
                                      __ptext36 32C6                                        __ptext28 2350  
                                      __ptext61 38EE                                        __ptext53 3A0E  
                                      __ptext45 37E0                                        __ptext37 383E  
                                      __ptext29 263E                                        __ptext70 3A1A  
                                      __ptext62 3534                                        __ptext54 28A6  
                                      __ptext46 3A02                                        __ptext38 3180  
                                      __ptext71 3330                                        __ptext63 3988  
                                      __ptext55 3802                                        __ptext47 39AE  
                                      __ptext39 388E                                        __ptext80 395C  
                                      __ptext72 3950                                        __ptext64 3992  
                                      __ptext56 3820                                        __ptext48 34B4  
                                      __ptext81 2CDE                                        __ptext73 39B6  
                                      __ptext65 399C                                        __ptext57 385A  
                                      __ptext49 3A36                                        __ptext90 3A26  
                                      __ptext82 2B6C                                        __ptext74 39BE  
                                      __ptext66 36FE                                        __ptext58 31EE  
                                      __ptext91 3A42                                        __ptext83 3916  
                                      __ptext75 39C6                                        __ptext59 38BE  
                                      __ptext92 3A2C                                        __ptext84 3926  
                                      __ptext76 39CE                                        __ptext68 3A14  
                                      __ptext93 3A46                                        __ptext85 3968  
                                      __ptext77 39D6                                        __ptext69 3110  
                                      __ptext94 3A4A                                        __ptext86 2EB8  
                                      __ptext78 39DE                                        __ptext95 3A4E  
                                      __ptext87 3A20                                        __ptext79 39E6  
                                      __ptext96 34F4                                        __ptext88 3902  
                                      __ptext97 35FA                                        __ptext89 39EE  
                                      _hall_pos 0034                                        __ptext98 3626  
                                      __ptext99 3652                                    _SSP1CON1bits 000F96  
                                  _SSP1CON2bits 000F97                           motorFaultRead@address 0026  
                      _I2C1_CallbackReturnReset 3A4A                     fp__I2C1_CallbackReturnReset 0000  
                                   ?_I2C1_DO_RX 0001                                     ?_I2C1_DO_TX 0001  
                   __end_of_I2C1_MasterClearIrq 3A14                    __end_of_I2C1_DO_RX_NACK_STOP 39C6  
                                   ?_I2C1_Close 0001                                        _tempRead 3944  
                                    _RC1STAbits 000F9D  EUSART1_SetOverrunErrorHandler@interruptHandler 001A  
                                      isa$xinst 000000                                        int$flags 0046  
               __end_of_I2C1_DO_RX_NACK_RESTART 39BE                                      _ODCONBbits 000F17  
                      I2C1_MasterOperation@read 001A                                        _vfprintf 3396  
                             ??_TMR2_StartTimer 001A              __end_of_INTERRUPT_InterruptManager 00C6  
                    _INTERRUPT_InterruptManager 0008                                       printf@fmt 00A9  
                                  _SSP1STATbits 000F95                   __end_of_I2C1_DO_SEND_ADR_READ 3936  
                   _EUSART1_FramingErrorHandler 0044                                    _I2C1_DO_IDLE 3968  
                                  _I2C1_DO_RCEN 395C                                ___aomod@dividend 001A  
                   __end_of_I2C1_MasterSendNack 3A32                                ??_TMR2_ReadTimer 001B  
                              ??_motorFaultRead 0026                                      _INTCONbits 000FF2  
                 fp__I2C1_DO_SEND_RESTART_WRITE 0000                  I2C1_SetAddressNackCallback@ptr 0021  
                          _I2C1_MasterEnableIrq 3A02                            _I2C1_MasterGetRxData 3A42  
                 __end_ofi2_I2C1_MasterClearIrq 3A20                           _I2C1_MasterSendTxData 39EE  
                                      isdigit@c 001A                          ??_INTERRUPT_Initialize 001A  
                                      intlevel2 0000                                 main@threshCount 010C  
                      __end_of_I2C1_MasterClose 3A3E                          _I2C1_Read1ByteRegister 309C  
                                      isspace@c 001A                         ?_PIN_MANAGER_Initialize 0001  
                 I2C1_Read1ByteRegister@address 0024                        __end_of_I2C1_MasterStart 3A3A  
                      __end_of_I2C1_MasterWrite 39B6          __end_of_EUSART1_SetOverrunErrorHandler 3992  
                _EUSART1_SetOverrunErrorHandler 3988                                ??_I2C1_DO_RX_ACK 0001  
                       _I2C1_CallbackReturnStop 3A4E                      fp__I2C1_CallbackReturnStop 0000  
                          _I2C1_DO_ADDRESS_NACK 3330                                   ??_system_init 002C  
                        ?_I2C1_MasterDisableIrq 0001                                     ??_motorStow 002A  
                                   _motorDeploy 32C6                                        printf@ap 00B9  
EUSART1_SetFramingErrorHandler@interruptHandler 001A                                 ___aomod@divisor 0022  
                    TMR2_Counter8BitGet@readVal 001A                                     ??_vfpfcnvrt 0093  
                               ___aomod@counter 002A                              _eusart1RxLastError 003F  
                      __end_of_I2C1_SetCallback 2FAE                                      _SSP1DATPPS 000EB8  
                                    _SSP1CLKPPS 000EB7                                 ??_I2C1_DO_RESET 0001  
                          _I2C1_MasterOperation 34B4                           ?_I2C1_MasterEnableIrq 0001  
                         ?_I2C1_MasterGetRxData 0001                                      _TX1STAbits 000F9E  
                                    _TMR2_Start 3A32                                    ___aodiv@sign 0061  
                __end_of_PIN_MANAGER_Initialize 325C                                   _windSpeedCalc 2792  
                     ?_I2C1_SetInterruptHandler 001A                   __end_of_rd1RegCompleteHandler 367E  
                        motorController@address 0028                   __end_of_wr1RegCompleteHandler 3626  
                                  ___aomod@sign 002B                           ?_I2C1_DO_ADDRESS_NACK 0001  
